Component: ARM Compiler 5.06 update 6 (build 750) Tool: armlink [4d35ed]

==============================================================================

Section Cross References

    lab4.o(.text) refers to rt_cmsis.o(i.osMessagePut) for osMessagePut
    lab4.o(.text) refers to rt_cmsis.o(i.osMessageGet) for osMessageGet
    lab4.o(.text) refers to graphics.o(.text) for previousEntry
    lab4.o(.text) refers to colors.o(.text) for loadGroups
    lab4.o(.text) refers to context.o(i.GrContextInit) for GrContextInit
    lab4.o(.text) refers to string.o(i.GrContextFontSet) for GrContextFontSet
    lab4.o(.text) refers to rgb.o(.text) for rgb_write_r
    lab4.o(.text) refers to uart_functions.o(.text) for readUART
    lab4.o(.text) refers to interrupt.o(i.IntEnable) for IntEnable
    lab4.o(.text) refers to cfaf128x128x16.o(.text) for cfaf128x128x16Init
    lab4.o(.text) refers to rt_cmsis.o(i.osKernelInitialize) for osKernelInitialize
    lab4.o(.text) refers to rt_cmsis.o(i.osThreadCreate) for osThreadCreate
    lab4.o(.text) refers to rt_cmsis.o(i.osMessageCreate) for osMessageCreate
    lab4.o(.text) refers to rt_cmsis.o(i.osKernelStart) for osKernelStart
    lab4.o(.text) refers to rt_cmsis.o(i.osDelay) for osDelay
    lab4.o(.text) refers to lab4.o(.data) for .data
    lab4.o(.text) refers to cfaf128x128x16.o(.constdata) for g_sCfaf128x128x16
    lab4.o(.text) refers to fontfixed6x8.o(.constdata) for g_sFontFixed6x8
    lab4.o(.text) refers to lab4.o(.constdata) for .constdata
    lab4.o(.constdata) refers to lab4.o(.bss) for os_messageQ_q_UARTMsgBox
    lab4.o(.constdata) refers to lab4.o(.bss) for os_messageQ_q_MenuMsgBox
    lab4.o(.constdata) refers to lab4.o(.bss) for os_messageQ_q_RedLEDMsgBox
    lab4.o(.constdata) refers to lab4.o(.bss) for os_messageQ_q_GreenLEDMsgBox
    lab4.o(.constdata) refers to lab4.o(.bss) for os_messageQ_q_BlueLEDMsgBox
    lab4.o(.constdata) refers to lab4.o(.text) for UART
    colors.o(.text) refers to h1_alloc_mt.o(.text) for malloc
    colors.o(.text) refers to rt_memcpy_w.o(.text) for __aeabi_memcpy4
    colors.o(.text) refers to assert.o(.text) for __aeabi_assert
    colors.o(.text) refers to colors.o(.constdata) for .constdata
    graphics.o(.text) refers to assert.o(.text) for __aeabi_assert
    graphics.o(.text) refers to colors.o(.text) for previousColor
    graphics.o(.text) refers to terminal.o(.text) for terminal_clear
    graphics.o(.text) refers to comunication.o(.text) for sendString
    graphics.o(.text) refers to string.o(i.GrStringDraw) for GrStringDraw
    graphics.o(.text) refers to rectangle.o(i.GrRectFill) for GrRectFill
    comunication.o(.text) refers to strlen.o(.text) for strlen
    comunication.o(.text) refers to uart_functions.o(.text) for sendUART
    terminal.o(.text) refers to utils.o(.text) for intToString
    terminal.o(.text) refers to strcpy.o(.text) for strcpy
    terminal.o(.text) refers to strcat.o(.text) for strcat
    terminal.o(.text) refers to comunication.o(.text) for sendString
    utils.o(.text) refers to llsdiv.o(.text) for __aeabi_ldivmod
    utils.o(.text) refers to utils.o(.data) for .data
    utils.o(.data) refers to utils.o(.conststring) for .conststring
    buzzer.o(.text) refers to pwm.o(i.PWMClockSet) for PWMClockSet
    buzzer.o(.text) refers to pwm.o(i.PWMOutputState) for PWMOutputState
    buzzer.o(.text) refers to pwm.o(i.PWMGenPeriodGet) for PWMGenPeriodGet
    buzzer.o(.text) refers to pwm.o(i.PWMPulseWidthSet) for PWMPulseWidthSet
    buzzer.o(.text) refers to pwm.o(i.PWMGenPeriodSet) for PWMGenPeriodSet
    buzzer.o(.text) refers to sysctl.o(i.SysCtlPeripheralEnable) for SysCtlPeripheralEnable
    buzzer.o(.text) refers to sysctl.o(i.SysCtlPeripheralReady) for SysCtlPeripheralReady
    buzzer.o(.text) refers to gpio.o(i.GPIOPinTypePWM) for GPIOPinTypePWM
    buzzer.o(.text) refers to gpio.o(i.GPIOPinConfigure) for GPIOPinConfigure
    buzzer.o(.text) refers to pwm.o(i.PWMGenConfigure) for PWMGenConfigure
    buzzer.o(.text) refers to pwm.o(i.PWMOutputInvert) for PWMOutputInvert
    buzzer.o(.text) refers to pwm.o(i.PWMGenEnable) for PWMGenEnable
    buzzer.o(.text) refers to buzzer.o(.data) for .data
    accel.o(.text) refers to sysctl.o(i.SysCtlPeripheralEnable) for SysCtlPeripheralEnable
    accel.o(.text) refers to adc.o(i.ADCSequenceStepConfigure) for ADCSequenceStepConfigure
    accel.o(.text) refers to gpio.o(i.GPIOPinTypeADC) for GPIOPinTypeADC
    accel.o(.text) refers to adc.o(i.ADCSequenceConfigure) for ADCSequenceConfigure
    accel.o(.text) refers to adc.o(i.ADCSequenceEnable) for ADCSequenceEnable
    accel.o(.text) refers to adc.o(i.ADCIntClear) for ADCIntClear
    accel.o(.text) refers to adc.o(i.ADCProcessorTrigger) for ADCProcessorTrigger
    accel.o(.text) refers to adc.o(i.ADCIntStatus) for ADCIntStatus
    accel.o(.text) refers to adc.o(i.ADCSequenceDataGet) for ADCSequenceDataGet
    buttons.o(.text) refers to sysctl.o(i.SysCtlPeripheralEnable) for SysCtlPeripheralEnable
    buttons.o(.text) refers to sysctl.o(i.SysCtlPeripheralReady) for SysCtlPeripheralReady
    buttons.o(.text) refers to gpio.o(i.GPIOPinTypeGPIOInput) for GPIOPinTypeGPIOInput
    buttons.o(.text) refers to gpio.o(i.GPIOPinRead) for GPIOPinRead
    cfaf128x128x16.o(.text) refers to cfaf128x128x16.o(.data) for .data
    cfaf128x128x16.o(.text) refers to sysctl.o(i.SysCtlClockFreqSet) for SysCtlClockFreqSet
    cfaf128x128x16.o(.constdata) refers to cfaf128x128x16.o(.text) for cfaf128x128x16PixelDraw
    led.o(.text) refers to led.o(.constdata) for .constdata
    mic.o(.text) refers to sysctl.o(i.SysCtlPeripheralEnable) for SysCtlPeripheralEnable
    mic.o(.text) refers to adc.o(i.ADCSequenceStepConfigure) for ADCSequenceStepConfigure
    mic.o(.text) refers to gpio.o(i.GPIOPinTypeADC) for GPIOPinTypeADC
    mic.o(.text) refers to adc.o(i.ADCSequenceConfigure) for ADCSequenceConfigure
    mic.o(.text) refers to adc.o(i.ADCSequenceEnable) for ADCSequenceEnable
    mic.o(.text) refers to adc.o(i.ADCIntClear) for ADCIntClear
    mic.o(.text) refers to adc.o(i.ADCProcessorTrigger) for ADCProcessorTrigger
    mic.o(.text) refers to adc.o(i.ADCIntStatus) for ADCIntStatus
    mic.o(.text) refers to adc.o(i.ADCSequenceDataGet) for ADCSequenceDataGet
    opt.o(.text) refers to i2c.o(i.I2CMasterSlaveAddrSet) for I2CMasterSlaveAddrSet
    opt.o(.text) refers to i2c.o(i.I2CMasterDataPut) for I2CMasterDataPut
    opt.o(.text) refers to i2c.o(i.I2CMasterBusBusy) for I2CMasterBusBusy
    opt.o(.text) refers to sysctl.o(.emb_text) for SysCtlDelay
    opt.o(.text) refers to i2c.o(i.I2CMasterControl) for I2CMasterControl
    opt.o(.text) refers to i2c.o(i.I2CMasterBusy) for I2CMasterBusy
    opt.o(.text) refers to i2c.o(i.I2CMasterErr) for I2CMasterErr
    opt.o(.text) refers to i2c.o(i.I2CMasterDataGet) for I2CMasterDataGet
    opt.o(.text) refers to i2c.o(i.I2CMasterBurstLengthSet) for I2CMasterBurstLengthSet
    opt.o(.text) refers to i2c.o(i.I2CMasterIntClearEx) for I2CMasterIntClearEx
    opt.o(.text) refers to i2c.o(i.I2CMasterIntClear) for I2CMasterIntClear
    opt.o(.text) refers to opt.o(.data) for .data
    opt.o(.text) refers to sysctl.o(i.SysCtlClockFreqSet) for SysCtlClockFreqSet
    opt.o(.text) refers to sysctl.o(i.SysCtlPeripheralEnable) for SysCtlPeripheralEnable
    opt.o(.text) refers to sysctl.o(i.SysCtlPeripheralReset) for SysCtlPeripheralReset
    opt.o(.text) refers to sysctl.o(i.SysCtlPeripheralReady) for SysCtlPeripheralReady
    opt.o(.text) refers to gpio.o(i.GPIOPinTypeGPIOInput) for GPIOPinTypeGPIOInput
    opt.o(.text) refers to gpio.o(i.GPIOPinConfigure) for GPIOPinConfigure
    opt.o(.text) refers to gpio.o(i.GPIOPinTypeI2CSCL) for GPIOPinTypeI2CSCL
    opt.o(.text) refers to gpio.o(i.GPIOPinTypeI2C) for GPIOPinTypeI2C
    opt.o(.text) refers to i2c.o(i.I2CMasterTimeoutSet) for I2CMasterTimeoutSet
    opt.o(.text) refers to i2c.o(i.I2CMasterGlitchFilterConfigSet) for I2CMasterGlitchFilterConfigSet
    opt.o(.text) refers to i2c.o(i.I2CMasterInitExpClk) for I2CMasterInitExpClk
    opt.o(.text) refers to i2c.o(i.I2CMasterIntEnableEx) for I2CMasterIntEnableEx
    opt.o(.text) refers to i2c.o(i.I2CIntRegister) for I2CIntRegister
    opt.o(.text) refers to interrupt.o(i.IntEnable) for IntEnable
    opt.o(.text) refers to i2c.o(i.I2CMasterEnable) for I2CMasterEnable
    rgb.o(.text) refers to pwm.o(i.PWMOutputState) for PWMOutputState
    rgb.o(.text) refers to pwm.o(i.PWMGenPeriodGet) for PWMGenPeriodGet
    rgb.o(.text) refers to pwm.o(i.PWMPulseWidthSet) for PWMPulseWidthSet
    rgb.o(.text) refers to sysctl.o(i.SysCtlClockFreqSet) for SysCtlClockFreqSet
    rgb.o(.text) refers to sysctl.o(i.SysCtlPeripheralEnable) for SysCtlPeripheralEnable
    rgb.o(.text) refers to sysctl.o(i.SysCtlPeripheralReady) for SysCtlPeripheralReady
    rgb.o(.text) refers to pwm.o(i.PWMGenDisable) for PWMGenDisable
    rgb.o(.text) refers to gpio.o(i.GPIOPinTypePWM) for GPIOPinTypePWM
    rgb.o(.text) refers to pwm.o(i.PWMClockSet) for PWMClockSet
    rgb.o(.text) refers to gpio.o(i.GPIOPinConfigure) for GPIOPinConfigure
    rgb.o(.text) refers to pwm.o(i.PWMGenConfigure) for PWMGenConfigure
    rgb.o(.text) refers to pwm.o(i.PWMGenPeriodSet) for PWMGenPeriodSet
    rgb.o(.text) refers to pwm.o(i.PWMGenEnable) for PWMGenEnable
    rgb.o(.text) refers to rgb.o(.data) for .data
    servo.o(.text) refers to timer.o(i.TimerMatchSet) for TimerMatchSet
    servo.o(.text) refers to sysctl.o(i.SysCtlClockFreqSet) for SysCtlClockFreqSet
    servo.o(.text) refers to sysctl.o(i.SysCtlPeripheralEnable) for SysCtlPeripheralEnable
    servo.o(.text) refers to sysctl.o(i.SysCtlPeripheralReady) for SysCtlPeripheralReady
    servo.o(.text) refers to gpio.o(i.GPIOPinConfigure) for GPIOPinConfigure
    servo.o(.text) refers to gpio.o(i.GPIOPinTypeTimer) for GPIOPinTypeTimer
    servo.o(.text) refers to timer.o(i.TimerClockSourceSet) for TimerClockSourceSet
    servo.o(.text) refers to timer.o(i.TimerConfigure) for TimerConfigure
    servo.o(.text) refers to timer.o(i.TimerControlLevel) for TimerControlLevel
    servo.o(.text) refers to timer.o(i.TimerUpdateMode) for TimerUpdateMode
    servo.o(.text) refers to timer.o(i.TimerPrescaleSet) for TimerPrescaleSet
    servo.o(.text) refers to timer.o(i.TimerLoadSet) for TimerLoadSet
    servo.o(.text) refers to timer.o(i.TimerEnable) for TimerEnable
    servo.o(.text) refers to servo.o(.data) for .data
    joy.o(.text) refers to sysctl.o(i.SysCtlPeripheralEnable) for SysCtlPeripheralEnable
    joy.o(.text) refers to sysctl.o(i.SysCtlPeripheralReady) for SysCtlPeripheralReady
    joy.o(.text) refers to gpio.o(i.GPIOPinTypeGPIOInput) for GPIOPinTypeGPIOInput
    joy.o(.text) refers to adc.o(i.ADCSequenceStepConfigure) for ADCSequenceStepConfigure
    joy.o(.text) refers to gpio.o(i.GPIOPinTypeADC) for GPIOPinTypeADC
    joy.o(.text) refers to adc.o(i.ADCSequenceConfigure) for ADCSequenceConfigure
    joy.o(.text) refers to adc.o(i.ADCSequenceEnable) for ADCSequenceEnable
    joy.o(.text) refers to adc.o(i.ADCIntClear) for ADCIntClear
    joy.o(.text) refers to adc.o(i.ADCProcessorTrigger) for ADCProcessorTrigger
    joy.o(.text) refers to adc.o(i.ADCIntStatus) for ADCIntStatus
    joy.o(.text) refers to adc.o(i.ADCSequenceDataGet) for ADCSequenceDataGet
    joy.o(.text) refers to gpio.o(i.GPIOPinRead) for GPIOPinRead
    temp.o(.text) refers to i2c.o(i.I2CMasterSlaveAddrSet) for I2CMasterSlaveAddrSet
    temp.o(.text) refers to i2c.o(i.I2CMasterDataPut) for I2CMasterDataPut
    temp.o(.text) refers to i2c.o(i.I2CMasterBusBusy) for I2CMasterBusBusy
    temp.o(.text) refers to sysctl.o(.emb_text) for SysCtlDelay
    temp.o(.text) refers to i2c.o(i.I2CMasterControl) for I2CMasterControl
    temp.o(.text) refers to i2c.o(i.I2CMasterBusy) for I2CMasterBusy
    temp.o(.text) refers to i2c.o(i.I2CMasterErr) for I2CMasterErr
    temp.o(.text) refers to i2c.o(i.I2CMasterDataGet) for I2CMasterDataGet
    temp.o(.text) refers to i2c.o(i.I2CMasterBurstLengthSet) for I2CMasterBurstLengthSet
    temp.o(.text) refers to temp.o(.data) for .data
    temp.o(.text) refers to i2c.o(i.I2CMasterIntClearEx) for I2CMasterIntClearEx
    temp.o(.text) refers to i2c.o(i.I2CMasterIntClear) for I2CMasterIntClear
    temp.o(.text) refers to sysctl.o(i.SysCtlClockFreqSet) for SysCtlClockFreqSet
    temp.o(.text) refers to sysctl.o(i.SysCtlPeripheralEnable) for SysCtlPeripheralEnable
    temp.o(.text) refers to sysctl.o(i.SysCtlPeripheralReset) for SysCtlPeripheralReset
    temp.o(.text) refers to sysctl.o(i.SysCtlPeripheralReady) for SysCtlPeripheralReady
    temp.o(.text) refers to gpio.o(i.GPIOPinTypeGPIOInput) for GPIOPinTypeGPIOInput
    temp.o(.text) refers to gpio.o(i.GPIOPinConfigure) for GPIOPinConfigure
    temp.o(.text) refers to gpio.o(i.GPIOPinTypeI2CSCL) for GPIOPinTypeI2CSCL
    temp.o(.text) refers to gpio.o(i.GPIOPinTypeI2C) for GPIOPinTypeI2C
    temp.o(.text) refers to i2c.o(i.I2CMasterTimeoutSet) for I2CMasterTimeoutSet
    temp.o(.text) refers to i2c.o(i.I2CMasterGlitchFilterConfigSet) for I2CMasterGlitchFilterConfigSet
    temp.o(.text) refers to i2c.o(i.I2CMasterInitExpClk) for I2CMasterInitExpClk
    temp.o(.text) refers to i2c.o(i.I2CMasterIntEnableEx) for I2CMasterIntEnableEx
    temp.o(.text) refers to i2c.o(i.I2CIntRegister) for I2CIntRegister
    temp.o(.text) refers to interrupt.o(i.IntEnable) for IntEnable
    temp.o(.text) refers to i2c.o(i.I2CMasterEnable) for I2CMasterEnable
    rtx_conf_cm.o(.emb_text) refers to rt_cmsis.o(i.osKernelInitialize) for osKernelInitialize
    rtx_conf_cm.o(.emb_text) refers to rt_cmsis.o(i.osThreadCreate) for osThreadCreate
    rtx_conf_cm.o(.emb_text) refers to rt_cmsis.o(i.osKernelStart) for osKernelStart
    rtx_conf_cm.o(.emb_text) refers to exit.o(.text) for exit
    rtx_conf_cm.o(.emb_text) refers to rtx_conf_cm.o(.constdata) for os_thread_def_main
    rtx_conf_cm.o(.text) refers to rt_task.o(i.rt_tsk_self) for rt_tsk_self
    rtx_conf_cm.o(.text) refers to rt_mutex.o(i.rt_mut_init) for rt_mut_init
    rtx_conf_cm.o(.text) refers to rt_cmsis.o(.data) for os_running
    rtx_conf_cm.o(.text) refers to rtx_conf_cm.o(.bss) for .bss
    rtx_conf_cm.o(.text) refers to libspace.o(.bss) for __libspace_start
    rtx_conf_cm.o(.text) refers to rtx_conf_cm.o(.data) for .data
    rtx_conf_cm.o(.text) refers to rt_mutex.o(i.rt_mut_wait) for rt_mut_wait
    rtx_conf_cm.o(.text) refers to rt_mutex.o(i.rt_mut_release) for rt_mut_release
    rtx_conf_cm.o(.constdata) refers to rt_cmsis.o(i.osTimerThread) for osTimerThread
    rtx_conf_cm.o(.constdata) refers to rtx_conf_cm.o(.bss) for os_messageQ_q_osTimerMessageQ
    rtx_conf_cm.o(.constdata) refers to lab4.o(.text) for main
    startup_tm4c129.o(STACK) refers (Special) to heapauxi.o(.text) for __use_two_region_memory
    startup_tm4c129.o(HEAP) refers (Special) to heapauxi.o(.text) for __use_two_region_memory
    startup_tm4c129.o(RESET) refers (Special) to heapauxi.o(.text) for __use_two_region_memory
    startup_tm4c129.o(RESET) refers to startup_tm4c129.o(STACK) for __initial_sp
    startup_tm4c129.o(RESET) refers to startup_tm4c129.o(.text) for Reset_Handler
    startup_tm4c129.o(RESET) refers to hal_cm4.o(.emb_text) for SVC_Handler
    startup_tm4c129.o(RESET) refers to lab4.o(.text) for UART0_Handler
    startup_tm4c129.o(.text) refers (Special) to heapauxi.o(.text) for __use_two_region_memory
    startup_tm4c129.o(.text) refers to system_tm4c129.o(.text) for SystemInit
    startup_tm4c129.o(.text) refers to __main.o(!!!main) for __main
    startup_tm4c129.o(.text) refers to startup_tm4c129.o(HEAP) for Heap_Mem
    startup_tm4c129.o(.text) refers to startup_tm4c129.o(STACK) for Stack_Mem
    system_tm4c129.o(.text) refers to system_tm4c129.o(.data) for .data
    adc.o(i.ADCIntRegister) refers to interrupt.o(i.IntRegister) for IntRegister
    adc.o(i.ADCIntRegister) refers to interrupt.o(i.IntEnable) for IntEnable
    adc.o(i.ADCIntUnregister) refers to interrupt.o(i.IntDisable) for IntDisable
    adc.o(i.ADCIntUnregister) refers to interrupt.o(i.IntUnregister) for IntUnregister
    adc.o(i.ADCSoftwareOversampleConfigure) refers to adc.o(.data) for .data
    adc.o(i.ADCSoftwareOversampleDataGet) refers to adc.o(.data) for .data
    adc.o(i.ADCSoftwareOversampleStepConfigure) refers to adc.o(.data) for .data
    gpio.o(i.GPIOIntRegister) refers to gpio.o(i._GPIOIntNumberGet) for _GPIOIntNumberGet
    gpio.o(i.GPIOIntRegister) refers to interrupt.o(i.IntRegister) for IntRegister
    gpio.o(i.GPIOIntRegister) refers to interrupt.o(i.IntEnable) for IntEnable
    gpio.o(i.GPIOIntRegisterPin) refers to gpio.o(i._GPIOIntNumberGet) for _GPIOIntNumberGet
    gpio.o(i.GPIOIntRegisterPin) refers to interrupt.o(i.IntRegister) for IntRegister
    gpio.o(i.GPIOIntRegisterPin) refers to interrupt.o(i.IntEnable) for IntEnable
    gpio.o(i.GPIOIntUnregister) refers to gpio.o(i._GPIOIntNumberGet) for _GPIOIntNumberGet
    gpio.o(i.GPIOIntUnregister) refers to interrupt.o(i.IntDisable) for IntDisable
    gpio.o(i.GPIOIntUnregister) refers to interrupt.o(i.IntUnregister) for IntUnregister
    gpio.o(i.GPIOIntUnregisterPin) refers to gpio.o(i._GPIOIntNumberGet) for _GPIOIntNumberGet
    gpio.o(i.GPIOIntUnregisterPin) refers to interrupt.o(i.IntDisable) for IntDisable
    gpio.o(i.GPIOIntUnregisterPin) refers to interrupt.o(i.IntUnregister) for IntUnregister
    gpio.o(i.GPIOPinConfigure) refers to gpio.o(.constdata) for .constdata
    gpio.o(i.GPIOPinTypeADC) refers to gpio.o(i.GPIODirModeSet) for GPIODirModeSet
    gpio.o(i.GPIOPinTypeADC) refers to gpio.o(i.GPIOPadConfigSet) for GPIOPadConfigSet
    gpio.o(i.GPIOPinTypeCAN) refers to gpio.o(i.GPIODirModeSet) for GPIODirModeSet
    gpio.o(i.GPIOPinTypeCAN) refers to gpio.o(i.GPIOPadConfigSet) for GPIOPadConfigSet
    gpio.o(i.GPIOPinTypeComparator) refers to gpio.o(i.GPIODirModeSet) for GPIODirModeSet
    gpio.o(i.GPIOPinTypeComparator) refers to gpio.o(i.GPIOPadConfigSet) for GPIOPadConfigSet
    gpio.o(i.GPIOPinTypeComparatorOutput) refers to gpio.o(i.GPIODirModeSet) for GPIODirModeSet
    gpio.o(i.GPIOPinTypeComparatorOutput) refers to gpio.o(i.GPIOPadConfigSet) for GPIOPadConfigSet
    gpio.o(i.GPIOPinTypeDIVSCLK) refers to gpio.o(i.GPIODirModeSet) for GPIODirModeSet
    gpio.o(i.GPIOPinTypeDIVSCLK) refers to gpio.o(i.GPIOPadConfigSet) for GPIOPadConfigSet
    gpio.o(i.GPIOPinTypeEPI) refers to gpio.o(i.GPIODirModeSet) for GPIODirModeSet
    gpio.o(i.GPIOPinTypeEPI) refers to gpio.o(i.GPIOPadConfigSet) for GPIOPadConfigSet
    gpio.o(i.GPIOPinTypeEthernetLED) refers to gpio.o(i.GPIODirModeSet) for GPIODirModeSet
    gpio.o(i.GPIOPinTypeEthernetLED) refers to gpio.o(i.GPIOPadConfigSet) for GPIOPadConfigSet
    gpio.o(i.GPIOPinTypeEthernetMII) refers to gpio.o(i.GPIODirModeSet) for GPIODirModeSet
    gpio.o(i.GPIOPinTypeEthernetMII) refers to gpio.o(i.GPIOPadConfigSet) for GPIOPadConfigSet
    gpio.o(i.GPIOPinTypeGPIOInput) refers to gpio.o(i.GPIODirModeSet) for GPIODirModeSet
    gpio.o(i.GPIOPinTypeGPIOInput) refers to gpio.o(i.GPIOPadConfigSet) for GPIOPadConfigSet
    gpio.o(i.GPIOPinTypeGPIOOutput) refers to gpio.o(i.GPIOPadConfigSet) for GPIOPadConfigSet
    gpio.o(i.GPIOPinTypeGPIOOutput) refers to gpio.o(i.GPIODirModeSet) for GPIODirModeSet
    gpio.o(i.GPIOPinTypeGPIOOutputOD) refers to gpio.o(i.GPIOPadConfigSet) for GPIOPadConfigSet
    gpio.o(i.GPIOPinTypeGPIOOutputOD) refers to gpio.o(i.GPIODirModeSet) for GPIODirModeSet
    gpio.o(i.GPIOPinTypeHibernateRTCCLK) refers to gpio.o(i.GPIODirModeSet) for GPIODirModeSet
    gpio.o(i.GPIOPinTypeHibernateRTCCLK) refers to gpio.o(i.GPIOPadConfigSet) for GPIOPadConfigSet
    gpio.o(i.GPIOPinTypeI2C) refers to gpio.o(i.GPIODirModeSet) for GPIODirModeSet
    gpio.o(i.GPIOPinTypeI2C) refers to gpio.o(i.GPIOPadConfigSet) for GPIOPadConfigSet
    gpio.o(i.GPIOPinTypeI2CSCL) refers to gpio.o(i.GPIODirModeSet) for GPIODirModeSet
    gpio.o(i.GPIOPinTypeI2CSCL) refers to gpio.o(i.GPIOPadConfigSet) for GPIOPadConfigSet
    gpio.o(i.GPIOPinTypeLCD) refers to gpio.o(i.GPIODirModeSet) for GPIODirModeSet
    gpio.o(i.GPIOPinTypeLCD) refers to gpio.o(i.GPIOPadConfigSet) for GPIOPadConfigSet
    gpio.o(i.GPIOPinTypeOneWire) refers to gpio.o(i.GPIODirModeSet) for GPIODirModeSet
    gpio.o(i.GPIOPinTypeOneWire) refers to gpio.o(i.GPIOPadConfigSet) for GPIOPadConfigSet
    gpio.o(i.GPIOPinTypePWM) refers to gpio.o(i.GPIODirModeSet) for GPIODirModeSet
    gpio.o(i.GPIOPinTypePWM) refers to gpio.o(i.GPIOPadConfigSet) for GPIOPadConfigSet
    gpio.o(i.GPIOPinTypeQEI) refers to gpio.o(i.GPIODirModeSet) for GPIODirModeSet
    gpio.o(i.GPIOPinTypeQEI) refers to gpio.o(i.GPIOPadConfigSet) for GPIOPadConfigSet
    gpio.o(i.GPIOPinTypeSSI) refers to gpio.o(i.GPIODirModeSet) for GPIODirModeSet
    gpio.o(i.GPIOPinTypeSSI) refers to gpio.o(i.GPIOPadConfigSet) for GPIOPadConfigSet
    gpio.o(i.GPIOPinTypeTimer) refers to gpio.o(i.GPIODirModeSet) for GPIODirModeSet
    gpio.o(i.GPIOPinTypeTimer) refers to gpio.o(i.GPIOPadConfigSet) for GPIOPadConfigSet
    gpio.o(i.GPIOPinTypeTrace) refers to gpio.o(i.GPIODirModeSet) for GPIODirModeSet
    gpio.o(i.GPIOPinTypeTrace) refers to gpio.o(i.GPIOPadConfigSet) for GPIOPadConfigSet
    gpio.o(i.GPIOPinTypeUART) refers to gpio.o(i.GPIODirModeSet) for GPIODirModeSet
    gpio.o(i.GPIOPinTypeUART) refers to gpio.o(i.GPIOPadConfigSet) for GPIOPadConfigSet
    gpio.o(i.GPIOPinTypeUSBAnalog) refers to gpio.o(i.GPIODirModeSet) for GPIODirModeSet
    gpio.o(i.GPIOPinTypeUSBAnalog) refers to gpio.o(i.GPIOPadConfigSet) for GPIOPadConfigSet
    gpio.o(i.GPIOPinTypeUSBDigital) refers to gpio.o(i.GPIODirModeSet) for GPIODirModeSet
    gpio.o(i.GPIOPinTypeUSBDigital) refers to gpio.o(i.GPIOPadConfigSet) for GPIOPadConfigSet
    gpio.o(i.GPIOPinTypeWakeHigh) refers to gpio.o(i.GPIODirModeSet) for GPIODirModeSet
    gpio.o(i.GPIOPinTypeWakeHigh) refers to gpio.o(i.GPIOPadConfigSet) for GPIOPadConfigSet
    gpio.o(i.GPIOPinTypeWakeLow) refers to gpio.o(i.GPIODirModeSet) for GPIODirModeSet
    gpio.o(i.GPIOPinTypeWakeLow) refers to gpio.o(i.GPIOPadConfigSet) for GPIOPadConfigSet
    gpio.o(i._GPIOIntNumberGet) refers to gpio.o(.constdata) for .constdata
    i2c.o(i.I2CIntRegister) refers to interrupt.o(i.IntRegister) for IntRegister
    i2c.o(i.I2CIntRegister) refers to interrupt.o(i.IntEnable) for IntEnable
    i2c.o(i.I2CIntRegister) refers to i2c.o(.constdata) for .constdata
    i2c.o(i.I2CIntUnregister) refers to interrupt.o(i.IntDisable) for IntDisable
    i2c.o(i.I2CIntUnregister) refers to interrupt.o(i.IntUnregister) for IntUnregister
    i2c.o(i.I2CIntUnregister) refers to i2c.o(.constdata) for .constdata
    interrupt.o(i.IntDisable) refers to interrupt.o(.constdata) for .constdata
    interrupt.o(i.IntEnable) refers to interrupt.o(.constdata) for .constdata
    interrupt.o(i.IntIsEnabled) refers to interrupt.o(.constdata) for .constdata
    interrupt.o(i.IntMasterDisable) refers to cpu.o(.emb_text) for CPUcpsid
    interrupt.o(i.IntMasterEnable) refers to cpu.o(.emb_text) for CPUcpsie
    interrupt.o(i.IntPendClear) refers to interrupt.o(.constdata) for .constdata
    interrupt.o(i.IntPendSet) refers to interrupt.o(.constdata) for .constdata
    interrupt.o(i.IntPriorityGet) refers to interrupt.o(.constdata) for .constdata
    interrupt.o(i.IntPriorityGroupingGet) refers to interrupt.o(.constdata) for .constdata
    interrupt.o(i.IntPriorityGroupingSet) refers to interrupt.o(.constdata) for .constdata
    interrupt.o(i.IntPriorityMaskGet) refers to cpu.o(.emb_text) for CPUbasepriGet
    interrupt.o(i.IntPriorityMaskSet) refers to cpu.o(.emb_text) for CPUbasepriSet
    interrupt.o(i.IntPrioritySet) refers to interrupt.o(.constdata) for .constdata
    interrupt.o(i.IntRegister) refers to interrupt.o(vtable) for vtable
    interrupt.o(i.IntUnregister) refers to interrupt.o(i._IntDefaultHandler) for _IntDefaultHandler
    interrupt.o(i.IntUnregister) refers to interrupt.o(vtable) for vtable
    pwm.o(i.PWMFaultIntRegister) refers to interrupt.o(i.IntRegister) for IntRegister
    pwm.o(i.PWMFaultIntRegister) refers to interrupt.o(i.IntEnable) for IntEnable
    pwm.o(i.PWMFaultIntUnregister) refers to interrupt.o(i.IntDisable) for IntDisable
    pwm.o(i.PWMFaultIntUnregister) refers to interrupt.o(i.IntUnregister) for IntUnregister
    pwm.o(i.PWMGenIntRegister) refers to pwm.o(i._PWMGenIntNumberGet) for _PWMGenIntNumberGet
    pwm.o(i.PWMGenIntRegister) refers to interrupt.o(i.IntRegister) for IntRegister
    pwm.o(i.PWMGenIntRegister) refers to interrupt.o(i.IntEnable) for IntEnable
    pwm.o(i.PWMGenIntUnregister) refers to pwm.o(i._PWMGenIntNumberGet) for _PWMGenIntNumberGet
    pwm.o(i.PWMGenIntUnregister) refers to interrupt.o(i.IntDisable) for IntDisable
    pwm.o(i.PWMGenIntUnregister) refers to interrupt.o(i.IntUnregister) for IntUnregister
    sysctl.o(i.SysCtlClockFreqSet) refers to sysctl.o(.constdata) for .constdata
    sysctl.o(i.SysCtlClockGet) refers to sysctl.o(.constdata) for .constdata
    sysctl.o(i.SysCtlClockSet) refers to sysctl.o(.emb_text) for SysCtlDelay
    sysctl.o(i.SysCtlDeepSleep) refers to cpu.o(.emb_text) for CPUwfi
    sysctl.o(i.SysCtlIntRegister) refers to interrupt.o(i.IntRegister) for IntRegister
    sysctl.o(i.SysCtlIntRegister) refers to interrupt.o(i.IntEnable) for IntEnable
    sysctl.o(i.SysCtlIntUnregister) refers to interrupt.o(i.IntDisable) for IntDisable
    sysctl.o(i.SysCtlIntUnregister) refers to interrupt.o(i.IntUnregister) for IntUnregister
    sysctl.o(i.SysCtlSleep) refers to cpu.o(.emb_text) for CPUwfi
    sysctl.o(i.SysCtlVCOGet) refers to sysctl.o(.constdata) for .constdata
    timer.o(i.TimerIntRegister) refers to interrupt.o(i.IntRegister) for IntRegister
    timer.o(i.TimerIntRegister) refers to interrupt.o(i.IntEnable) for IntEnable
    timer.o(i.TimerIntRegister) refers to timer.o(.constdata) for .constdata
    timer.o(i.TimerIntUnregister) refers to interrupt.o(i.IntDisable) for IntDisable
    timer.o(i.TimerIntUnregister) refers to interrupt.o(i.IntUnregister) for IntUnregister
    timer.o(i.TimerIntUnregister) refers to timer.o(.constdata) for .constdata
    context.o(i.GrContextInit) refers to context.o(.data) for .data
    context.o(i.GrContextInit) refers to string.o(i.GrDefaultStringRenderer) for GrDefaultStringRenderer
    context.o(i.GrContextInit) refers to context.o(.constdata) for .constdata
    context.o(i.GrLibInit) refers to context.o(.data) for .data
    context.o(.constdata) refers to charmap.o(i.GrMapISO8859_1_Unicode) for GrMapISO8859_1_Unicode
    fontfixed6x8.o(.constdata) refers to fontfixed6x8.o(.constdata) for g_pui8FontFixed6x8Data
    rectangle.o(i.GrRectDraw) refers to line.o(i.GrLineDrawH) for GrLineDrawH
    rectangle.o(i.GrRectDraw) refers to line.o(i.GrLineDrawV) for GrLineDrawV
    string.o(i.GrCodepageMapTableSet) refers to string.o(i.UpdateContextCharMapping) for UpdateContextCharMapping
    string.o(i.GrContextFontSet) refers to string.o(i.UpdateContextCharMapping) for UpdateContextCharMapping
    string.o(i.GrDefaultStringRenderer) refers to string.o(i.GrFontGlyphDataGet) for GrFontGlyphDataGet
    string.o(i.GrDefaultStringRenderer) refers to string.o(i.GrFontGlyphRender) for GrFontGlyphRender
    string.o(i.GrStringCodepageSet) refers to string.o(i.UpdateContextCharMapping) for UpdateContextCharMapping
    string.o(i.GrStringGet) refers to string.o(.data) for .data
    string.o(i.GrStringLanguageSet) refers to string.o(.data) for .data
    string.o(i.GrStringTableSet) refers to string.o(.data) for .data
    string.o(i.GrStringWidthGet) refers to string.o(i.GrFontGlyphDataGet) for GrFontGlyphDataGet
    rt_cmsis.o(i.isrMessageGet) refers to rt_mailbox.o(i.isr_mbx_receive) for isr_mbx_receive
    rt_cmsis.o(i.isrMessagePut) refers to rt_mailbox.o(i.rt_mbx_check) for rt_mbx_check
    rt_cmsis.o(i.isrMessagePut) refers to rt_mailbox.o(i.isr_mbx_send) for isr_mbx_send
    rt_cmsis.o(i.isrSemaphoreRelease) refers to rt_cmsis.o(i.rt_id2obj) for rt_id2obj
    rt_cmsis.o(i.isrSemaphoreRelease) refers to rt_semaphore.o(i.isr_sem_send) for isr_sem_send
    rt_cmsis.o(i.isrSignalSet) refers to rt_cmsis.o(i.rt_tid2ptcb) for rt_tid2ptcb
    rt_cmsis.o(i.isrSignalSet) refers to rt_event.o(i.isr_evt_set) for isr_evt_set
    rt_cmsis.o(i.osDelay) refers to rt_cmsis.o(i.svcDelay) for svcDelay
    rt_cmsis.o(i.osKernelInitialize) refers to rt_cmsis.o(i.svcKernelInitialize) for svcKernelInitialize
    rt_cmsis.o(i.osKernelRunning) refers to rt_cmsis.o(i.svcKernelRunning) for svcKernelRunning
    rt_cmsis.o(i.osKernelRunning) refers to rt_cmsis.o(.data) for .data
    rt_cmsis.o(i.osKernelStart) refers to rtx_conf_cm.o(.constdata) for os_flags
    rt_cmsis.o(i.osKernelStart) refers to rt_cmsis.o(i.svcKernelStart) for svcKernelStart
    rt_cmsis.o(i.osKernelSysTick) refers to rt_cmsis.o(i.svcKernelSysTick) for svcKernelSysTick
    rt_cmsis.o(i.osMailAlloc) refers to rt_cmsis.o(i.sysMailAlloc) for sysMailAlloc
    rt_cmsis.o(i.osMailCAlloc) refers to rt_cmsis.o(i.sysMailAlloc) for sysMailAlloc
    rt_cmsis.o(i.osMailCAlloc) refers to rt_cmsis.o(i.rt_clr_box) for rt_clr_box
    rt_cmsis.o(i.osMailCreate) refers to rt_cmsis.o(i.svcMailCreate) for svcMailCreate
    rt_cmsis.o(i.osMailCreate) refers to rt_cmsis.o(.data) for .data
    rt_cmsis.o(i.osMailFree) refers to rt_cmsis.o(i.sysMailFree) for sysMailFree
    rt_cmsis.o(i.osMailGet) refers to rt_cmsis.o(i.osMessageGet) for osMessageGet
    rt_cmsis.o(i.osMailPut) refers to rt_cmsis.o(i.osMessagePut) for osMessagePut
    rt_cmsis.o(i.osMessageCreate) refers to rt_cmsis.o(i.svcMessageCreate) for svcMessageCreate
    rt_cmsis.o(i.osMessageCreate) refers to rt_cmsis.o(.data) for .data
    rt_cmsis.o(i.osMessageGet) refers to rt_cmsis.o(i.isrMessageGet) for isrMessageGet
    rt_cmsis.o(i.osMessageGet) refers to rt_cmsis.o(i.svcMessageGet) for svcMessageGet
    rt_cmsis.o(i.osMessagePut) refers to rt_cmsis.o(i.isrMessagePut) for isrMessagePut
    rt_cmsis.o(i.osMessagePut) refers to rt_cmsis.o(i.svcMessagePut) for svcMessagePut
    rt_cmsis.o(i.osMutexCreate) refers to rt_cmsis.o(i.svcMutexCreate) for svcMutexCreate
    rt_cmsis.o(i.osMutexCreate) refers to rt_cmsis.o(.data) for .data
    rt_cmsis.o(i.osMutexDelete) refers to rt_cmsis.o(i.svcMutexDelete) for svcMutexDelete
    rt_cmsis.o(i.osMutexRelease) refers to rt_cmsis.o(i.svcMutexRelease) for svcMutexRelease
    rt_cmsis.o(i.osMutexWait) refers to rt_cmsis.o(i.svcMutexWait) for svcMutexWait
    rt_cmsis.o(i.osPoolAlloc) refers to rt_cmsis.o(i.sysPoolAlloc) for sysPoolAlloc
    rt_cmsis.o(i.osPoolCAlloc) refers to rt_cmsis.o(i.rt_clr_box) for rt_clr_box
    rt_cmsis.o(i.osPoolCAlloc) refers to rt_cmsis.o(i.sysPoolAlloc) for sysPoolAlloc
    rt_cmsis.o(i.osPoolCreate) refers to rt_cmsis.o(i.svcPoolCreate) for svcPoolCreate
    rt_cmsis.o(i.osPoolCreate) refers to rt_cmsis.o(.data) for .data
    rt_cmsis.o(i.osPoolFree) refers to rt_cmsis.o(i.sysPoolFree) for sysPoolFree
    rt_cmsis.o(i.osSemaphoreCreate) refers to rt_cmsis.o(i.svcSemaphoreCreate) for svcSemaphoreCreate
    rt_cmsis.o(i.osSemaphoreCreate) refers to rt_cmsis.o(.data) for .data
    rt_cmsis.o(i.osSemaphoreDelete) refers to rt_cmsis.o(i.svcSemaphoreDelete) for svcSemaphoreDelete
    rt_cmsis.o(i.osSemaphoreRelease) refers to rt_cmsis.o(i.isrSemaphoreRelease) for isrSemaphoreRelease
    rt_cmsis.o(i.osSemaphoreRelease) refers to rt_cmsis.o(i.svcSemaphoreRelease) for svcSemaphoreRelease
    rt_cmsis.o(i.osSemaphoreWait) refers to rt_cmsis.o(i.svcSemaphoreWait) for svcSemaphoreWait
    rt_cmsis.o(i.osSignalClear) refers to rt_cmsis.o(i.svcSignalClear) for svcSignalClear
    rt_cmsis.o(i.osSignalSet) refers to rt_cmsis.o(i.isrSignalSet) for isrSignalSet
    rt_cmsis.o(i.osSignalSet) refers to rt_cmsis.o(i.svcSignalSet) for svcSignalSet
    rt_cmsis.o(i.osSignalWait) refers to rt_cmsis.o(i.svcSignalWait) for svcSignalWait
    rt_cmsis.o(i.osThreadCreate) refers to rt_cmsis.o(i.svcThreadCreate) for svcThreadCreate
    rt_cmsis.o(i.osThreadCreate) refers to rt_cmsis.o(.data) for .data
    rt_cmsis.o(i.osThreadExit) refers to rt_cmsis.o(i.svcThreadGetId) for svcThreadGetId
    rt_cmsis.o(i.osThreadExit) refers to rt_cmsis.o(i.svcThreadTerminate) for svcThreadTerminate
    rt_cmsis.o(i.osThreadGetId) refers to rt_cmsis.o(i.svcThreadGetId) for svcThreadGetId
    rt_cmsis.o(i.osThreadGetPriority) refers to rt_cmsis.o(i.svcThreadGetPriority) for svcThreadGetPriority
    rt_cmsis.o(i.osThreadSetPriority) refers to rt_cmsis.o(i.svcThreadSetPriority) for svcThreadSetPriority
    rt_cmsis.o(i.osThreadTerminate) refers to rt_cmsis.o(i.svcThreadTerminate) for svcThreadTerminate
    rt_cmsis.o(i.osThreadYield) refers to rt_cmsis.o(i.svcThreadYield) for svcThreadYield
    rt_cmsis.o(i.osTimerCall) refers to rt_cmsis.o(i.svcTimerCall) for svcTimerCall
    rt_cmsis.o(i.osTimerCreate) refers to rt_cmsis.o(i.svcTimerCreate) for svcTimerCreate
    rt_cmsis.o(i.osTimerCreate) refers to rt_cmsis.o(.data) for .data
    rt_cmsis.o(i.osTimerDelete) refers to rt_cmsis.o(i.svcTimerDelete) for svcTimerDelete
    rt_cmsis.o(i.osTimerStart) refers to rt_cmsis.o(i.svcTimerStart) for svcTimerStart
    rt_cmsis.o(i.osTimerStop) refers to rt_cmsis.o(i.svcTimerStop) for svcTimerStop
    rt_cmsis.o(i.osTimerThread) refers to rt_cmsis.o(i.osMessageGet) for osMessageGet
    rt_cmsis.o(i.osTimerThread) refers to rt_cmsis.o(i.osTimerCall) for osTimerCall
    rt_cmsis.o(i.osTimerThread) refers to rtx_conf_cm.o(.data) for osMessageQId_osTimerMessageQ
    rt_cmsis.o(i.os_resume) refers to rt_system.o(i.rt_resume) for rt_resume
    rt_cmsis.o(i.os_suspend) refers to rt_system.o(i.rt_suspend) for rt_suspend
    rt_cmsis.o(i.rt_ms2tick) refers to rtx_conf_cm.o(.constdata) for os_clockrate
    rt_cmsis.o(i.rt_timer_insert) refers to rt_cmsis.o(.data) for .data
    rt_cmsis.o(i.rt_timer_remove) refers to rt_cmsis.o(.data) for .data
    rt_cmsis.o(i.svcDelay) refers to rt_cmsis.o(i.rt_ms2tick) for rt_ms2tick
    rt_cmsis.o(i.svcDelay) refers to rt_time.o(i.rt_dly_wait) for rt_dly_wait
    rt_cmsis.o(i.svcKernelInitialize) refers to rt_memory.o(i.rt_init_mem) for rt_init_mem
    rt_cmsis.o(i.svcKernelInitialize) refers to rt_task.o(i.rt_sys_init) for rt_sys_init
    rt_cmsis.o(i.svcKernelInitialize) refers to rt_cmsis.o(i.svcMessageCreate) for svcMessageCreate
    rt_cmsis.o(i.svcKernelInitialize) refers to rt_cmsis.o(i.svcThreadCreate) for svcThreadCreate
    rt_cmsis.o(i.svcKernelInitialize) refers to rt_cmsis.o(.data) for .data
    rt_cmsis.o(i.svcKernelInitialize) refers to rtx_conf_cm.o(.bss) for os_stack_mem
    rt_cmsis.o(i.svcKernelInitialize) refers to rtx_conf_cm.o(.constdata) for os_stack_sz
    rt_cmsis.o(i.svcKernelInitialize) refers to rt_task.o(.data) for os_tsk
    rt_cmsis.o(i.svcKernelInitialize) refers to rtx_conf_cm.o(.constdata) for os_messageQ_def_osTimerMessageQ
    rt_cmsis.o(i.svcKernelInitialize) refers to rtx_conf_cm.o(.data) for osMessageQId_osTimerMessageQ
    rt_cmsis.o(i.svcKernelInitialize) refers to rtx_conf_cm.o(.constdata) for os_thread_def_osTimerThread
    rt_cmsis.o(i.svcKernelInitialize) refers to rtx_conf_cm.o(.data) for osThreadId_osTimerThread
    rt_cmsis.o(i.svcKernelRunning) refers to rt_cmsis.o(.data) for .data
    rt_cmsis.o(i.svcKernelStart) refers to rt_task.o(i.rt_tsk_prio) for rt_tsk_prio
    rt_cmsis.o(i.svcKernelStart) refers to rt_task.o(i.rt_sys_start) for rt_sys_start
    rt_cmsis.o(i.svcKernelStart) refers to rt_cmsis.o(.data) for .data
    rt_cmsis.o(i.svcKernelStart) refers to rt_task.o(.data) for os_tsk
    rt_cmsis.o(i.svcKernelSysTick) refers to rt_system.o(i.os_tick_val) for os_tick_val
    rt_cmsis.o(i.svcKernelSysTick) refers to rt_system.o(i.os_tick_ovf) for os_tick_ovf
    rt_cmsis.o(i.svcKernelSysTick) refers to rtx_conf_cm.o(.constdata) for os_trv
    rt_cmsis.o(i.svcKernelSysTick) refers to rt_time.o(.data) for os_time
    rt_cmsis.o(i.svcMailCreate) refers to rt_membox.o(i._init_box) for _init_box
    rt_cmsis.o(i.svcMailCreate) refers to rt_mailbox.o(i.rt_mbx_init) for rt_mbx_init
    rt_cmsis.o(i.svcMessageCreate) refers to rt_mailbox.o(i.rt_mbx_init) for rt_mbx_init
    rt_cmsis.o(i.svcMessageGet) refers to rt_cmsis.o(i.rt_ms2tick) for rt_ms2tick
    rt_cmsis.o(i.svcMessageGet) refers to rt_mailbox.o(i.rt_mbx_wait) for rt_mbx_wait
    rt_cmsis.o(i.svcMessagePut) refers to rt_cmsis.o(i.rt_ms2tick) for rt_ms2tick
    rt_cmsis.o(i.svcMessagePut) refers to rt_mailbox.o(i.rt_mbx_send) for rt_mbx_send
    rt_cmsis.o(i.svcMutexCreate) refers to rt_mutex.o(i.rt_mut_init) for rt_mut_init
    rt_cmsis.o(i.svcMutexDelete) refers to rt_cmsis.o(i.rt_id2obj) for rt_id2obj
    rt_cmsis.o(i.svcMutexDelete) refers to rt_mutex.o(i.rt_mut_delete) for rt_mut_delete
    rt_cmsis.o(i.svcMutexRelease) refers to rt_cmsis.o(i.rt_id2obj) for rt_id2obj
    rt_cmsis.o(i.svcMutexRelease) refers to rt_mutex.o(i.rt_mut_release) for rt_mut_release
    rt_cmsis.o(i.svcMutexWait) refers to rt_cmsis.o(i.rt_id2obj) for rt_id2obj
    rt_cmsis.o(i.svcMutexWait) refers to rt_cmsis.o(i.rt_ms2tick) for rt_ms2tick
    rt_cmsis.o(i.svcMutexWait) refers to rt_mutex.o(i.rt_mut_wait) for rt_mut_wait
    rt_cmsis.o(i.svcPoolCreate) refers to rt_membox.o(i._init_box) for _init_box
    rt_cmsis.o(i.svcSemaphoreCreate) refers to rt_semaphore.o(i.rt_sem_init) for rt_sem_init
    rt_cmsis.o(i.svcSemaphoreDelete) refers to rt_cmsis.o(i.rt_id2obj) for rt_id2obj
    rt_cmsis.o(i.svcSemaphoreDelete) refers to rt_semaphore.o(i.rt_sem_delete) for rt_sem_delete
    rt_cmsis.o(i.svcSemaphoreRelease) refers to rt_cmsis.o(i.rt_id2obj) for rt_id2obj
    rt_cmsis.o(i.svcSemaphoreRelease) refers to rt_semaphore.o(i.rt_sem_send) for rt_sem_send
    rt_cmsis.o(i.svcSemaphoreWait) refers to rt_cmsis.o(i.rt_id2obj) for rt_id2obj
    rt_cmsis.o(i.svcSemaphoreWait) refers to rt_cmsis.o(i.rt_ms2tick) for rt_ms2tick
    rt_cmsis.o(i.svcSemaphoreWait) refers to rt_semaphore.o(i.rt_sem_wait) for rt_sem_wait
    rt_cmsis.o(i.svcSignalClear) refers to rt_cmsis.o(i.rt_tid2ptcb) for rt_tid2ptcb
    rt_cmsis.o(i.svcSignalClear) refers to rt_event.o(i.rt_evt_clr) for rt_evt_clr
    rt_cmsis.o(i.svcSignalSet) refers to rt_cmsis.o(i.rt_tid2ptcb) for rt_tid2ptcb
    rt_cmsis.o(i.svcSignalSet) refers to rt_event.o(i.rt_evt_set) for rt_evt_set
    rt_cmsis.o(i.svcSignalWait) refers to rt_cmsis.o(i.rt_ms2tick) for rt_ms2tick
    rt_cmsis.o(i.svcSignalWait) refers to rt_event.o(i.rt_evt_wait) for rt_evt_wait
    rt_cmsis.o(i.svcSignalWait) refers to rt_task.o(.data) for os_tsk
    rt_cmsis.o(i.svcThreadCreate) refers to rt_memory.o(i.rt_alloc_mem) for rt_alloc_mem
    rt_cmsis.o(i.svcThreadCreate) refers to rt_task.o(i.rt_tsk_create) for rt_tsk_create
    rt_cmsis.o(i.svcThreadCreate) refers to rt_memory.o(i.rt_free_mem) for rt_free_mem
    rt_cmsis.o(i.svcThreadCreate) refers to rtx_conf_cm.o(.bss) for os_stack_mem
    rt_cmsis.o(i.svcThreadCreate) refers to rtx_conf_cm.o(.bss) for os_active_TCB
    rt_cmsis.o(i.svcThreadCreate) refers to rt_cmsis.o(i.osThreadExit) for osThreadExit
    rt_cmsis.o(i.svcThreadGetId) refers to rt_task.o(i.rt_tsk_self) for rt_tsk_self
    rt_cmsis.o(i.svcThreadGetId) refers to rtx_conf_cm.o(.bss) for os_active_TCB
    rt_cmsis.o(i.svcThreadGetPriority) refers to rt_cmsis.o(i.rt_tid2ptcb) for rt_tid2ptcb
    rt_cmsis.o(i.svcThreadSetPriority) refers to rt_cmsis.o(i.rt_tid2ptcb) for rt_tid2ptcb
    rt_cmsis.o(i.svcThreadSetPriority) refers to rt_task.o(i.rt_tsk_prio) for rt_tsk_prio
    rt_cmsis.o(i.svcThreadTerminate) refers to rt_cmsis.o(i.rt_tid2ptcb) for rt_tid2ptcb
    rt_cmsis.o(i.svcThreadTerminate) refers to rt_task.o(i.rt_tsk_delete) for rt_tsk_delete
    rt_cmsis.o(i.svcThreadTerminate) refers to rt_memory.o(i.rt_free_mem) for rt_free_mem
    rt_cmsis.o(i.svcThreadTerminate) refers to rtx_conf_cm.o(.bss) for os_stack_mem
    rt_cmsis.o(i.svcThreadYield) refers to rt_task.o(i.rt_tsk_pass) for rt_tsk_pass
    rt_cmsis.o(i.svcTimerCall) refers to rt_cmsis.o(i.rt_id2obj) for rt_id2obj
    rt_cmsis.o(i.svcTimerCreate) refers to rtx_conf_cm.o(.data) for osThreadId_osTimerThread
    rt_cmsis.o(i.svcTimerDelete) refers to rt_cmsis.o(i.rt_id2obj) for rt_id2obj
    rt_cmsis.o(i.svcTimerDelete) refers to rt_cmsis.o(i.rt_timer_remove) for rt_timer_remove
    rt_cmsis.o(i.svcTimerStart) refers to rt_cmsis.o(i.rt_id2obj) for rt_id2obj
    rt_cmsis.o(i.svcTimerStart) refers to lludivv7m.o(.text) for __aeabi_uldivmod
    rt_cmsis.o(i.svcTimerStart) refers to rt_cmsis.o(i.rt_timer_remove) for rt_timer_remove
    rt_cmsis.o(i.svcTimerStart) refers to rt_cmsis.o(i.rt_timer_insert) for rt_timer_insert
    rt_cmsis.o(i.svcTimerStart) refers to rtx_conf_cm.o(.constdata) for os_clockrate
    rt_cmsis.o(i.svcTimerStop) refers to rt_cmsis.o(i.rt_id2obj) for rt_id2obj
    rt_cmsis.o(i.svcTimerStop) refers to rt_cmsis.o(i.rt_timer_remove) for rt_timer_remove
    rt_cmsis.o(i.sysMailAlloc) refers to rt_membox.o(i.rt_alloc_box) for rt_alloc_box
    rt_cmsis.o(i.sysMailAlloc) refers to rt_list.o(i.rt_put_prio) for rt_put_prio
    rt_cmsis.o(i.sysMailAlloc) refers to rt_cmsis.o(i.rt_ms2tick) for rt_ms2tick
    rt_cmsis.o(i.sysMailAlloc) refers to rt_task.o(i.rt_block) for rt_block
    rt_cmsis.o(i.sysMailAlloc) refers to rt_task.o(.data) for os_tsk
    rt_cmsis.o(i.sysMailFree) refers to rt_membox.o(i.rt_free_box) for rt_free_box
    rt_cmsis.o(i.sysMailFree) refers to rt_list.o(i.rt_psq_enq) for rt_psq_enq
    rt_cmsis.o(i.sysMailFree) refers to rt_system.o(i.rt_psh_req) for rt_psh_req
    rt_cmsis.o(i.sysMailFree) refers to rt_membox.o(i.rt_alloc_box) for rt_alloc_box
    rt_cmsis.o(i.sysMailFree) refers to rt_list.o(i.rt_get_first) for rt_get_first
    rt_cmsis.o(i.sysMailFree) refers to hal_cm.o(i.rt_ret_val) for rt_ret_val
    rt_cmsis.o(i.sysMailFree) refers to rt_list.o(i.rt_rmv_dly) for rt_rmv_dly
    rt_cmsis.o(i.sysMailFree) refers to rt_task.o(i.rt_dispatch) for rt_dispatch
    rt_cmsis.o(i.sysPoolAlloc) refers to rt_membox.o(i.rt_alloc_box) for rt_alloc_box
    rt_cmsis.o(i.sysPoolFree) refers to rt_membox.o(i.rt_free_box) for rt_free_box
    rt_cmsis.o(i.sysTimerTick) refers to rt_cmsis.o(i.isrMessagePut) for isrMessagePut
    rt_cmsis.o(i.sysTimerTick) refers to rtx_conf_cm.o(.text) for os_error
    rt_cmsis.o(i.sysTimerTick) refers to rt_cmsis.o(i.rt_timer_insert) for rt_timer_insert
    rt_cmsis.o(i.sysTimerTick) refers to rt_cmsis.o(.data) for .data
    rt_cmsis.o(i.sysTimerTick) refers to rtx_conf_cm.o(.data) for osMessageQId_osTimerMessageQ
    rt_cmsis.o(i.sysUserTimerUpdate) refers to rt_cmsis.o(i.sysTimerTick) for sysTimerTick
    rt_cmsis.o(i.sysUserTimerUpdate) refers to rt_cmsis.o(.data) for .data
    rt_cmsis.o(i.sysUserTimerWakeupTime) refers to rt_cmsis.o(.data) for .data
    rt_task.o(i.rt_block) refers to rt_list.o(i.rt_put_dly) for rt_put_dly
    rt_task.o(i.rt_block) refers to rt_list.o(i.rt_get_first) for rt_get_first
    rt_task.o(i.rt_block) refers to rt_task.o(i.rt_switch_req) for rt_switch_req
    rt_task.o(i.rt_block) refers to rt_task.o(.data) for .data
    rt_task.o(i.rt_block) refers to rt_list.o(.bss) for os_rdy
    rt_task.o(i.rt_dispatch) refers to rt_list.o(i.rt_put_rdy_first) for rt_put_rdy_first
    rt_task.o(i.rt_dispatch) refers to rt_task.o(i.rt_switch_req) for rt_switch_req
    rt_task.o(i.rt_dispatch) refers to rt_list.o(i.rt_get_first) for rt_get_first
    rt_task.o(i.rt_dispatch) refers to rt_list.o(i.rt_put_prio) for rt_put_prio
    rt_task.o(i.rt_dispatch) refers to rt_task.o(.data) for .data
    rt_task.o(i.rt_dispatch) refers to rt_list.o(.bss) for os_rdy
    rt_task.o(i.rt_init_context) refers to rt_membox.o(i.rt_alloc_box) for rt_alloc_box
    rt_task.o(i.rt_init_context) refers to hal_cm.o(i.rt_init_stack) for rt_init_stack
    rt_task.o(i.rt_init_context) refers to rtx_conf_cm.o(.bss) for mp_stk
    rt_task.o(i.rt_switch_req) refers to hal_cm.o(i.dbg_task_switch) for dbg_task_switch
    rt_task.o(i.rt_switch_req) refers to rt_task.o(.data) for .data
    rt_task.o(i.rt_switch_req) refers to hal_cm.o(.data) for dbg_msg
    rt_task.o(i.rt_sys_init) refers to hal_cm.o(i.dbg_init) for dbg_init
    rt_task.o(i.rt_sys_init) refers to rt_membox.o(i._init_box) for _init_box
    rt_task.o(i.rt_sys_init) refers to rt_task.o(i.rt_init_context) for rt_init_context
    rt_task.o(i.rt_sys_init) refers to rt_robin.o(i.rt_init_robin) for rt_init_robin
    rt_task.o(i.rt_sys_init) refers to rtx_conf_cm.o(.bss) for os_active_TCB
    rt_task.o(i.rt_sys_init) refers to rtx_conf_cm.o(.constdata) for os_maxtaskrun
    rt_task.o(i.rt_sys_init) refers to rtx_conf_cm.o(.constdata) for mp_tcb_size
    rt_task.o(i.rt_sys_init) refers to rtx_conf_cm.o(.bss) for mp_tcb
    rt_task.o(i.rt_sys_init) refers to rtx_conf_cm.o(.constdata) for os_stackinfo
    rt_task.o(i.rt_sys_init) refers to rtx_conf_cm.o(.constdata) for mp_stk_size
    rt_task.o(i.rt_sys_init) refers to rtx_conf_cm.o(.bss) for mp_stk
    rt_task.o(i.rt_sys_init) refers to rtx_conf_cm.o(.constdata) for mp_tmr_size
    rt_task.o(i.rt_sys_init) refers to rtx_conf_cm.o(.data) for m_tmr
    rt_task.o(i.rt_sys_init) refers to rt_task.o(.bss) for .bss
    rt_task.o(i.rt_sys_init) refers to rtx_conf_cm.o(.text) for os_idle_demon
    rt_task.o(i.rt_sys_init) refers to rt_list.o(.bss) for os_rdy
    rt_task.o(i.rt_sys_init) refers to rt_task.o(.data) for .data
    rt_task.o(i.rt_sys_init) refers to rtx_conf_cm.o(.bss) for os_fifo
    rt_task.o(i.rt_sys_init) refers to rtx_conf_cm.o(.constdata) for os_fifo_size
    rt_task.o(i.rt_sys_start) refers to rt_system.o(i.os_tick_init) for os_tick_init
    rt_task.o(i.rt_sys_start) refers to rt_system.o(.data) for os_tick_irqn
    rt_task.o(i.rt_tsk_create) refers to rt_membox.o(i.rt_alloc_box) for rt_alloc_box
    rt_task.o(i.rt_tsk_create) refers to rt_task.o(i.rt_init_context) for rt_init_context
    rt_task.o(i.rt_tsk_create) refers to hal_cm.o(i.dbg_task_notify) for dbg_task_notify
    rt_task.o(i.rt_tsk_create) refers to rt_task.o(i.rt_dispatch) for rt_dispatch
    rt_task.o(i.rt_tsk_create) refers to rtx_conf_cm.o(.bss) for mp_tcb
    rt_task.o(i.rt_tsk_create) refers to rtx_conf_cm.o(.bss) for os_active_TCB
    rt_task.o(i.rt_tsk_create) refers to rtx_conf_cm.o(.constdata) for os_maxtaskrun
    rt_task.o(i.rt_tsk_create) refers to hal_cm.o(.data) for dbg_msg
    rt_task.o(i.rt_tsk_delete) refers to hal_cm4.o(.emb_text) for rt_get_PSP
    rt_task.o(i.rt_tsk_delete) refers to rt_system.o(i.rt_stk_check) for rt_stk_check
    rt_task.o(i.rt_tsk_delete) refers to rt_list.o(i.rt_get_first) for rt_get_first
    rt_task.o(i.rt_tsk_delete) refers to hal_cm.o(i.rt_ret_val) for rt_ret_val
    rt_task.o(i.rt_tsk_delete) refers to rt_list.o(i.rt_rmv_dly) for rt_rmv_dly
    rt_task.o(i.rt_tsk_delete) refers to rt_list.o(i.rt_put_prio) for rt_put_prio
    rt_task.o(i.rt_tsk_delete) refers to rt_membox.o(i.rt_free_box) for rt_free_box
    rt_task.o(i.rt_tsk_delete) refers to hal_cm.o(i.dbg_task_notify) for dbg_task_notify
    rt_task.o(i.rt_tsk_delete) refers to rt_list.o(i.rt_rmv_list) for rt_rmv_list
    rt_task.o(i.rt_tsk_delete) refers to rt_task.o(i.rt_dispatch) for rt_dispatch
    rt_task.o(i.rt_tsk_delete) refers to hal_cm.o(.data) for dbg_msg
    rt_task.o(i.rt_tsk_delete) refers to rtx_conf_cm.o(.bss) for os_active_TCB
    rt_task.o(i.rt_tsk_delete) refers to rt_task.o(.data) for .data
    rt_task.o(i.rt_tsk_delete) refers to rt_list.o(.bss) for os_rdy
    rt_task.o(i.rt_tsk_delete) refers to rtx_conf_cm.o(.bss) for mp_stk
    rt_task.o(i.rt_tsk_delete) refers to rtx_conf_cm.o(.bss) for mp_tcb
    rt_task.o(i.rt_tsk_delete) refers to rtx_conf_cm.o(.constdata) for os_maxtaskrun
    rt_task.o(i.rt_tsk_pass) refers to rt_list.o(i.rt_get_same_rdy_prio) for rt_get_same_rdy_prio
    rt_task.o(i.rt_tsk_pass) refers to rt_list.o(i.rt_put_prio) for rt_put_prio
    rt_task.o(i.rt_tsk_pass) refers to rt_task.o(i.rt_switch_req) for rt_switch_req
    rt_task.o(i.rt_tsk_pass) refers to rt_task.o(.data) for .data
    rt_task.o(i.rt_tsk_pass) refers to rt_list.o(.bss) for os_rdy
    rt_task.o(i.rt_tsk_prio) refers to rt_list.o(i.rt_put_prio) for rt_put_prio
    rt_task.o(i.rt_tsk_prio) refers to rt_list.o(i.rt_resort_prio) for rt_resort_prio
    rt_task.o(i.rt_tsk_prio) refers to rt_list.o(i.rt_get_first) for rt_get_first
    rt_task.o(i.rt_tsk_prio) refers to rt_task.o(i.rt_dispatch) for rt_dispatch
    rt_task.o(i.rt_tsk_prio) refers to rt_task.o(.data) for .data
    rt_task.o(i.rt_tsk_prio) refers to rtx_conf_cm.o(.constdata) for os_maxtaskrun
    rt_task.o(i.rt_tsk_prio) refers to rtx_conf_cm.o(.bss) for os_active_TCB
    rt_task.o(i.rt_tsk_prio) refers to rt_list.o(.bss) for os_rdy
    rt_task.o(i.rt_tsk_self) refers to rt_task.o(.data) for .data
    rt_mutex.o(i.rt_mut_delete) refers to rt_list.o(i.rt_resort_prio) for rt_resort_prio
    rt_mutex.o(i.rt_mut_delete) refers to rt_list.o(i.rt_get_first) for rt_get_first
    rt_mutex.o(i.rt_mut_delete) refers to hal_cm.o(i.rt_ret_val) for rt_ret_val
    rt_mutex.o(i.rt_mut_delete) refers to rt_list.o(i.rt_rmv_dly) for rt_rmv_dly
    rt_mutex.o(i.rt_mut_delete) refers to rt_list.o(i.rt_put_prio) for rt_put_prio
    rt_mutex.o(i.rt_mut_delete) refers to rt_task.o(i.rt_dispatch) for rt_dispatch
    rt_mutex.o(i.rt_mut_delete) refers to rt_task.o(.data) for os_tsk
    rt_mutex.o(i.rt_mut_delete) refers to rt_list.o(.bss) for os_rdy
    rt_mutex.o(i.rt_mut_release) refers to rt_list.o(i.rt_get_first) for rt_get_first
    rt_mutex.o(i.rt_mut_release) refers to hal_cm.o(i.rt_ret_val) for rt_ret_val
    rt_mutex.o(i.rt_mut_release) refers to rt_list.o(i.rt_rmv_dly) for rt_rmv_dly
    rt_mutex.o(i.rt_mut_release) refers to rt_list.o(i.rt_put_prio) for rt_put_prio
    rt_mutex.o(i.rt_mut_release) refers to rt_task.o(i.rt_dispatch) for rt_dispatch
    rt_mutex.o(i.rt_mut_release) refers to rt_task.o(.data) for os_tsk
    rt_mutex.o(i.rt_mut_release) refers to rt_list.o(.bss) for os_rdy
    rt_mutex.o(i.rt_mut_wait) refers to rt_list.o(i.rt_resort_prio) for rt_resort_prio
    rt_mutex.o(i.rt_mut_wait) refers to rt_list.o(i.rt_put_prio) for rt_put_prio
    rt_mutex.o(i.rt_mut_wait) refers to rt_task.o(i.rt_block) for rt_block
    rt_mutex.o(i.rt_mut_wait) refers to rt_task.o(.data) for os_tsk
    charmap.o(i.GrMapISO8859_10_Unicode) refers to charmap.o(.constdata) for .constdata
    charmap.o(i.GrMapISO8859_13_Unicode) refers to charmap.o(.constdata) for .constdata
    charmap.o(i.GrMapISO8859_14_Unicode) refers to charmap.o(.constdata) for .constdata
    charmap.o(i.GrMapISO8859_16_Unicode) refers to charmap.o(.constdata) for .constdata
    charmap.o(i.GrMapISO8859_2_Unicode) refers to charmap.o(.constdata) for .constdata
    charmap.o(i.GrMapISO8859_3_Unicode) refers to charmap.o(.constdata) for .constdata
    charmap.o(i.GrMapISO8859_4_Unicode) refers to charmap.o(.constdata) for .constdata
    charmap.o(i.GrMapISO8859_7_Unicode) refers to charmap.o(.constdata) for .constdata
    charmap.o(i.GrMapUTF16BE_Unicode) refers to charmap.o(i.GrMapUTF16_Unicode) for GrMapUTF16_Unicode
    charmap.o(i.GrMapUTF16LE_Unicode) refers to charmap.o(i.GrMapUTF16_Unicode) for GrMapUTF16_Unicode
    charmap.o(i.GrMapWIN1250_Unicode) refers to charmap.o(.constdata) for .constdata
    charmap.o(i.GrMapWIN1251_Unicode) refers to charmap.o(.constdata) for .constdata
    charmap.o(i.GrMapWIN1252_Unicode) refers to charmap.o(.constdata) for .constdata
    charmap.o(i.GrMapWIN1253_Unicode) refers to charmap.o(.constdata) for .constdata
    charmap.o(i.GrMapWIN1254_Unicode) refers to charmap.o(.constdata) for .constdata
    rt_system.o(i.os_tick_init) refers to rtx_conf_cm.o(.constdata) for os_trv
    rt_system.o(i.os_tick_val) refers to rtx_conf_cm.o(.constdata) for os_trv
    rt_system.o(i.rt_pop_req) refers to rt_list.o(i.rt_put_rdy_first) for rt_put_rdy_first
    rt_system.o(i.rt_pop_req) refers to rt_semaphore.o(i.rt_sem_psh) for rt_sem_psh
    rt_system.o(i.rt_pop_req) refers to rt_list.o(i.rt_get_first) for rt_get_first
    rt_system.o(i.rt_pop_req) refers to rt_task.o(i.rt_switch_req) for rt_switch_req
    rt_system.o(i.rt_pop_req) refers to rt_event.o(i.rt_evt_psh) for rt_evt_psh
    rt_system.o(i.rt_pop_req) refers to rt_mailbox.o(i.rt_mbx_psh) for rt_mbx_psh
    rt_system.o(i.rt_pop_req) refers to rt_task.o(.data) for os_tsk
    rt_system.o(i.rt_pop_req) refers to rtx_conf_cm.o(.bss) for os_fifo
    rt_system.o(i.rt_pop_req) refers to rt_list.o(.bss) for os_rdy
    rt_system.o(i.rt_psh_req) refers to rt_system.o(.data) for .data
    rt_system.o(i.rt_resume) refers to rt_list.o(i.rt_put_rdy_first) for rt_put_rdy_first
    rt_system.o(i.rt_resume) refers to rt_list.o(i.rt_dec_dly) for rt_dec_dly
    rt_system.o(i.rt_resume) refers to rt_cmsis.o(i.sysUserTimerUpdate) for sysUserTimerUpdate
    rt_system.o(i.rt_resume) refers to rt_list.o(i.rt_get_first) for rt_get_first
    rt_system.o(i.rt_resume) refers to rt_task.o(i.rt_switch_req) for rt_switch_req
    rt_system.o(i.rt_resume) refers to rt_system.o(i.rt_tsk_unlock) for rt_tsk_unlock
    rt_system.o(i.rt_resume) refers to rt_task.o(.data) for os_tsk
    rt_system.o(i.rt_resume) refers to rt_robin.o(.data) for os_robin
    rt_system.o(i.rt_resume) refers to rt_list.o(.bss) for os_dly
    rt_system.o(i.rt_resume) refers to rt_time.o(.data) for os_time
    rt_system.o(i.rt_stk_check) refers to rtx_conf_cm.o(.text) for os_error
    rt_system.o(i.rt_stk_check) refers to rt_task.o(.data) for os_tsk
    rt_system.o(i.rt_suspend) refers to rt_system.o(i.rt_tsk_lock) for rt_tsk_lock
    rt_system.o(i.rt_suspend) refers to rt_cmsis.o(i.sysUserTimerWakeupTime) for sysUserTimerWakeupTime
    rt_system.o(i.rt_suspend) refers to rt_list.o(.bss) for os_dly
    rt_system.o(i.rt_systick) refers to rt_list.o(i.rt_put_rdy_first) for rt_put_rdy_first
    rt_system.o(i.rt_systick) refers to rt_robin.o(i.rt_chk_robin) for rt_chk_robin
    rt_system.o(i.rt_systick) refers to rt_list.o(i.rt_dec_dly) for rt_dec_dly
    rt_system.o(i.rt_systick) refers to rt_cmsis.o(i.sysTimerTick) for sysTimerTick
    rt_system.o(i.rt_systick) refers to rt_list.o(i.rt_get_first) for rt_get_first
    rt_system.o(i.rt_systick) refers to rt_task.o(i.rt_switch_req) for rt_switch_req
    rt_system.o(i.rt_systick) refers to rt_task.o(.data) for os_tsk
    rt_system.o(i.rt_systick) refers to rt_time.o(.data) for os_time
    rt_system.o(i.rt_systick) refers to rt_list.o(.bss) for os_rdy
    rt_system.o(i.rt_tsk_lock) refers to rt_system.o(.data) for .data
    rt_system.o(i.rt_tsk_unlock) refers to rt_system.o(.data) for .data
    rt_event.o(i.isr_evt_set) refers to rt_list.o(i.rt_psq_enq) for rt_psq_enq
    rt_event.o(i.isr_evt_set) refers to rt_system.o(i.rt_psh_req) for rt_psh_req
    rt_event.o(i.isr_evt_set) refers to rtx_conf_cm.o(.bss) for os_active_TCB
    rt_event.o(i.rt_evt_clr) refers to rtx_conf_cm.o(.bss) for os_active_TCB
    rt_event.o(i.rt_evt_get) refers to rt_task.o(.data) for os_tsk
    rt_event.o(i.rt_evt_psh) refers to rt_list.o(i.rt_rmv_dly) for rt_rmv_dly
    rt_event.o(i.rt_evt_psh) refers to hal_cm.o(i.rt_ret_val2) for rt_ret_val2
    rt_event.o(i.rt_evt_psh) refers to rt_list.o(i.rt_put_prio) for rt_put_prio
    rt_event.o(i.rt_evt_psh) refers to rt_list.o(.bss) for os_rdy
    rt_event.o(i.rt_evt_set) refers to rt_list.o(i.rt_rmv_dly) for rt_rmv_dly
    rt_event.o(i.rt_evt_set) refers to hal_cm.o(i.rt_ret_val2) for rt_ret_val2
    rt_event.o(i.rt_evt_set) refers to rt_task.o(i.rt_dispatch) for rt_dispatch
    rt_event.o(i.rt_evt_set) refers to rtx_conf_cm.o(.bss) for os_active_TCB
    rt_event.o(i.rt_evt_wait) refers to rt_task.o(i.rt_block) for rt_block
    rt_event.o(i.rt_evt_wait) refers to rt_task.o(.data) for os_tsk
    rt_list.o(i.rt_dec_dly) refers to rt_list.o(i.rt_put_prio) for rt_put_prio
    rt_list.o(i.rt_dec_dly) refers to rt_list.o(.bss) for .bss
    rt_list.o(i.rt_dec_dly) refers to rt_time.o(.data) for os_time
    rt_list.o(i.rt_get_same_rdy_prio) refers to rt_list.o(.bss) for .bss
    rt_list.o(i.rt_get_same_rdy_prio) refers to rt_task.o(.data) for os_tsk
    rt_list.o(i.rt_psq_enq) refers to rtx_conf_cm.o(.text) for os_error
    rt_list.o(i.rt_psq_enq) refers to rtx_conf_cm.o(.bss) for os_fifo
    rt_list.o(i.rt_put_dly) refers to rt_list.o(.bss) for .bss
    rt_list.o(i.rt_put_rdy_first) refers to rt_list.o(.bss) for .bss
    rt_list.o(i.rt_resort_prio) refers to rt_list.o(i.rt_rmv_list) for rt_rmv_list
    rt_list.o(i.rt_resort_prio) refers to rt_list.o(i.rt_put_prio) for rt_put_prio
    rt_list.o(i.rt_resort_prio) refers to rt_list.o(.bss) for .bss
    rt_list.o(i.rt_rmv_list) refers to rt_list.o(.bss) for .bss
    rt_mailbox.o(i.isr_mbx_receive) refers to rt_list.o(i.rt_psq_enq) for rt_psq_enq
    rt_mailbox.o(i.isr_mbx_receive) refers to rt_system.o(i.rt_psh_req) for rt_psh_req
    rt_mailbox.o(i.isr_mbx_send) refers to rt_list.o(i.rt_psq_enq) for rt_psq_enq
    rt_mailbox.o(i.isr_mbx_send) refers to rt_system.o(i.rt_psh_req) for rt_psh_req
    rt_mailbox.o(i.rt_mbx_psh) refers to rt_membox.o(i.rt_alloc_box) for rt_alloc_box
    rt_mailbox.o(i.rt_mbx_psh) refers to rt_list.o(i.rt_get_first) for rt_get_first
    rt_mailbox.o(i.rt_mbx_psh) refers to hal_cm.o(i.rt_ret_val) for rt_ret_val
    rt_mailbox.o(i.rt_mbx_psh) refers to rt_list.o(i.rt_rmv_dly) for rt_rmv_dly
    rt_mailbox.o(i.rt_mbx_psh) refers to rt_list.o(i.rt_put_prio) for rt_put_prio
    rt_mailbox.o(i.rt_mbx_psh) refers to hal_cm.o(i.rt_ret_val2) for rt_ret_val2
    rt_mailbox.o(i.rt_mbx_psh) refers to rtx_conf_cm.o(.text) for os_error
    rt_mailbox.o(i.rt_mbx_psh) refers to rt_list.o(.bss) for os_rdy
    rt_mailbox.o(i.rt_mbx_send) refers to rt_list.o(i.rt_put_prio) for rt_put_prio
    rt_mailbox.o(i.rt_mbx_send) refers to rt_list.o(i.rt_get_first) for rt_get_first
    rt_mailbox.o(i.rt_mbx_send) refers to hal_cm.o(i.rt_ret_val2) for rt_ret_val2
    rt_mailbox.o(i.rt_mbx_send) refers to rt_list.o(i.rt_rmv_dly) for rt_rmv_dly
    rt_mailbox.o(i.rt_mbx_send) refers to rt_task.o(i.rt_dispatch) for rt_dispatch
    rt_mailbox.o(i.rt_mbx_send) refers to rt_task.o(i.rt_block) for rt_block
    rt_mailbox.o(i.rt_mbx_send) refers to rt_task.o(.data) for os_tsk
    rt_mailbox.o(i.rt_mbx_wait) refers to rt_list.o(i.rt_get_first) for rt_get_first
    rt_mailbox.o(i.rt_mbx_wait) refers to hal_cm.o(i.rt_ret_val) for rt_ret_val
    rt_mailbox.o(i.rt_mbx_wait) refers to rt_list.o(i.rt_rmv_dly) for rt_rmv_dly
    rt_mailbox.o(i.rt_mbx_wait) refers to rt_task.o(i.rt_dispatch) for rt_dispatch
    rt_mailbox.o(i.rt_mbx_wait) refers to rt_list.o(i.rt_put_prio) for rt_put_prio
    rt_mailbox.o(i.rt_mbx_wait) refers to rt_task.o(i.rt_block) for rt_block
    rt_mailbox.o(i.rt_mbx_wait) refers to rt_task.o(.data) for os_tsk
    rt_semaphore.o(i.isr_sem_send) refers to rt_list.o(i.rt_psq_enq) for rt_psq_enq
    rt_semaphore.o(i.isr_sem_send) refers to rt_system.o(i.rt_psh_req) for rt_psh_req
    rt_semaphore.o(i.rt_sem_delete) refers to rt_list.o(i.rt_get_first) for rt_get_first
    rt_semaphore.o(i.rt_sem_delete) refers to hal_cm.o(i.rt_ret_val) for rt_ret_val
    rt_semaphore.o(i.rt_sem_delete) refers to rt_list.o(i.rt_rmv_dly) for rt_rmv_dly
    rt_semaphore.o(i.rt_sem_delete) refers to rt_list.o(i.rt_put_prio) for rt_put_prio
    rt_semaphore.o(i.rt_sem_delete) refers to rt_task.o(i.rt_dispatch) for rt_dispatch
    rt_semaphore.o(i.rt_sem_delete) refers to rt_list.o(.bss) for os_rdy
    rt_semaphore.o(i.rt_sem_delete) refers to rt_task.o(.data) for os_tsk
    rt_semaphore.o(i.rt_sem_psh) refers to rt_list.o(i.rt_get_first) for rt_get_first
    rt_semaphore.o(i.rt_sem_psh) refers to rt_list.o(i.rt_rmv_dly) for rt_rmv_dly
    rt_semaphore.o(i.rt_sem_psh) refers to hal_cm.o(i.rt_ret_val) for rt_ret_val
    rt_semaphore.o(i.rt_sem_psh) refers to rt_list.o(i.rt_put_prio) for rt_put_prio
    rt_semaphore.o(i.rt_sem_psh) refers to rt_list.o(.bss) for os_rdy
    rt_semaphore.o(i.rt_sem_send) refers to rt_list.o(i.rt_get_first) for rt_get_first
    rt_semaphore.o(i.rt_sem_send) refers to hal_cm.o(i.rt_ret_val) for rt_ret_val
    rt_semaphore.o(i.rt_sem_send) refers to rt_list.o(i.rt_rmv_dly) for rt_rmv_dly
    rt_semaphore.o(i.rt_sem_send) refers to rt_task.o(i.rt_dispatch) for rt_dispatch
    rt_semaphore.o(i.rt_sem_wait) refers to rt_list.o(i.rt_put_prio) for rt_put_prio
    rt_semaphore.o(i.rt_sem_wait) refers to rt_task.o(i.rt_block) for rt_block
    rt_semaphore.o(i.rt_sem_wait) refers to rt_task.o(.data) for os_tsk
    rt_time.o(i.rt_dly_wait) refers to rt_task.o(i.rt_block) for rt_block
    rt_time.o(i.rt_itv_set) refers to rt_task.o(.data) for os_tsk
    rt_time.o(i.rt_itv_set) refers to rt_time.o(.data) for .data
    rt_time.o(i.rt_itv_wait) refers to rt_task.o(i.rt_block) for rt_block
    rt_time.o(i.rt_itv_wait) refers to rt_task.o(.data) for os_tsk
    rt_time.o(i.rt_itv_wait) refers to rt_time.o(.data) for .data
    rt_time.o(i.rt_time_get) refers to rt_time.o(.data) for .data
    rt_robin.o(i.rt_chk_robin) refers to rt_list.o(i.rt_get_first) for rt_get_first
    rt_robin.o(i.rt_chk_robin) refers to rt_list.o(i.rt_put_prio) for rt_put_prio
    rt_robin.o(i.rt_chk_robin) refers to rt_robin.o(.data) for .data
    rt_robin.o(i.rt_chk_robin) refers to rt_list.o(.bss) for os_rdy
    rt_robin.o(i.rt_chk_robin) refers to rt_time.o(.data) for os_time
    rt_robin.o(i.rt_init_robin) refers to rt_robin.o(.data) for .data
    rt_robin.o(i.rt_init_robin) refers to rtx_conf_cm.o(.constdata) for os_rrobin
    rt_membox.o(i._calloc_box) refers to hal_cm4.o(.emb_text) for _alloc_box
    hal_cm.o(i.dbg_init) refers to hal_cm.o(.data) for .data
    hal_cm.o(i.rt_init_stack) refers to rtx_conf_cm.o(.constdata) for os_stackinfo
    hal_cm.o(i.rt_ret_val) refers to hal_cm.o(i.rt_ret_regs) for rt_ret_regs
    hal_cm.o(i.rt_ret_val2) refers to hal_cm.o(i.rt_ret_regs) for rt_ret_regs
    hal_cm4.o(.emb_text) refers to rtx_conf_cm.o(.constdata) for os_flags
    hal_cm4.o(.emb_text) refers to rt_membox.o(i.rt_alloc_box) for rt_alloc_box
    hal_cm4.o(.emb_text) refers to rt_membox.o(i.rt_free_box) for rt_free_box
    hal_cm4.o(.emb_text) refers to rt_system.o(i.rt_stk_check) for rt_stk_check
    hal_cm4.o(.emb_text) refers to rt_task.o(.data) for os_tsk
    hal_cm4.o(.emb_text) refers to svc_table.o(SVC_TABLE) for SVC_Count
    hal_cm4.o(.emb_text) refers to rt_system.o(i.rt_pop_req) for rt_pop_req
    hal_cm4.o(.emb_text) refers to rt_system.o(i.rt_systick) for rt_systick
    hal_cm4.o(.emb_text) refers to rt_system.o(i.os_tick_irqack) for os_tick_irqack
    libspace.o(.text) refers to libspace.o(.bss) for __libspace_start
    malloc.o(.text) refers (Special) to hguard.o(.text) for __heap$guard
    malloc.o(.text) refers (Special) to init_alloc.o(.text) for _init_alloc
    malloc.o(.text) refers to rt_heap_descriptor_twolibspace.o(.text) for __rt_heap_descriptor
    malloc.o(.text) refers to heapstubs.o(.text) for __Heap_Alloc
    h1_alloc.o(.text) refers (Special) to h1_init_mt.o(.text) for __Heap_Initialize
    h1_alloc.o(.text) refers to rt_heap_descriptor_twolibspace.o(.text) for __rt_heap_descriptor
    h1_alloc.o(.text) refers to init_alloc.o(.text) for __Heap_Full
    h1_alloc_mt.o(.text) refers (Special) to h1_init_mt.o(.text) for __Heap_Initialize
    h1_alloc_mt.o(.text) refers (Weak) to rtx_conf_cm.o(.text) for _mutex_acquire
    h1_alloc_mt.o(.text) refers (Weak) to rtx_conf_cm.o(.text) for _mutex_release
    h1_alloc_mt.o(.text) refers to init_alloc.o(.text) for __Heap_Full
    h1_alloc_mt.o(.text) refers (Weak) to rtx_conf_cm.o(.text) for _mutex_release
    h1_alloc_mt.o(.text) refers to rt_heap_descriptor_twolibspace.o(.text) for __rt_heap_descriptor
    heap2.o(i._FDIterate) refers to heap2.o(.conststring) for .conststring
    heap2.o(i.___Heap_ProvideMemory$realtime) refers to fdtree.o(i._FDTree_Delete) for _FDTree_Delete
    heap2.o(i.___Heap_ProvideMemory$realtime) refers to fdtree.o(i._FDTree_Insert) for _FDTree_Insert
    heap2.o(i.___Heap_Stats$realtime) refers to heap2.o(i._Heap2_StatsIterate) for _Heap2_StatsIterate
    heap2.o(i.___Heap_Valid$realtime) refers to heap2.o(i._FDIterate) for _FDIterate
    heap2.o(i.___Heap_Valid$realtime) refers to heap2.o(.conststring) for .conststring
    heap2.o(i._free$realtime) refers to rt_heap_descriptor_twolibspace.o(.text) for __rt_heap_descriptor
    heap2.o(i._free$realtime) refers to fdtree.o(i._FDTree_Delete) for _FDTree_Delete
    heap2.o(i._free$realtime) refers to fdtree.o(i._FDTree_Insert) for _FDTree_Insert
    heap2.o(i._malloc$realtime) refers to rt_heap_descriptor_twolibspace.o(.text) for __rt_heap_descriptor
    heap2.o(i._malloc$realtime) refers to fdtree.o(i._FDTree_FindFirst) for _FDTree_FindFirst
    heap2.o(i._malloc$realtime) refers to init_alloc.o(.text) for __Heap_Full
    heap2.o(i._malloc$realtime) refers to fdtree.o(i._FDTree_RemoveNode) for _FDTree_RemoveNode
    heap2.o(i._malloc$realtime) refers to fdtree.o(i._FDTree_Insert) for _FDTree_Insert
    heap2.o(i._posix_memalign$realtime) refers to rt_heap_descriptor_twolibspace.o(.text) for __rt_heap_descriptor
    heap2.o(i._posix_memalign$realtime) refers to fdtree.o(i._FDTree_FindFirst) for _FDTree_FindFirst
    heap2.o(i._posix_memalign$realtime) refers to init_alloc.o(.text) for __Heap_Full
    heap2.o(i._posix_memalign$realtime) refers to fdtree.o(i._FDTree_RemoveNode) for _FDTree_RemoveNode
    heap2.o(i._posix_memalign$realtime) refers to fdtree.o(i._FDTree_Insert) for _FDTree_Insert
    heap2.o(i._realloc$realtime) refers to rt_heap_descriptor_twolibspace.o(.text) for __rt_heap_descriptor
    heap2.o(i._realloc$realtime) refers to fdtree.o(i._FDTree_Insert) for _FDTree_Insert
    heap2.o(i._realloc$realtime) refers to h1_free_mt.o(.text) for free
    heap2.o(i._realloc$realtime) refers to h1_alloc_mt.o(.text) for malloc
    heap2.o(i._realloc$realtime) refers to fdtree.o(i._FDTree_Delete) for _FDTree_Delete
    heap2.o(i._realloc$realtime) refers to rt_memcpy_w.o(.text) for __aeabi_memcpy4
    heap2mt.o(i._FDIterate) refers to heap2mt.o(.conststring) for .conststring
    heap2mt.o(i.___Heap_Initialize$realtime$concurrent) refers to rtx_conf_cm.o(.text) for _mutex_initialize
    heap2mt.o(i.___Heap_ProvideMemory$realtime$concurrent) refers to fdtree.o(i._FDTree_Delete) for _FDTree_Delete
    heap2mt.o(i.___Heap_ProvideMemory$realtime$concurrent) refers to fdtree.o(i._FDTree_Insert) for _FDTree_Insert
    heap2mt.o(i.___Heap_Stats$realtime$concurrent) refers (Weak) to rtx_conf_cm.o(.text) for _mutex_acquire
    heap2mt.o(i.___Heap_Stats$realtime$concurrent) refers to heap2mt.o(i._Heap2_StatsIterate) for _Heap2_StatsIterate
    heap2mt.o(i.___Heap_Stats$realtime$concurrent) refers (Weak) to rtx_conf_cm.o(.text) for _mutex_release
    heap2mt.o(i.___Heap_Valid$realtime$concurrent) refers (Weak) to rtx_conf_cm.o(.text) for _mutex_acquire
    heap2mt.o(i.___Heap_Valid$realtime$concurrent) refers to heap2mt.o(i._FDIterate) for _FDIterate
    heap2mt.o(i.___Heap_Valid$realtime$concurrent) refers (Weak) to rtx_conf_cm.o(.text) for _mutex_release
    heap2mt.o(i.___Heap_Valid$realtime$concurrent) refers to heap2mt.o(.conststring) for .conststring
    heap2mt.o(i._free$realtime$concurrent) refers to rt_heap_descriptor_twolibspace.o(.text) for __rt_heap_descriptor
    heap2mt.o(i._free$realtime$concurrent) refers (Weak) to rtx_conf_cm.o(.text) for _mutex_acquire
    heap2mt.o(i._free$realtime$concurrent) refers to fdtree.o(i._FDTree_Delete) for _FDTree_Delete
    heap2mt.o(i._free$realtime$concurrent) refers to fdtree.o(i._FDTree_Insert) for _FDTree_Insert
    heap2mt.o(i._free$realtime$concurrent) refers (Weak) to rtx_conf_cm.o(.text) for _mutex_release
    heap2mt.o(i._malloc$realtime$concurrent) refers to rt_heap_descriptor_twolibspace.o(.text) for __rt_heap_descriptor
    heap2mt.o(i._malloc$realtime$concurrent) refers (Weak) to rtx_conf_cm.o(.text) for _mutex_acquire
    heap2mt.o(i._malloc$realtime$concurrent) refers to fdtree.o(i._FDTree_FindFirst) for _FDTree_FindFirst
    heap2mt.o(i._malloc$realtime$concurrent) refers to init_alloc.o(.text) for __Heap_Full
    heap2mt.o(i._malloc$realtime$concurrent) refers to fdtree.o(i._FDTree_RemoveNode) for _FDTree_RemoveNode
    heap2mt.o(i._malloc$realtime$concurrent) refers to fdtree.o(i._FDTree_Insert) for _FDTree_Insert
    heap2mt.o(i._malloc$realtime$concurrent) refers (Weak) to rtx_conf_cm.o(.text) for _mutex_release
    heap2mt.o(i._malloc$realtime$concurrent) refers (Weak) to rtx_conf_cm.o(.text) for _mutex_release
    heap2mt.o(i._posix_memalign$realtime$concurrent) refers to rt_heap_descriptor_twolibspace.o(.text) for __rt_heap_descriptor
    heap2mt.o(i._posix_memalign$realtime$concurrent) refers (Weak) to rtx_conf_cm.o(.text) for _mutex_acquire
    heap2mt.o(i._posix_memalign$realtime$concurrent) refers to fdtree.o(i._FDTree_FindFirst) for _FDTree_FindFirst
    heap2mt.o(i._posix_memalign$realtime$concurrent) refers to init_alloc.o(.text) for __Heap_Full
    heap2mt.o(i._posix_memalign$realtime$concurrent) refers to fdtree.o(i._FDTree_RemoveNode) for _FDTree_RemoveNode
    heap2mt.o(i._posix_memalign$realtime$concurrent) refers to fdtree.o(i._FDTree_Insert) for _FDTree_Insert
    heap2mt.o(i._posix_memalign$realtime$concurrent) refers (Weak) to rtx_conf_cm.o(.text) for _mutex_release
    heap2mt.o(i._realloc$realtime$concurrent) refers to rt_heap_descriptor_twolibspace.o(.text) for __rt_heap_descriptor
    heap2mt.o(i._realloc$realtime$concurrent) refers (Weak) to rtx_conf_cm.o(.text) for _mutex_acquire
    heap2mt.o(i._realloc$realtime$concurrent) refers to fdtree.o(i._FDTree_Insert) for _FDTree_Insert
    heap2mt.o(i._realloc$realtime$concurrent) refers to h1_free_mt.o(.text) for free
    heap2mt.o(i._realloc$realtime$concurrent) refers to h1_alloc_mt.o(.text) for malloc
    heap2mt.o(i._realloc$realtime$concurrent) refers to fdtree.o(i._FDTree_Delete) for _FDTree_Delete
    heap2mt.o(i._realloc$realtime$concurrent) refers (Weak) to rtx_conf_cm.o(.text) for _mutex_release
    heap2mt.o(i._realloc$realtime$concurrent) refers to rt_memcpy_w.o(.text) for __aeabi_memcpy4
    heap2mt.o(i._realloc$realtime$concurrent) refers (Weak) to rtx_conf_cm.o(.text) for _mutex_release
    heap2mt.o(i._realloc$realtime$concurrent) refers (Weak) to rtx_conf_cm.o(.text) for _mutex_release
    llsdiv.o(.text) refers to lludivv7m.o(.text) for __aeabi_uldivmod
    exit.o(.text) refers to rtexit.o(.ARM.Collect$$rtexit$$00000000) for __rt_exit
    assert.o(.text) refers to assert_puts.o(.text) for __assert_puts
    assert.o(.text) refers to abort.o(.text) for abort
    __main.o(!!!main) refers to __rtentry.o(.ARM.Collect$$rtentry$$00000000) for __rt_entry
    __rtentry.o(.ARM.Collect$$rtentry$$00000000) refers (Special) to __rtentry2.o(.ARM.Collect$$rtentry$$0000000A) for __rt_entry_li
    __rtentry.o(.ARM.Collect$$rtentry$$00000000) refers (Special) to __rtentry2.o(.ARM.Collect$$rtentry$$0000000D) for __rt_entry_main
    __rtentry.o(.ARM.Collect$$rtentry$$00000000) refers (Special) to __rtentry2.o(.ARM.Collect$$rtentry$$0000000B) for __rt_entry_postli_1
    __rtentry.o(.ARM.Collect$$rtentry$$00000000) refers (Special) to __rtentry2.o(.ARM.Collect$$rtentry$$00000009) for __rt_entry_postsh_1
    __rtentry.o(.ARM.Collect$$rtentry$$00000000) refers (Special) to __rtentry2.o(.ARM.Collect$$rtentry$$00000002) for __rt_entry_presh_1
    __rtentry.o(.ARM.Collect$$rtentry$$00000000) refers (Special) to __rtentry4.o(.ARM.Collect$$rtentry$$00000004) for __rt_entry_sh
    rtexit.o(.ARM.Collect$$rtexit$$00000000) refers (Special) to rtexit2.o(.ARM.Collect$$rtexit$$00000004) for __rt_exit_exit
    rtexit.o(.ARM.Collect$$rtexit$$00000000) refers (Special) to rtexit2.o(.ARM.Collect$$rtexit$$00000003) for __rt_exit_ls
    rtexit.o(.ARM.Collect$$rtexit$$00000000) refers (Special) to rtexit2.o(.ARM.Collect$$rtexit$$00000002) for __rt_exit_prels_1
    rtexit.o(.ARM.exidx) refers (Special) to rtexit2.o(.ARM.Collect$$rtexit$$00000004) for __rt_exit_exit
    rtexit.o(.ARM.exidx) refers (Special) to rtexit2.o(.ARM.Collect$$rtexit$$00000003) for __rt_exit_ls
    rtexit.o(.ARM.exidx) refers (Special) to rtexit2.o(.ARM.Collect$$rtexit$$00000002) for __rt_exit_prels_1
    rtexit.o(.ARM.exidx) refers to rtexit.o(.ARM.Collect$$rtexit$$00000000) for .ARM.Collect$$rtexit$$00000000
    aeabi_ldiv0_sigfpe.o(.text) refers to rt_div0.o(.text) for __rt_div0
    rt_heap_descriptor.o(.text) refers to rt_heap_descriptor.o(.bss) for __rt_heap_descriptor_data
    rt_heap_descriptor_intlibspace.o(.text) refers to libspace.o(.bss) for __libspace_start
    rt_heap_descriptor_twolibspace.o(.text) refers to libspace.o(.text) for __user_perproc_libspace
    init_alloc.o(.text) refers (Special) to hguard.o(.text) for __heap$guard
    init_alloc.o(.text) refers (Special) to libinit2.o(.ARM.Collect$$libinit$$00000005) for __rt_lib_init_heap_2
    init_alloc.o(.text) refers (Special) to maybetermalloc1.o(.emb_text) for _maybe_terminate_alloc
    init_alloc.o(.text) refers to h1_extend_mt.o(.text) for __Heap_ProvideMemory
    init_alloc.o(.text) refers to defsig_rtmem_outer.o(.text) for __rt_SIGRTMEM
    init_alloc.o(.text) refers to rt_heap_descriptor_twolibspace.o(.text) for __rt_heap_descriptor
    init_alloc.o(.text) refers to h1_init_mt.o(.text) for __Heap_Initialize
    free.o(.text) refers (Special) to hguard.o(.text) for __heap$guard
    free.o(.text) refers to rt_heap_descriptor_twolibspace.o(.text) for __rt_heap_descriptor
    free.o(.text) refers to heapstubs.o(.text) for __Heap_Free
    h1_free.o(.text) refers to rt_heap_descriptor_twolibspace.o(.text) for __rt_heap_descriptor
    h1_init_mt.o(.text) refers to rtx_conf_cm.o(.text) for _mutex_initialize
    h1_free_mt.o(.text) refers (Weak) to rtx_conf_cm.o(.text) for _mutex_acquire
    h1_free_mt.o(.text) refers (Weak) to rtx_conf_cm.o(.text) for _mutex_release
    h1_free_mt.o(.text) refers to rt_heap_descriptor_twolibspace.o(.text) for __rt_heap_descriptor
    abort.o(.text) refers to defsig_abrt_outer.o(.text) for __rt_SIGABRT
    abort.o(.text) refers (Weak) to libshutdown.o(.ARM.Collect$$libshutdown$$00000000) for __rt_lib_shutdown
    abort.o(.text) refers to sys_exit.o(.text) for _sys_exit
    assert_puts.o(.text) refers to sys_wrch.o(.text) for _ttywrch
    _get_argv.o(.text) refers (Special) to hrguard.o(.text) for __heap_region$guard
    _get_argv.o(.text) refers to h1_alloc_mt.o(.text) for malloc
    _get_argv.o(.text) refers to defsig_rtmem_outer.o(.text) for __rt_SIGRTMEM
    _get_argv.o(.text) refers to sys_command.o(.text) for _sys_command_string
    libinit2.o(.ARM.Collect$$libinit$$00000001) refers to fpinit.o(x$fpl$fpinit) for _fp_init
    libinit2.o(.ARM.Collect$$libinit$$00000005) refers (Weak) to init_alloc.o(.text) for _init_alloc
    libinit2.o(.ARM.Collect$$libinit$$00000010) refers to libinit2.o(.ARM.Collect$$libinit$$0000000F) for .ARM.Collect$$libinit$$0000000F
    libinit2.o(.ARM.Collect$$libinit$$00000012) refers to libinit2.o(.ARM.Collect$$libinit$$0000000F) for .ARM.Collect$$libinit$$0000000F
    libinit2.o(.ARM.Collect$$libinit$$00000014) refers to libinit2.o(.ARM.Collect$$libinit$$0000000F) for .ARM.Collect$$libinit$$0000000F
    libinit2.o(.ARM.Collect$$libinit$$00000016) refers to libinit2.o(.ARM.Collect$$libinit$$0000000F) for .ARM.Collect$$libinit$$0000000F
    libinit2.o(.ARM.Collect$$libinit$$00000018) refers to libinit2.o(.ARM.Collect$$libinit$$0000000F) for .ARM.Collect$$libinit$$0000000F
    libinit2.o(.ARM.Collect$$libinit$$00000026) refers to argv_veneer.o(.emb_text) for __ARM_argv_veneer
    libinit2.o(.ARM.Collect$$libinit$$00000027) refers to argv_veneer.o(.emb_text) for __ARM_argv_veneer
    sys_wrch.o(.text) refers (Special) to use_no_semi.o(.text) for __I$use$semihosting
    sys_wrch.o(.text) refers (Special) to indicate_semi.o(.text) for __semihosting_library_function
    sys_command.o(.text) refers (Special) to use_no_semi.o(.text) for __I$use$semihosting
    sys_command.o(.text) refers (Special) to indicate_semi.o(.text) for __semihosting_library_function
    sys_exit.o(.text) refers (Special) to use_no_semi.o(.text) for __I$use$semihosting
    sys_exit.o(.text) refers (Special) to indicate_semi.o(.text) for __semihosting_library_function
    __rtentry2.o(.ARM.Collect$$rtentry$$00000008) refers to boardinit2.o(.text) for _platform_post_stackheap_init
    __rtentry2.o(.ARM.Collect$$rtentry$$0000000A) refers to libinit.o(.ARM.Collect$$libinit$$00000000) for __rt_lib_init
    __rtentry2.o(.ARM.Collect$$rtentry$$0000000B) refers to rtx_conf_cm.o(.emb_text) for _platform_post_lib_init
    __rtentry2.o(.ARM.Collect$$rtentry$$0000000D) refers to lab4.o(.text) for main
    __rtentry2.o(.ARM.Collect$$rtentry$$0000000D) refers to exit.o(.text) for exit
    __rtentry2.o(.ARM.exidx) refers to __rtentry2.o(.ARM.Collect$$rtentry$$00000001) for .ARM.Collect$$rtentry$$00000001
    __rtentry2.o(.ARM.exidx) refers to __rtentry2.o(.ARM.Collect$$rtentry$$00000008) for .ARM.Collect$$rtentry$$00000008
    __rtentry2.o(.ARM.exidx) refers to __rtentry2.o(.ARM.Collect$$rtentry$$0000000A) for .ARM.Collect$$rtentry$$0000000A
    __rtentry2.o(.ARM.exidx) refers to __rtentry2.o(.ARM.Collect$$rtentry$$0000000B) for .ARM.Collect$$rtentry$$0000000B
    __rtentry2.o(.ARM.exidx) refers to __rtentry2.o(.ARM.Collect$$rtentry$$0000000D) for .ARM.Collect$$rtentry$$0000000D
    __rtentry4.o(.ARM.Collect$$rtentry$$00000004) refers to sys_stackheap_outer.o(.text) for __user_setup_stackheap
    __rtentry4.o(.ARM.exidx) refers to __rtentry4.o(.ARM.Collect$$rtentry$$00000004) for .ARM.Collect$$rtentry$$00000004
    rtexit2.o(.ARM.Collect$$rtexit$$00000003) refers to libshutdown.o(.ARM.Collect$$libshutdown$$00000000) for __rt_lib_shutdown
    rtexit2.o(.ARM.Collect$$rtexit$$00000004) refers to sys_exit.o(.text) for _sys_exit
    rtexit2.o(.ARM.exidx) refers to rtexit2.o(.ARM.Collect$$rtexit$$00000001) for .ARM.Collect$$rtexit$$00000001
    rtexit2.o(.ARM.exidx) refers to rtexit2.o(.ARM.Collect$$rtexit$$00000003) for .ARM.Collect$$rtexit$$00000003
    rtexit2.o(.ARM.exidx) refers to rtexit2.o(.ARM.Collect$$rtexit$$00000004) for .ARM.Collect$$rtexit$$00000004
    rt_div0.o(.text) refers to defsig_fpe_outer.o(.text) for __rt_SIGFPE
    maybetermalloc2.o(.emb_text) refers (Special) to term_alloc.o(.text) for _terminate_alloc
    h1_extend.o(.text) refers to h1_free_mt.o(.text) for free
    h1_extend_mt.o(.text) refers to h1_free_mt.o(.text) for _free_internal
    defsig_abrt_outer.o(.text) refers to defsig_abrt_inner.o(.text) for __rt_SIGABRT_inner
    defsig_abrt_outer.o(.text) refers to defsig_exit.o(.text) for __sig_exit
    defsig_abrt_formal.o(.text) refers to rt_raise.o(.text) for __rt_raise
    defsig_rtmem_outer.o(.text) refers to defsig_rtmem_inner.o(.text) for __rt_SIGRTMEM_inner
    defsig_rtmem_outer.o(.text) refers to defsig_exit.o(.text) for __sig_exit
    defsig_rtmem_formal.o(.text) refers to rt_raise.o(.text) for __rt_raise
    heapauxa.o(.text) refers to heapauxa.o(.data) for .data
    argv_veneer.o(.emb_text) refers to no_argv.o(.text) for __ARM_get_argv
    sys_stackheap_outer.o(.text) refers to libspace.o(.text) for __user_perproc_libspace
    sys_stackheap_outer.o(.text) refers to startup_tm4c129.o(.text) for __user_initial_stackheap
    rt_raise.o(.text) refers to __raise.o(.text) for __raise
    rt_raise.o(.text) refers to sys_exit.o(.text) for _sys_exit
    term_alloc.o(.text) refers (Special) to libshutdown2.o(.ARM.Collect$$libshutdown$$0000000E) for __rt_lib_shutdown_heap_2
    term_alloc.o(.text) refers to rt_heap_descriptor_twolibspace.o(.text) for __rt_heap_descriptor
    term_alloc.o(.text) refers to h1_final_mt.o(.text) for __Heap_Finalize
    defsig_exit.o(.text) refers to sys_exit.o(.text) for _sys_exit
    defsig_abrt_inner.o(.text) refers to defsig_general.o(.text) for __default_signal_display
    defsig_fpe_outer.o(.text) refers to defsig_fpe_inner.o(.text) for __rt_SIGFPE_inner
    defsig_fpe_outer.o(.text) refers to defsig_exit.o(.text) for __sig_exit
    defsig_fpe_formal.o(.text) refers to rt_raise.o(.text) for __rt_raise
    defsig_rtmem_inner.o(.text) refers to defsig_general.o(.text) for __default_signal_display
    _get_argv_nomalloc.o(.text) refers (Special) to hrguard.o(.text) for __heap_region$guard
    _get_argv_nomalloc.o(.text) refers to defsig_rtmem_outer.o(.text) for __rt_SIGRTMEM
    _get_argv_nomalloc.o(.text) refers to sys_command.o(.text) for _sys_command_string
    libinit.o(.ARM.Collect$$libinit$$00000000) refers (Special) to libinit2.o(.ARM.Collect$$libinit$$0000002E) for __rt_lib_init_alloca_1
    libinit.o(.ARM.Collect$$libinit$$00000000) refers (Special) to libinit2.o(.ARM.Collect$$libinit$$0000002C) for __rt_lib_init_argv_1
    libinit.o(.ARM.Collect$$libinit$$00000000) refers (Special) to libinit2.o(.ARM.Collect$$libinit$$0000001B) for __rt_lib_init_atexit_1
    libinit.o(.ARM.Collect$$libinit$$00000000) refers (Special) to libinit2.o(.ARM.Collect$$libinit$$00000021) for __rt_lib_init_clock_1
    libinit.o(.ARM.Collect$$libinit$$00000000) refers (Special) to libinit2.o(.ARM.Collect$$libinit$$00000032) for __rt_lib_init_cpp_1
    libinit.o(.ARM.Collect$$libinit$$00000000) refers (Special) to libinit2.o(.ARM.Collect$$libinit$$00000030) for __rt_lib_init_exceptions_1
    libinit.o(.ARM.Collect$$libinit$$00000000) refers (Special) to libinit2.o(.ARM.Collect$$libinit$$00000001) for __rt_lib_init_fp_1
    libinit.o(.ARM.Collect$$libinit$$00000000) refers (Special) to libinit2.o(.ARM.Collect$$libinit$$0000001F) for __rt_lib_init_fp_trap_1
    libinit.o(.ARM.Collect$$libinit$$00000000) refers (Special) to libinit2.o(.ARM.Collect$$libinit$$00000023) for __rt_lib_init_getenv_1
    libinit.o(.ARM.Collect$$libinit$$00000000) refers (Special) to libinit2.o(.ARM.Collect$$libinit$$0000000A) for __rt_lib_init_heap_1
    libinit.o(.ARM.Collect$$libinit$$00000000) refers (Special) to libinit2.o(.ARM.Collect$$libinit$$00000011) for __rt_lib_init_lc_collate_1
    libinit.o(.ARM.Collect$$libinit$$00000000) refers (Special) to libinit2.o(.ARM.Collect$$libinit$$00000013) for __rt_lib_init_lc_ctype_1
    libinit.o(.ARM.Collect$$libinit$$00000000) refers (Special) to libinit2.o(.ARM.Collect$$libinit$$00000015) for __rt_lib_init_lc_monetary_1
    libinit.o(.ARM.Collect$$libinit$$00000000) refers (Special) to libinit2.o(.ARM.Collect$$libinit$$00000017) for __rt_lib_init_lc_numeric_1
    libinit.o(.ARM.Collect$$libinit$$00000000) refers (Special) to libinit2.o(.ARM.Collect$$libinit$$00000019) for __rt_lib_init_lc_time_1
    libinit.o(.ARM.Collect$$libinit$$00000000) refers (Special) to libinit2.o(.ARM.Collect$$libinit$$00000004) for __rt_lib_init_preinit_1
    libinit.o(.ARM.Collect$$libinit$$00000000) refers (Special) to libinit2.o(.ARM.Collect$$libinit$$0000000E) for __rt_lib_init_rand_1
    libinit.o(.ARM.Collect$$libinit$$00000000) refers (Special) to libinit2.o(.ARM.Collect$$libinit$$00000033) for __rt_lib_init_return
    libinit.o(.ARM.Collect$$libinit$$00000000) refers (Special) to libinit2.o(.ARM.Collect$$libinit$$0000001D) for __rt_lib_init_signal_1
    libinit.o(.ARM.Collect$$libinit$$00000000) refers (Special) to libinit2.o(.ARM.Collect$$libinit$$00000025) for __rt_lib_init_stdio_1
    libinit.o(.ARM.Collect$$libinit$$00000000) refers (Special) to libinit2.o(.ARM.Collect$$libinit$$0000000C) for __rt_lib_init_user_alloc_1
    libshutdown.o(.ARM.Collect$$libshutdown$$00000000) refers (Special) to libshutdown2.o(.ARM.Collect$$libshutdown$$00000002) for __rt_lib_shutdown_cpp_1
    libshutdown.o(.ARM.Collect$$libshutdown$$00000000) refers (Special) to libshutdown2.o(.ARM.Collect$$libshutdown$$00000007) for __rt_lib_shutdown_fp_trap_1
    libshutdown.o(.ARM.Collect$$libshutdown$$00000000) refers (Special) to libshutdown2.o(.ARM.Collect$$libshutdown$$0000000F) for __rt_lib_shutdown_heap_1
    libshutdown.o(.ARM.Collect$$libshutdown$$00000000) refers (Special) to libshutdown2.o(.ARM.Collect$$libshutdown$$00000010) for __rt_lib_shutdown_return
    libshutdown.o(.ARM.Collect$$libshutdown$$00000000) refers (Special) to libshutdown2.o(.ARM.Collect$$libshutdown$$0000000A) for __rt_lib_shutdown_signal_1
    libshutdown.o(.ARM.Collect$$libshutdown$$00000000) refers (Special) to libshutdown2.o(.ARM.Collect$$libshutdown$$00000004) for __rt_lib_shutdown_stdio_1
    libshutdown.o(.ARM.Collect$$libshutdown$$00000000) refers (Special) to libshutdown2.o(.ARM.Collect$$libshutdown$$0000000C) for __rt_lib_shutdown_user_alloc_1
    __raise.o(.text) refers to defsig.o(CL$$defsig) for __default_signal_handler
    defsig_general.o(.text) refers to sys_wrch.o(.text) for _ttywrch
    defsig_fpe_inner.o(.text) refers to defsig_general.o(.text) for __default_signal_display
    libshutdown2.o(.ARM.Collect$$libshutdown$$0000000D) refers (Weak) to term_alloc.o(.text) for _terminate_alloc
    defsig.o(CL$$defsig) refers to defsig_abrt_inner.o(.text) for __rt_SIGABRT_inner
    defsig.o(CL$$defsig) refers to defsig_fpe_inner.o(.text) for __rt_SIGFPE_inner
    defsig.o(CL$$defsig) refers to defsig_rtmem_inner.o(.text) for __rt_SIGRTMEM_inner
    defsig_rtred_inner.o(.text) refers to defsig_general.o(.text) for __default_signal_display
    defsig_stak_inner.o(.text) refers to defsig_general.o(.text) for __default_signal_display
    defsig_pvfn_inner.o(.text) refers to defsig_general.o(.text) for __default_signal_display
    defsig_cppl_inner.o(.text) refers to defsig_general.o(.text) for __default_signal_display
    defsig_segv_inner.o(.text) refers to defsig_general.o(.text) for __default_signal_display
    defsig_other.o(.text) refers to defsig_general.o(.text) for __default_signal_display


==============================================================================

Removing Unused input sections from the image.

    Removing uart_functions.o(.rev16_text), (4 bytes).
    Removing uart_functions.o(.revsh_text), (4 bytes).
    Removing uart_functions.o(.rrx_text), (6 bytes).
    Removing uart_functions.o(.data), (1 bytes).
    Removing lab4.o(.rev16_text), (4 bytes).
    Removing lab4.o(.revsh_text), (4 bytes).
    Removing lab4.o(.rrx_text), (6 bytes).
    Removing lab4.o(.bss), (44 bytes).
    Removing colors.o(.rev16_text), (4 bytes).
    Removing colors.o(.revsh_text), (4 bytes).
    Removing colors.o(.rrx_text), (6 bytes).
    Removing colors.o(.constdata), (2856 bytes).
    Removing colors.o(.constdata), (2856 bytes).
    Removing colors.o(.constdata), (2856 bytes).
    Removing colors.o(.constdata), (2856 bytes).
    Removing colors.o(.constdata), (2856 bytes).
    Removing graphics.o(.rev16_text), (4 bytes).
    Removing graphics.o(.revsh_text), (4 bytes).
    Removing graphics.o(.rrx_text), (6 bytes).
    Removing comunication.o(.rev16_text), (4 bytes).
    Removing comunication.o(.revsh_text), (4 bytes).
    Removing comunication.o(.rrx_text), (6 bytes).
    Removing terminal.o(.rev16_text), (4 bytes).
    Removing terminal.o(.revsh_text), (4 bytes).
    Removing terminal.o(.rrx_text), (6 bytes).
    Removing buzzer.o(.text), (340 bytes).
    Removing buzzer.o(.data), (12 bytes).
    Removing accel.o(.text), (164 bytes).
    Removing buttons.o(.text), (92 bytes).
    Removing cfaf128x128x16.o(.constdata), (2 bytes).
    Removing cfaf128x128x16.o(.constdata), (2 bytes).
    Removing cfaf128x128x16.o(.constdata), (2 bytes).
    Removing cfaf128x128x16.o(.constdata), (2 bytes).
    Removing cfaf128x128x16.o(.constdata), (2 bytes).
    Removing cfaf128x128x16.o(.constdata), (2 bytes).
    Removing cfaf128x128x16.o(.constdata), (2 bytes).
    Removing cfaf128x128x16.o(.constdata), (2 bytes).
    Removing cfaf128x128x16.o(.constdata), (2 bytes).
    Removing cfaf128x128x16.o(.constdata), (2 bytes).
    Removing cfaf128x128x16.o(.constdata), (2 bytes).
    Removing cfaf128x128x16.o(.constdata), (2 bytes).
    Removing led.o(.rev16_text), (4 bytes).
    Removing led.o(.revsh_text), (4 bytes).
    Removing led.o(.rrx_text), (6 bytes).
    Removing led.o(.text), (284 bytes).
    Removing led.o(.constdata), (16 bytes).
    Removing mic.o(.text), (148 bytes).
    Removing opt.o(.text), (1392 bytes).
    Removing opt.o(.data), (12 bytes).
    Removing servo.o(.text), (228 bytes).
    Removing servo.o(.data), (8 bytes).
    Removing joy.o(.text), (208 bytes).
    Removing temp.o(.text), (1316 bytes).
    Removing temp.o(.data), (12 bytes).
    Removing rtx_conf_cm.o(.constdata), (4 bytes).
    Removing rtx_conf_cm.o(.constdata), (2 bytes).
    Removing rtx_conf_cm.o(.constdata), (2 bytes).
    Removing rtx_conf_cm.o(.data), (4 bytes).
    Removing system_tm4c129.o(.rev16_text), (4 bytes).
    Removing system_tm4c129.o(.revsh_text), (4 bytes).
    Removing system_tm4c129.o(.rrx_text), (6 bytes).
    Removing adc.o(i.ADCBusy), (8 bytes).
    Removing adc.o(i.ADCClockConfigGet), (32 bytes).
    Removing adc.o(i.ADCClockConfigSet), (28 bytes).
    Removing adc.o(i.ADCComparatorConfigure), (10 bytes).
    Removing adc.o(i.ADCComparatorIntClear), (4 bytes).
    Removing adc.o(i.ADCComparatorIntDisable), (18 bytes).
    Removing adc.o(i.ADCComparatorIntEnable), (16 bytes).
    Removing adc.o(i.ADCComparatorIntStatus), (4 bytes).
    Removing adc.o(i.ADCComparatorRegionSet), (14 bytes).
    Removing adc.o(i.ADCComparatorReset), (40 bytes).
    Removing adc.o(i.ADCHardwareOversampleConfigure), (18 bytes).
    Removing adc.o(i.ADCIntClear), (10 bytes).
    Removing adc.o(i.ADCIntClearEx), (4 bytes).
    Removing adc.o(i.ADCIntDisable), (16 bytes).
    Removing adc.o(i.ADCIntDisableEx), (10 bytes).
    Removing adc.o(i.ADCIntEnable), (16 bytes).
    Removing adc.o(i.ADCIntEnableEx), (8 bytes).
    Removing adc.o(i.ADCIntRegister), (104 bytes).
    Removing adc.o(i.ADCIntStatus), (52 bytes).
    Removing adc.o(i.ADCIntStatusEx), (22 bytes).
    Removing adc.o(i.ADCIntUnregister), (108 bytes).
    Removing adc.o(i.ADCPhaseDelayGet), (4 bytes).
    Removing adc.o(i.ADCPhaseDelaySet), (4 bytes).
    Removing adc.o(i.ADCProcessorTrigger), (26 bytes).
    Removing adc.o(i.ADCReferenceGet), (8 bytes).
    Removing adc.o(i.ADCReferenceSet), (12 bytes).
    Removing adc.o(i.ADCSequenceConfigure), (96 bytes).
    Removing adc.o(i.ADCSequenceDMADisable), (18 bytes).
    Removing adc.o(i.ADCSequenceDMAEnable), (16 bytes).
    Removing adc.o(i.ADCSequenceDataGet), (36 bytes).
    Removing adc.o(i.ADCSequenceDisable), (16 bytes).
    Removing adc.o(i.ADCSequenceEnable), (14 bytes).
    Removing adc.o(i.ADCSequenceOverflow), (12 bytes).
    Removing adc.o(i.ADCSequenceOverflowClear), (10 bytes).
    Removing adc.o(i.ADCSequenceStepConfigure), (154 bytes).
    Removing adc.o(i.ADCSequenceUnderflow), (12 bytes).
    Removing adc.o(i.ADCSequenceUnderflowClear), (10 bytes).
    Removing adc.o(i.ADCSoftwareOversampleConfigure), (44 bytes).
    Removing adc.o(i.ADCSoftwareOversampleDataGet), (88 bytes).
    Removing adc.o(i.ADCSoftwareOversampleStepConfigure), (168 bytes).
    Removing adc.o(.data), (6 bytes).
    Removing gpio.o(i.GPIOADCTriggerDisable), (14 bytes).
    Removing gpio.o(i.GPIOADCTriggerEnable), (12 bytes).
    Removing gpio.o(i.GPIODMATriggerDisable), (14 bytes).
    Removing gpio.o(i.GPIODMATriggerEnable), (12 bytes).
    Removing gpio.o(i.GPIODirModeGet), (34 bytes).
    Removing gpio.o(i.GPIOIntClear), (6 bytes).
    Removing gpio.o(i.GPIOIntDisable), (14 bytes).
    Removing gpio.o(i.GPIOIntEnable), (12 bytes).
    Removing gpio.o(i.GPIOIntRegister), (26 bytes).
    Removing gpio.o(i.GPIOIntRegisterPin), (30 bytes).
    Removing gpio.o(i.GPIOIntStatus), (14 bytes).
    Removing gpio.o(i.GPIOIntTypeGet), (68 bytes).
    Removing gpio.o(i.GPIOIntTypeSet), (80 bytes).
    Removing gpio.o(i.GPIOIntUnregister), (22 bytes).
    Removing gpio.o(i.GPIOIntUnregisterPin), (26 bytes).
    Removing gpio.o(i.GPIOPadConfigGet), (204 bytes).
    Removing gpio.o(i.GPIOPinRead), (6 bytes).
    Removing gpio.o(i.GPIOPinTypeADC), (28 bytes).
    Removing gpio.o(i.GPIOPinTypeCAN), (28 bytes).
    Removing gpio.o(i.GPIOPinTypeComparator), (28 bytes).
    Removing gpio.o(i.GPIOPinTypeComparatorOutput), (28 bytes).
    Removing gpio.o(i.GPIOPinTypeDIVSCLK), (28 bytes).
    Removing gpio.o(i.GPIOPinTypeEPI), (28 bytes).
    Removing gpio.o(i.GPIOPinTypeEthernetLED), (28 bytes).
    Removing gpio.o(i.GPIOPinTypeEthernetMII), (28 bytes).
    Removing gpio.o(i.GPIOPinTypeGPIOInput), (28 bytes).
    Removing gpio.o(i.GPIOPinTypeGPIOOutput), (28 bytes).
    Removing gpio.o(i.GPIOPinTypeGPIOOutputOD), (28 bytes).
    Removing gpio.o(i.GPIOPinTypeHibernateRTCCLK), (28 bytes).
    Removing gpio.o(i.GPIOPinTypeI2C), (28 bytes).
    Removing gpio.o(i.GPIOPinTypeI2CSCL), (28 bytes).
    Removing gpio.o(i.GPIOPinTypeLCD), (28 bytes).
    Removing gpio.o(i.GPIOPinTypeOneWire), (28 bytes).
    Removing gpio.o(i.GPIOPinTypeQEI), (28 bytes).
    Removing gpio.o(i.GPIOPinTypeSSI), (28 bytes).
    Removing gpio.o(i.GPIOPinTypeTimer), (28 bytes).
    Removing gpio.o(i.GPIOPinTypeTrace), (28 bytes).
    Removing gpio.o(i.GPIOPinTypeUART), (28 bytes).
    Removing gpio.o(i.GPIOPinTypeUSBAnalog), (28 bytes).
    Removing gpio.o(i.GPIOPinTypeUSBDigital), (28 bytes).
    Removing gpio.o(i.GPIOPinTypeWakeHigh), (30 bytes).
    Removing gpio.o(i.GPIOPinTypeWakeLow), (30 bytes).
    Removing gpio.o(i.GPIOPinWakeStatus), (6 bytes).
    Removing gpio.o(i.GPIOPinWrite), (6 bytes).
    Removing gpio.o(i._GPIOIntNumberGet), (80 bytes).
    Removing i2c.o(i.I2CFIFODataGet), (16 bytes).
    Removing i2c.o(i.I2CFIFODataGetNonBlocking), (24 bytes).
    Removing i2c.o(i.I2CFIFODataPut), (16 bytes).
    Removing i2c.o(i.I2CFIFODataPutNonBlocking), (20 bytes).
    Removing i2c.o(i.I2CFIFOStatus), (6 bytes).
    Removing i2c.o(i.I2CIntRegister), (96 bytes).
    Removing i2c.o(i.I2CIntUnregister), (96 bytes).
    Removing i2c.o(i.I2CLoopbackEnable), (10 bytes).
    Removing i2c.o(i.I2CMasterBurstCountGet), (4 bytes).
    Removing i2c.o(i.I2CMasterBurstLengthSet), (4 bytes).
    Removing i2c.o(i.I2CMasterBusBusy), (12 bytes).
    Removing i2c.o(i.I2CMasterBusy), (12 bytes).
    Removing i2c.o(i.I2CMasterControl), (4 bytes).
    Removing i2c.o(i.I2CMasterDataGet), (4 bytes).
    Removing i2c.o(i.I2CMasterDataPut), (4 bytes).
    Removing i2c.o(i.I2CMasterDisable), (10 bytes).
    Removing i2c.o(i.I2CMasterEnable), (10 bytes).
    Removing i2c.o(i.I2CMasterErr), (24 bytes).
    Removing i2c.o(i.I2CMasterGlitchFilterConfigSet), (84 bytes).
    Removing i2c.o(i.I2CMasterInitExpClk), (84 bytes).
    Removing i2c.o(i.I2CMasterIntClear), (8 bytes).
    Removing i2c.o(i.I2CMasterIntClearEx), (4 bytes).
    Removing i2c.o(i.I2CMasterIntDisable), (6 bytes).
    Removing i2c.o(i.I2CMasterIntDisableEx), (10 bytes).
    Removing i2c.o(i.I2CMasterIntEnable), (6 bytes).
    Removing i2c.o(i.I2CMasterIntEnableEx), (8 bytes).
    Removing i2c.o(i.I2CMasterIntStatus), (24 bytes).
    Removing i2c.o(i.I2CMasterIntStatusEx), (10 bytes).
    Removing i2c.o(i.I2CMasterLineStateGet), (4 bytes).
    Removing i2c.o(i.I2CMasterSlaveAddrSet), (8 bytes).
    Removing i2c.o(i.I2CMasterTimeoutSet), (4 bytes).
    Removing i2c.o(i.I2CRxFIFOConfigSet), (22 bytes).
    Removing i2c.o(i.I2CRxFIFOFlush), (14 bytes).
    Removing i2c.o(i.I2CSlaveACKOverride), (22 bytes).
    Removing i2c.o(i.I2CSlaveACKValueSet), (22 bytes).
    Removing i2c.o(i.I2CSlaveAddressSet), (24 bytes).
    Removing i2c.o(i.I2CSlaveDataGet), (6 bytes).
    Removing i2c.o(i.I2CSlaveDataPut), (6 bytes).
    Removing i2c.o(i.I2CSlaveDisable), (16 bytes).
    Removing i2c.o(i.I2CSlaveEnable), (16 bytes).
    Removing i2c.o(i.I2CSlaveFIFODisable), (8 bytes).
    Removing i2c.o(i.I2CSlaveFIFOEnable), (10 bytes).
    Removing i2c.o(i.I2CSlaveInit), (20 bytes).
    Removing i2c.o(i.I2CSlaveIntClear), (8 bytes).
    Removing i2c.o(i.I2CSlaveIntClearEx), (6 bytes).
    Removing i2c.o(i.I2CSlaveIntDisable), (14 bytes).
    Removing i2c.o(i.I2CSlaveIntDisableEx), (14 bytes).
    Removing i2c.o(i.I2CSlaveIntEnable), (14 bytes).
    Removing i2c.o(i.I2CSlaveIntEnableEx), (12 bytes).
    Removing i2c.o(i.I2CSlaveIntStatus), (28 bytes).
    Removing i2c.o(i.I2CSlaveIntStatusEx), (14 bytes).
    Removing i2c.o(i.I2CSlaveStatus), (6 bytes).
    Removing i2c.o(i.I2CTxFIFOConfigSet), (24 bytes).
    Removing i2c.o(i.I2CTxFIFOFlush), (14 bytes).
    Removing i2c.o(.constdata), (128 bytes).
    Removing interrupt.o(i.IntDisable), (100 bytes).
    Removing interrupt.o(i.IntIsEnabled), (96 bytes).
    Removing interrupt.o(i.IntMasterDisable), (14 bytes).
    Removing interrupt.o(i.IntMasterEnable), (14 bytes).
    Removing interrupt.o(i.IntPendClear), (68 bytes).
    Removing interrupt.o(i.IntPendSet), (84 bytes).
    Removing interrupt.o(i.IntPriorityGet), (28 bytes).
    Removing interrupt.o(i.IntPriorityGroupingGet), (36 bytes).
    Removing interrupt.o(i.IntPriorityGroupingSet), (28 bytes).
    Removing interrupt.o(i.IntPriorityMaskGet), (4 bytes).
    Removing interrupt.o(i.IntPriorityMaskSet), (4 bytes).
    Removing interrupt.o(i.IntPrioritySet), (40 bytes).
    Removing interrupt.o(i.IntRegister), (52 bytes).
    Removing interrupt.o(i.IntTrigger), (12 bytes).
    Removing interrupt.o(i.IntUnregister), (20 bytes).
    Removing interrupt.o(i._IntDefaultHandler), (2 bytes).
    Removing interrupt.o(vtable), (620 bytes).
    Removing pwm.o(i.PWMClockGet), (26 bytes).
    Removing pwm.o(i.PWMDeadBandDisable), (12 bytes).
    Removing pwm.o(i.PWMDeadBandEnable), (16 bytes).
    Removing pwm.o(i.PWMFaultIntClear), (8 bytes).
    Removing pwm.o(i.PWMFaultIntClearExt), (4 bytes).
    Removing pwm.o(i.PWMFaultIntRegister), (96 bytes).
    Removing pwm.o(i.PWMFaultIntUnregister), (88 bytes).
    Removing pwm.o(i.PWMGenFaultClear), (18 bytes).
    Removing pwm.o(i.PWMGenFaultConfigure), (18 bytes).
    Removing pwm.o(i.PWMGenFaultStatus), (18 bytes).
    Removing pwm.o(i.PWMGenFaultTriggerGet), (12 bytes).
    Removing pwm.o(i.PWMGenFaultTriggerSet), (12 bytes).
    Removing pwm.o(i.PWMGenIntClear), (6 bytes).
    Removing pwm.o(i.PWMGenIntRegister), (26 bytes).
    Removing pwm.o(i.PWMGenIntStatus), (12 bytes).
    Removing pwm.o(i.PWMGenIntTrigDisable), (10 bytes).
    Removing pwm.o(i.PWMGenIntTrigEnable), (10 bytes).
    Removing pwm.o(i.PWMGenIntUnregister), (22 bytes).
    Removing pwm.o(i.PWMIntDisable), (10 bytes).
    Removing pwm.o(i.PWMIntEnable), (8 bytes).
    Removing pwm.o(i.PWMIntStatus), (10 bytes).
    Removing pwm.o(i.PWMOutputFault), (16 bytes).
    Removing pwm.o(i.PWMOutputFaultLevel), (16 bytes).
    Removing pwm.o(i.PWMOutputInvert), (16 bytes).
    Removing pwm.o(i.PWMOutputUpdateMode), (62 bytes).
    Removing pwm.o(i.PWMPulseWidthGet), (32 bytes).
    Removing pwm.o(i.PWMSyncTimeBase), (4 bytes).
    Removing pwm.o(i.PWMSyncUpdate), (4 bytes).
    Removing pwm.o(i._PWMGenIntNumberGet), (224 bytes).
    Removing sysctl.o(.emb_text), (6 bytes).
    Removing sysctl.o(i.SysCtlAltClkConfig), (12 bytes).
    Removing sysctl.o(i.SysCtlClockGet), (340 bytes).
    Removing sysctl.o(i.SysCtlClockOutConfig), (20 bytes).
    Removing sysctl.o(i.SysCtlClockSet), (288 bytes).
    Removing sysctl.o(i.SysCtlDeepSleep), (32 bytes).
    Removing sysctl.o(i.SysCtlDeepSleepClockConfigSet), (112 bytes).
    Removing sysctl.o(i.SysCtlDeepSleepClockSet), (12 bytes).
    Removing sysctl.o(i.SysCtlDeepSleepPowerSet), (12 bytes).
    Removing sysctl.o(i.SysCtlFlashSectorSizeGet), (56 bytes).
    Removing sysctl.o(i.SysCtlFlashSizeGet), (56 bytes).
    Removing sysctl.o(i.SysCtlGPIOAHBDisable), (28 bytes).
    Removing sysctl.o(i.SysCtlGPIOAHBEnable), (24 bytes).
    Removing sysctl.o(i.SysCtlIntClear), (12 bytes).
    Removing sysctl.o(i.SysCtlIntDisable), (16 bytes).
    Removing sysctl.o(i.SysCtlIntEnable), (16 bytes).
    Removing sysctl.o(i.SysCtlIntRegister), (20 bytes).
    Removing sysctl.o(i.SysCtlIntStatus), (16 bytes).
    Removing sysctl.o(i.SysCtlIntUnregister), (18 bytes).
    Removing sysctl.o(i.SysCtlLDODeepSleepGet), (12 bytes).
    Removing sysctl.o(i.SysCtlLDODeepSleepSet), (12 bytes).
    Removing sysctl.o(i.SysCtlLDOSleepGet), (12 bytes).
    Removing sysctl.o(i.SysCtlLDOSleepSet), (12 bytes).
    Removing sysctl.o(i.SysCtlMOSCConfigSet), (12 bytes).
    Removing sysctl.o(i.SysCtlNMIClear), (16 bytes).
    Removing sysctl.o(i.SysCtlNMIStatus), (12 bytes).
    Removing sysctl.o(i.SysCtlPIOSCCalibrate), (76 bytes).
    Removing sysctl.o(i.SysCtlPWMClockGet), (24 bytes).
    Removing sysctl.o(i.SysCtlPWMClockSet), (20 bytes).
    Removing sysctl.o(i.SysCtlPeripheralClockGating), (68 bytes).
    Removing sysctl.o(i.SysCtlPeripheralDeepSleepDisable), (40 bytes).
    Removing sysctl.o(i.SysCtlPeripheralDeepSleepEnable), (40 bytes).
    Removing sysctl.o(i.SysCtlPeripheralDisable), (40 bytes).
    Removing sysctl.o(i.SysCtlPeripheralPowerOff), (40 bytes).
    Removing sysctl.o(i.SysCtlPeripheralPowerOn), (40 bytes).
    Removing sysctl.o(i.SysCtlPeripheralPresent), (44 bytes).
    Removing sysctl.o(i.SysCtlPeripheralReset), (60 bytes).
    Removing sysctl.o(i.SysCtlPeripheralSleepDisable), (40 bytes).
    Removing sysctl.o(i.SysCtlPeripheralSleepEnable), (40 bytes).
    Removing sysctl.o(i.SysCtlReset), (16 bytes).
    Removing sysctl.o(i.SysCtlResetBehaviorGet), (12 bytes).
    Removing sysctl.o(i.SysCtlResetBehaviorSet), (12 bytes).
    Removing sysctl.o(i.SysCtlResetCauseClear), (16 bytes).
    Removing sysctl.o(i.SysCtlResetCauseGet), (12 bytes).
    Removing sysctl.o(i.SysCtlSRAMSizeGet), (16 bytes).
    Removing sysctl.o(i.SysCtlSleep), (4 bytes).
    Removing sysctl.o(i.SysCtlSleepPowerSet), (12 bytes).
    Removing sysctl.o(i.SysCtlUSBPLLDisable), (16 bytes).
    Removing sysctl.o(i.SysCtlUSBPLLEnable), (16 bytes).
    Removing sysctl.o(i.SysCtlVCOGet), (120 bytes).
    Removing sysctl.o(i.SysCtlVoltageEventClear), (16 bytes).
    Removing sysctl.o(i.SysCtlVoltageEventConfig), (12 bytes).
    Removing sysctl.o(i.SysCtlVoltageEventStatus), (12 bytes).
    Removing timer.o(i.TimerADCEventGet), (4 bytes).
    Removing timer.o(i.TimerADCEventSet), (4 bytes).
    Removing timer.o(i.TimerClockSourceGet), (6 bytes).
    Removing timer.o(i.TimerClockSourceSet), (6 bytes).
    Removing timer.o(i.TimerConfigure), (96 bytes).
    Removing timer.o(i.TimerControlEvent), (18 bytes).
    Removing timer.o(i.TimerControlLevel), (22 bytes).
    Removing timer.o(i.TimerControlStall), (22 bytes).
    Removing timer.o(i.TimerControlTrigger), (80 bytes).
    Removing timer.o(i.TimerControlWaitOnTrigger), (48 bytes).
    Removing timer.o(i.TimerDMAEventGet), (4 bytes).
    Removing timer.o(i.TimerDMAEventSet), (4 bytes).
    Removing timer.o(i.TimerDisable), (16 bytes).
    Removing timer.o(i.TimerEnable), (14 bytes).
    Removing timer.o(i.TimerIntClear), (4 bytes).
    Removing timer.o(i.TimerIntDisable), (10 bytes).
    Removing timer.o(i.TimerIntEnable), (8 bytes).
    Removing timer.o(i.TimerIntRegister), (104 bytes).
    Removing timer.o(i.TimerIntStatus), (10 bytes).
    Removing timer.o(i.TimerIntUnregister), (104 bytes).
    Removing timer.o(i.TimerLoadGet), (10 bytes).
    Removing timer.o(i.TimerLoadGet64), (14 bytes).
    Removing timer.o(i.TimerLoadSet), (18 bytes).
    Removing timer.o(i.TimerLoadSet64), (6 bytes).
    Removing timer.o(i.TimerMatchGet), (10 bytes).
    Removing timer.o(i.TimerMatchGet64), (14 bytes).
    Removing timer.o(i.TimerMatchSet), (18 bytes).
    Removing timer.o(i.TimerMatchSet64), (6 bytes).
    Removing timer.o(i.TimerPrescaleGet), (10 bytes).
    Removing timer.o(i.TimerPrescaleMatchGet), (10 bytes).
    Removing timer.o(i.TimerPrescaleMatchSet), (18 bytes).
    Removing timer.o(i.TimerPrescaleSet), (18 bytes).
    Removing timer.o(i.TimerRTCDisable), (10 bytes).
    Removing timer.o(i.TimerRTCEnable), (10 bytes).
    Removing timer.o(i.TimerSynchronize), (4 bytes).
    Removing timer.o(i.TimerUpdateMode), (42 bytes).
    Removing timer.o(i.TimerValueGet), (10 bytes).
    Removing timer.o(i.TimerValueGet64), (14 bytes).
    Removing timer.o(.constdata), (160 bytes).
    Removing context.o(i.GrContextClipRegionSet), (112 bytes).
    Removing context.o(i.GrLibInit), (12 bytes).
    Removing rectangle.o(i.GrRectDraw), (108 bytes).
    Removing rectangle.o(i.GrRectIntersectGet), (140 bytes).
    Removing rectangle.o(i.GrRectOverlapCheck), (56 bytes).
    Removing string.o(i.GrCodepageMapTableSet), (10 bytes).
    Removing string.o(i.GrFontBaselineGet), (44 bytes).
    Removing string.o(i.GrFontBlockCodepointsGet), (84 bytes).
    Removing string.o(i.GrFontCodepageGet), (32 bytes).
    Removing string.o(i.GrFontHeightGet), (44 bytes).
    Removing string.o(i.GrFontInfoGet), (48 bytes).
    Removing string.o(i.GrFontMaxWidthGet), (44 bytes).
    Removing string.o(i.GrFontNumBlocksGet), (32 bytes).
    Removing string.o(i.GrStringCodepageSet), (6 bytes).
    Removing string.o(i.GrStringGet), (596 bytes).
    Removing string.o(i.GrStringLanguageSet), (48 bytes).
    Removing string.o(i.GrStringNextCharGet), (52 bytes).
    Removing string.o(i.GrStringTableSet), (36 bytes).
    Removing string.o(i.GrStringWidthGet), (192 bytes).
    Removing string.o(.data), (20 bytes).
    Removing rt_cmsis.o(.rev16_text), (4 bytes).
    Removing rt_cmsis.o(.revsh_text), (4 bytes).
    Removing rt_cmsis.o(.rrx_text), (6 bytes).
    Removing rt_cmsis.o(i.isrSemaphoreRelease), (40 bytes).
    Removing rt_cmsis.o(i.isrSignalSet), (36 bytes).
    Removing rt_cmsis.o(i.osKernelRunning), (36 bytes).
    Removing rt_cmsis.o(i.osKernelSysTick), (24 bytes).
    Removing rt_cmsis.o(i.osMailAlloc), (28 bytes).
    Removing rt_cmsis.o(i.osMailCAlloc), (48 bytes).
    Removing rt_cmsis.o(i.osMailCreate), (44 bytes).
    Removing rt_cmsis.o(i.osMailFree), (28 bytes).
    Removing rt_cmsis.o(i.osMailGet), (22 bytes).
    Removing rt_cmsis.o(i.osMailPut), (20 bytes).
    Removing rt_cmsis.o(i.osMutexCreate), (44 bytes).
    Removing rt_cmsis.o(i.osMutexDelete), (24 bytes).
    Removing rt_cmsis.o(i.osMutexRelease), (24 bytes).
    Removing rt_cmsis.o(i.osMutexWait), (24 bytes).
    Removing rt_cmsis.o(i.osPoolAlloc), (32 bytes).
    Removing rt_cmsis.o(i.osPoolCAlloc), (52 bytes).
    Removing rt_cmsis.o(i.osPoolCreate), (44 bytes).
    Removing rt_cmsis.o(i.osPoolFree), (32 bytes).
    Removing rt_cmsis.o(i.osSemaphoreCreate), (44 bytes).
    Removing rt_cmsis.o(i.osSemaphoreDelete), (24 bytes).
    Removing rt_cmsis.o(i.osSemaphoreRelease), (24 bytes).
    Removing rt_cmsis.o(i.osSemaphoreWait), (24 bytes).
    Removing rt_cmsis.o(i.osSignalClear), (24 bytes).
    Removing rt_cmsis.o(i.osSignalSet), (24 bytes).
    Removing rt_cmsis.o(i.osSignalWait), (24 bytes).
    Removing rt_cmsis.o(i.osThreadGetId), (24 bytes).
    Removing rt_cmsis.o(i.osThreadGetPriority), (24 bytes).
    Removing rt_cmsis.o(i.osThreadSetPriority), (24 bytes).
    Removing rt_cmsis.o(i.osThreadTerminate), (24 bytes).
    Removing rt_cmsis.o(i.osThreadYield), (24 bytes).
    Removing rt_cmsis.o(i.osTimerCreate), (44 bytes).
    Removing rt_cmsis.o(i.osTimerDelete), (24 bytes).
    Removing rt_cmsis.o(i.osTimerStart), (24 bytes).
    Removing rt_cmsis.o(i.osTimerStop), (24 bytes).
    Removing rt_cmsis.o(i.osWait), (4 bytes).
    Removing rt_cmsis.o(i.os_resume), (12 bytes).
    Removing rt_cmsis.o(i.os_suspend), (12 bytes).
    Removing rt_cmsis.o(i.rt_clr_box), (24 bytes).
    Removing rt_cmsis.o(i.rt_timer_remove), (60 bytes).
    Removing rt_cmsis.o(i.svcKernelRunning), (12 bytes).
    Removing rt_cmsis.o(i.svcKernelSysTick), (56 bytes).
    Removing rt_cmsis.o(i.svcMailCreate), (66 bytes).
    Removing rt_cmsis.o(i.svcMutexCreate), (28 bytes).
    Removing rt_cmsis.o(i.svcMutexDelete), (26 bytes).
    Removing rt_cmsis.o(i.svcMutexRelease), (34 bytes).
    Removing rt_cmsis.o(i.svcMutexWait), (58 bytes).
    Removing rt_cmsis.o(i.svcPoolCreate), (40 bytes).
    Removing rt_cmsis.o(i.svcSemaphoreCreate), (36 bytes).
    Removing rt_cmsis.o(i.svcSemaphoreDelete), (26 bytes).
    Removing rt_cmsis.o(i.svcSemaphoreRelease), (40 bytes).
    Removing rt_cmsis.o(i.svcSemaphoreWait), (50 bytes).
    Removing rt_cmsis.o(i.svcSignalClear), (36 bytes).
    Removing rt_cmsis.o(i.svcSignalSet), (36 bytes).
    Removing rt_cmsis.o(i.svcSignalWait), (84 bytes).
    Removing rt_cmsis.o(i.svcThreadGetPriority), (18 bytes).
    Removing rt_cmsis.o(i.svcThreadSetPriority), (46 bytes).
    Removing rt_cmsis.o(i.svcThreadYield), (10 bytes).
    Removing rt_cmsis.o(i.svcTimerCreate), (56 bytes).
    Removing rt_cmsis.o(i.svcTimerDelete), (40 bytes).
    Removing rt_cmsis.o(i.svcTimerStart), (100 bytes).
    Removing rt_cmsis.o(i.svcTimerStop), (36 bytes).
    Removing rt_cmsis.o(i.sysMailAlloc), (88 bytes).
    Removing rt_cmsis.o(i.sysMailFree), (96 bytes).
    Removing rt_cmsis.o(i.sysPoolAlloc), (10 bytes).
    Removing rt_cmsis.o(i.sysPoolFree), (20 bytes).
    Removing rt_cmsis.o(i.sysUserTimerUpdate), (48 bytes).
    Removing rt_cmsis.o(i.sysUserTimerWakeupTime), (20 bytes).
    Removing rt_task.o(i.rt_tsk_pass), (48 bytes).
    Removing rt_mutex.o(i.rt_mut_delete), (176 bytes).
    Removing cpu.o(.emb_text), (38 bytes).
    Removing charmap.o(i.GrMapISO8859_10_Unicode), (32 bytes).
    Removing charmap.o(i.GrMapISO8859_11_Unicode), (16 bytes).
    Removing charmap.o(i.GrMapISO8859_13_Unicode), (32 bytes).
    Removing charmap.o(i.GrMapISO8859_14_Unicode), (96 bytes).
    Removing charmap.o(i.GrMapISO8859_15_Unicode), (88 bytes).
    Removing charmap.o(i.GrMapISO8859_16_Unicode), (32 bytes).
    Removing charmap.o(i.GrMapISO8859_2_Unicode), (32 bytes).
    Removing charmap.o(i.GrMapISO8859_3_Unicode), (32 bytes).
    Removing charmap.o(i.GrMapISO8859_4_Unicode), (32 bytes).
    Removing charmap.o(i.GrMapISO8859_5_Unicode), (16 bytes).
    Removing charmap.o(i.GrMapISO8859_6_Unicode), (22 bytes).
    Removing charmap.o(i.GrMapISO8859_7_Unicode), (44 bytes).
    Removing charmap.o(i.GrMapISO8859_8_Unicode), (38 bytes).
    Removing charmap.o(i.GrMapISO8859_9_Unicode), (68 bytes).
    Removing charmap.o(i.GrMapUTF16BE_Unicode), (6 bytes).
    Removing charmap.o(i.GrMapUTF16LE_Unicode), (6 bytes).
    Removing charmap.o(i.GrMapUTF16_Unicode), (120 bytes).
    Removing charmap.o(i.GrMapUTF8_Unicode), (146 bytes).
    Removing charmap.o(i.GrMapUnicode_Unicode), (22 bytes).
    Removing charmap.o(i.GrMapWIN1250_Unicode), (32 bytes).
    Removing charmap.o(i.GrMapWIN1251_Unicode), (48 bytes).
    Removing charmap.o(i.GrMapWIN1252_Unicode), (40 bytes).
    Removing charmap.o(i.GrMapWIN1253_Unicode), (48 bytes).
    Removing charmap.o(i.GrMapWIN1254_Unicode), (96 bytes).
    Removing charmap.o(.constdata), (1900 bytes).
    Removing line.o(i.GrLineDraw), (638 bytes).
    Removing line.o(i.GrLineDrawH), (76 bytes).
    Removing line.o(i.GrLineDrawV), (76 bytes).
    Removing rt_system.o(.emb_text), (0 bytes).
    Removing rt_system.o(i.os_tick_ovf), (16 bytes).
    Removing rt_system.o(i.os_tick_val), (20 bytes).
    Removing rt_system.o(i.rt_resume), (136 bytes).
    Removing rt_system.o(i.rt_suspend), (36 bytes).
    Removing rt_system.o(i.rt_tsk_lock), (80 bytes).
    Removing rt_system.o(i.rt_tsk_unlock), (80 bytes).
    Removing rt_event.o(i.isr_evt_set), (40 bytes).
    Removing rt_event.o(i.rt_evt_clr), (28 bytes).
    Removing rt_event.o(i.rt_evt_get), (12 bytes).
    Removing rt_event.o(i.rt_evt_set), (92 bytes).
    Removing rt_event.o(i.rt_evt_wait), (60 bytes).
    Removing rt_list.o(i.rt_get_same_rdy_prio), (36 bytes).
    Removing rt_semaphore.o(i.isr_sem_send), (16 bytes).
    Removing rt_semaphore.o(i.rt_sem_delete), (92 bytes).
    Removing rt_semaphore.o(i.rt_sem_init), (12 bytes).
    Removing rt_semaphore.o(i.rt_sem_send), (42 bytes).
    Removing rt_semaphore.o(i.rt_sem_wait), (64 bytes).
    Removing rt_time.o(i.rt_itv_set), (24 bytes).
    Removing rt_time.o(i.rt_itv_wait), (40 bytes).
    Removing rt_time.o(i.rt_time_get), (12 bytes).
    Removing rt_membox.o(i._calloc_box), (30 bytes).

483 unused section(s) (total 36711 bytes) removed from the image.

==============================================================================

Image Symbol Table

    Local Symbols

    Symbol Name                              Value     Ov Type        Size  Object(Section)

    RESET                                    0x00000000   Section      512  startup_tm4c129.o(RESET)
    ../clib/angel/boardlib.s                 0x00000000   Number         0  boardinit2.o ABSOLUTE
    ../clib/angel/boardlib.s                 0x00000000   Number         0  boardinit1.o ABSOLUTE
    ../clib/angel/boardlib.s                 0x00000000   Number         0  boardshut.o ABSOLUTE
    ../clib/angel/handlers.s                 0x00000000   Number         0  __scatter_copy.o ABSOLUTE
    ../clib/angel/handlers.s                 0x00000000   Number         0  __scatter_zi.o ABSOLUTE
    ../clib/angel/kernel.s                   0x00000000   Number         0  __rtentry.o ABSOLUTE
    ../clib/angel/kernel.s                   0x00000000   Number         0  rtexit.o ABSOLUTE
    ../clib/angel/kernel.s                   0x00000000   Number         0  __rtentry4.o ABSOLUTE
    ../clib/angel/kernel.s                   0x00000000   Number         0  rtexit2.o ABSOLUTE
    ../clib/angel/kernel.s                   0x00000000   Number         0  __rtentry2.o ABSOLUTE
    ../clib/angel/rt.s                       0x00000000   Number         0  rt_div0.o ABSOLUTE
    ../clib/angel/rt.s                       0x00000000   Number         0  aeabi_ldiv0.o ABSOLUTE
    ../clib/angel/rt.s                       0x00000000   Number         0  aeabi_ldiv0_sigfpe.o ABSOLUTE
    ../clib/angel/rt.s                       0x00000000   Number         0  rt_heap_descriptor.o ABSOLUTE
    ../clib/angel/rt.s                       0x00000000   Number         0  rt_heap_descriptor_intlibspace.o ABSOLUTE
    ../clib/angel/rt.s                       0x00000000   Number         0  rt_heap_descriptor_twolibspace.o ABSOLUTE
    ../clib/angel/rt.s                       0x00000000   Number         0  rt_raise.o ABSOLUTE
    ../clib/angel/scatter.s                  0x00000000   Number         0  __scatter.o ABSOLUTE
    ../clib/angel/startup.s                  0x00000000   Number         0  __main.o ABSOLUTE
    ../clib/angel/sys.s                      0x00000000   Number         0  libspace.o ABSOLUTE
    ../clib/angel/sys.s                      0x00000000   Number         0  indicate_semi.o ABSOLUTE
    ../clib/angel/sys.s                      0x00000000   Number         0  use_no_semi.o ABSOLUTE
    ../clib/angel/sys.s                      0x00000000   Number         0  sys_stackheap_outer.o ABSOLUTE
    ../clib/angel/sysapp.c                   0x00000000   Number         0  sys_exit.o ABSOLUTE
    ../clib/angel/sysapp.c                   0x00000000   Number         0  sys_command.o ABSOLUTE
    ../clib/angel/sysapp.c                   0x00000000   Number         0  sys_wrch.o ABSOLUTE
    ../clib/armsys.c                         0x00000000   Number         0  no_argv.o ABSOLUTE
    ../clib/armsys.c                         0x00000000   Number         0  _get_argv_nomalloc.o ABSOLUTE
    ../clib/armsys.c                         0x00000000   Number         0  _get_argv.o ABSOLUTE
    ../clib/armsys.c                         0x00000000   Number         0  argv_veneer.o ABSOLUTE
    ../clib/armsys.c                         0x00000000   Number         0  argv_veneer.o ABSOLUTE
    ../clib/assert.c                         0x00000000   Number         0  assert.o ABSOLUTE
    ../clib/assert.c                         0x00000000   Number         0  assert_puts.o ABSOLUTE
    ../clib/heap1.c                          0x00000000   Number         0  h1_free.o ABSOLUTE
    ../clib/heap1.c                          0x00000000   Number         0  h1_final_mt.o ABSOLUTE
    ../clib/heap1.c                          0x00000000   Number         0  h1_init.o ABSOLUTE
    ../clib/heap1.c                          0x00000000   Number         0  h1_final.o ABSOLUTE
    ../clib/heap1.c                          0x00000000   Number         0  h1_alloc.o ABSOLUTE
    ../clib/heap1.c                          0x00000000   Number         0  h1_alloc_mt.o ABSOLUTE
    ../clib/heap1.c                          0x00000000   Number         0  h1_free_mt.o ABSOLUTE
    ../clib/heap1.c                          0x00000000   Number         0  h1_init_mt.o ABSOLUTE
    ../clib/heap1.c                          0x00000000   Number         0  h1_extend.o ABSOLUTE
    ../clib/heap1.c                          0x00000000   Number         0  h1_extend_mt.o ABSOLUTE
    ../clib/heap2.c                          0x00000000   Number         0  heap2mt.o ABSOLUTE
    ../clib/heap2.c                          0x00000000   Number         0  heap2.o ABSOLUTE
    ../clib/heap2.c                          0x00000000   Number         0  fdtree.o ABSOLUTE
    ../clib/heapalloc.c                      0x00000000   Number         0  heapstubs.o ABSOLUTE
    ../clib/heapalloc.c                      0x00000000   Number         0  free.o ABSOLUTE
    ../clib/heapalloc.c                      0x00000000   Number         0  init_alloc.o ABSOLUTE
    ../clib/heapalloc.c                      0x00000000   Number         0  hguard.o ABSOLUTE
    ../clib/heapalloc.c                      0x00000000   Number         0  malloc.o ABSOLUTE
    ../clib/heapalloc.c                      0x00000000   Number         0  hrguard.o ABSOLUTE
    ../clib/heapalloc.c                      0x00000000   Number         0  maybetermalloc1.o ABSOLUTE
    ../clib/heapalloc.c                      0x00000000   Number         0  maybetermalloc1.o ABSOLUTE
    ../clib/heapalloc.c                      0x00000000   Number         0  maybetermalloc2.o ABSOLUTE
    ../clib/heapalloc.c                      0x00000000   Number         0  maybetermalloc2.o ABSOLUTE
    ../clib/heapalloc.c                      0x00000000   Number         0  term_alloc.o ABSOLUTE
    ../clib/heapaux.c                        0x00000000   Number         0  heapauxi.o ABSOLUTE
    ../clib/heapaux.c                        0x00000000   Number         0  heapauxa.o ABSOLUTE
    ../clib/libinit.s                        0x00000000   Number         0  libinit2.o ABSOLUTE
    ../clib/libinit.s                        0x00000000   Number         0  libinit.o ABSOLUTE
    ../clib/libinit.s                        0x00000000   Number         0  libshutdown.o ABSOLUTE
    ../clib/libinit.s                        0x00000000   Number         0  libshutdown2.o ABSOLUTE
    ../clib/longlong.s                       0x00000000   Number         0  llsdiv.o ABSOLUTE
    ../clib/longlong.s                       0x00000000   Number         0  lludivv7m.o ABSOLUTE
    ../clib/memcpset.s                       0x00000000   Number         0  rt_memcpy_w.o ABSOLUTE
    ../clib/signal.c                         0x00000000   Number         0  defsig_stak_inner.o ABSOLUTE
    ../clib/signal.c                         0x00000000   Number         0  defsig_rtred_inner.o ABSOLUTE
    ../clib/signal.c                         0x00000000   Number         0  defsig_fpe_inner.o ABSOLUTE
    ../clib/signal.c                         0x00000000   Number         0  defsig_general.o ABSOLUTE
    ../clib/signal.c                         0x00000000   Number         0  __raise.o ABSOLUTE
    ../clib/signal.c                         0x00000000   Number         0  defsig_rtmem_inner.o ABSOLUTE
    ../clib/signal.c                         0x00000000   Number         0  defsig_fpe_outer.o ABSOLUTE
    ../clib/signal.c                         0x00000000   Number         0  defsig_abrt_inner.o ABSOLUTE
    ../clib/signal.c                         0x00000000   Number         0  defsig_exit.o ABSOLUTE
    ../clib/signal.c                         0x00000000   Number         0  defsig_rtmem_formal.o ABSOLUTE
    ../clib/signal.c                         0x00000000   Number         0  defsig_rtmem_outer.o ABSOLUTE
    ../clib/signal.c                         0x00000000   Number         0  defsig_abrt_formal.o ABSOLUTE
    ../clib/signal.c                         0x00000000   Number         0  defsig_abrt_outer.o ABSOLUTE
    ../clib/signal.c                         0x00000000   Number         0  defsig_fpe_formal.o ABSOLUTE
    ../clib/signal.c                         0x00000000   Number         0  defsig_other.o ABSOLUTE
    ../clib/signal.c                         0x00000000   Number         0  defsig_segv_inner.o ABSOLUTE
    ../clib/signal.c                         0x00000000   Number         0  defsig_cppl_inner.o ABSOLUTE
    ../clib/signal.c                         0x00000000   Number         0  defsig_pvfn_inner.o ABSOLUTE
    ../clib/signal.s                         0x00000000   Number         0  defsig.o ABSOLUTE
    ../clib/stdlib.c                         0x00000000   Number         0  exit.o ABSOLUTE
    ../clib/stdlib.c                         0x00000000   Number         0  abort.o ABSOLUTE
    ../clib/string.c                         0x00000000   Number         0  strlen.o ABSOLUTE
    ../clib/string.c                         0x00000000   Number         0  strcat.o ABSOLUTE
    ../clib/string.c                         0x00000000   Number         0  strcpy.o ABSOLUTE
    ../fplib/fpinit.s                        0x00000000   Number         0  fpinit.o ABSOLUTE
    ..\HAL_CM.c                              0x00000000   Number         0  hal_cm.o ABSOLUTE
    ..\\rt_CMSIS.c                           0x00000000   Number         0  rt_cmsis.o ABSOLUTE
    ..\\rt_System.c                          0x00000000   Number         0  rt_system.o ABSOLUTE
    ..\rt_CMSIS.c                            0x00000000   Number         0  rt_cmsis.o ABSOLUTE
    ..\rt_Event.c                            0x00000000   Number         0  rt_event.o ABSOLUTE
    ..\rt_List.c                             0x00000000   Number         0  rt_list.o ABSOLUTE
    ..\rt_Mailbox.c                          0x00000000   Number         0  rt_mailbox.o ABSOLUTE
    ..\rt_MemBox.c                           0x00000000   Number         0  rt_membox.o ABSOLUTE
    ..\rt_Memory.c                           0x00000000   Number         0  rt_memory.o ABSOLUTE
    ..\rt_Mutex.c                            0x00000000   Number         0  rt_mutex.o ABSOLUTE
    ..\rt_Robin.c                            0x00000000   Number         0  rt_robin.o ABSOLUTE
    ..\rt_Semaphore.c                        0x00000000   Number         0  rt_semaphore.o ABSOLUTE
    ..\rt_System.c                           0x00000000   Number         0  rt_system.o ABSOLUTE
    ..\rt_Task.c                             0x00000000   Number         0  rt_task.o ABSOLUTE
    ..\rt_Time.c                             0x00000000   Number         0  rt_time.o ABSOLUTE
    Colors.c                                 0x00000000   Number         0  colors.o ABSOLUTE
    Colors.c                                 0x00000000   Number         0  colors.o ABSOLUTE
    Comunication.c                           0x00000000   Number         0  comunication.o ABSOLUTE
    Comunication.c                           0x00000000   Number         0  comunication.o ABSOLUTE
    Graphics.c                               0x00000000   Number         0  graphics.o ABSOLUTE
    Graphics.c                               0x00000000   Number         0  graphics.o ABSOLUTE
    HAL_CM4.c                                0x00000000   Number         0  hal_cm4.o ABSOLUTE
    HAL_CM4.c                                0x00000000   Number         0  hal_cm4.o ABSOLUTE
    Lab4.c                                   0x00000000   Number         0  lab4.o ABSOLUTE
    Lab4.c                                   0x00000000   Number         0  lab4.o ABSOLUTE
    RTE\CMSIS\RTX_Conf_CM.c                  0x00000000   Number         0  rtx_conf_cm.o ABSOLUTE
    RTE\Device\TM4C1294NCPDT\startup_TM4C129.s 0x00000000   Number         0  startup_tm4c129.o ABSOLUTE
    RTE\Device\TM4C1294NCPDT\system_TM4C129.c 0x00000000   Number         0  system_tm4c129.o ABSOLUTE
    RTE\\CMSIS\\RTX_Conf_CM.c                0x00000000   Number         0  rtx_conf_cm.o ABSOLUTE
    RTE\\Device\\TM4C1294NCPDT\\system_TM4C129.c 0x00000000   Number         0  system_tm4c129.o ABSOLUTE
    SVC_Table.s                              0x00000000   Number         0  svc_table.o ABSOLUTE
    Terminal.c                               0x00000000   Number         0  terminal.o ABSOLUTE
    Terminal.c                               0x00000000   Number         0  terminal.o ABSOLUTE
    Utils.c                                  0x00000000   Number         0  utils.o ABSOLUTE
    accel.c                                  0x00000000   Number         0  accel.o ABSOLUTE
    adc.c                                    0x00000000   Number         0  adc.o ABSOLUTE
    buttons.c                                0x00000000   Number         0  buttons.o ABSOLUTE
    buzzer.c                                 0x00000000   Number         0  buzzer.o ABSOLUTE
    cfaf128x128x16.c                         0x00000000   Number         0  cfaf128x128x16.o ABSOLUTE
    charmap.c                                0x00000000   Number         0  charmap.o ABSOLUTE
    context.c                                0x00000000   Number         0  context.o ABSOLUTE
    cpu.c                                    0x00000000   Number         0  cpu.o ABSOLUTE
    cpu.c                                    0x00000000   Number         0  cpu.o ABSOLUTE
    dc.s                                     0x00000000   Number         0  dc.o ABSOLUTE
    fonts\fontfixed6x8.c                     0x00000000   Number         0  fontfixed6x8.o ABSOLUTE
    gpio.c                                   0x00000000   Number         0  gpio.o ABSOLUTE
    i2c.c                                    0x00000000   Number         0  i2c.o ABSOLUTE
    interrupt.c                              0x00000000   Number         0  interrupt.o ABSOLUTE
    joy.c                                    0x00000000   Number         0  joy.o ABSOLUTE
    led.c                                    0x00000000   Number         0  led.o ABSOLUTE
    led.c                                    0x00000000   Number         0  led.o ABSOLUTE
    line.c                                   0x00000000   Number         0  line.o ABSOLUTE
    mic.c                                    0x00000000   Number         0  mic.o ABSOLUTE
    opt.c                                    0x00000000   Number         0  opt.o ABSOLUTE
    pwm.c                                    0x00000000   Number         0  pwm.o ABSOLUTE
    rectangle.c                              0x00000000   Number         0  rectangle.o ABSOLUTE
    rgb.c                                    0x00000000   Number         0  rgb.o ABSOLUTE
    servo.c                                  0x00000000   Number         0  servo.o ABSOLUTE
    string.c                                 0x00000000   Number         0  string.o ABSOLUTE
    sysctl.c                                 0x00000000   Number         0  sysctl.o ABSOLUTE
    sysctl.c                                 0x00000000   Number         0  sysctl.o ABSOLUTE
    temp.c                                   0x00000000   Number         0  temp.o ABSOLUTE
    timer.c                                  0x00000000   Number         0  timer.o ABSOLUTE
    uart_functions.c                         0x00000000   Number         0  uart_functions.o ABSOLUTE
    uart_functions.c                         0x00000000   Number         0  uart_functions.o ABSOLUTE
    !!!main                                  0x00000200   Section        8  __main.o(!!!main)
    !!!scatter                               0x00000208   Section       52  __scatter.o(!!!scatter)
    !!handler_copy                           0x0000023c   Section       26  __scatter_copy.o(!!handler_copy)
    !!handler_zi                             0x00000258   Section       28  __scatter_zi.o(!!handler_zi)
    .ARM.Collect$$libinit$$00000000          0x00000274   Section        2  libinit.o(.ARM.Collect$$libinit$$00000000)
    .ARM.Collect$$libinit$$00000001          0x00000276   Section        4  libinit2.o(.ARM.Collect$$libinit$$00000001)
    .ARM.Collect$$libinit$$00000004          0x0000027a   Section        0  libinit2.o(.ARM.Collect$$libinit$$00000004)
    .ARM.Collect$$libinit$$00000005          0x0000027a   Section        8  libinit2.o(.ARM.Collect$$libinit$$00000005)
    .ARM.Collect$$libinit$$0000000A          0x00000282   Section        0  libinit2.o(.ARM.Collect$$libinit$$0000000A)
    .ARM.Collect$$libinit$$0000000C          0x00000282   Section        0  libinit2.o(.ARM.Collect$$libinit$$0000000C)
    .ARM.Collect$$libinit$$0000000E          0x00000282   Section        0  libinit2.o(.ARM.Collect$$libinit$$0000000E)
    .ARM.Collect$$libinit$$00000011          0x00000282   Section        0  libinit2.o(.ARM.Collect$$libinit$$00000011)
    .ARM.Collect$$libinit$$00000013          0x00000282   Section        0  libinit2.o(.ARM.Collect$$libinit$$00000013)
    .ARM.Collect$$libinit$$00000015          0x00000282   Section        0  libinit2.o(.ARM.Collect$$libinit$$00000015)
    .ARM.Collect$$libinit$$00000017          0x00000282   Section        0  libinit2.o(.ARM.Collect$$libinit$$00000017)
    .ARM.Collect$$libinit$$00000019          0x00000282   Section        0  libinit2.o(.ARM.Collect$$libinit$$00000019)
    .ARM.Collect$$libinit$$0000001B          0x00000282   Section        0  libinit2.o(.ARM.Collect$$libinit$$0000001B)
    .ARM.Collect$$libinit$$0000001D          0x00000282   Section        0  libinit2.o(.ARM.Collect$$libinit$$0000001D)
    .ARM.Collect$$libinit$$0000001F          0x00000282   Section        0  libinit2.o(.ARM.Collect$$libinit$$0000001F)
    .ARM.Collect$$libinit$$00000021          0x00000282   Section        0  libinit2.o(.ARM.Collect$$libinit$$00000021)
    .ARM.Collect$$libinit$$00000023          0x00000282   Section        0  libinit2.o(.ARM.Collect$$libinit$$00000023)
    .ARM.Collect$$libinit$$00000025          0x00000282   Section        0  libinit2.o(.ARM.Collect$$libinit$$00000025)
    .ARM.Collect$$libinit$$0000002C          0x00000282   Section        0  libinit2.o(.ARM.Collect$$libinit$$0000002C)
    .ARM.Collect$$libinit$$0000002E          0x00000282   Section        0  libinit2.o(.ARM.Collect$$libinit$$0000002E)
    .ARM.Collect$$libinit$$00000030          0x00000282   Section        0  libinit2.o(.ARM.Collect$$libinit$$00000030)
    .ARM.Collect$$libinit$$00000032          0x00000282   Section        0  libinit2.o(.ARM.Collect$$libinit$$00000032)
    .ARM.Collect$$libinit$$00000033          0x00000282   Section        2  libinit2.o(.ARM.Collect$$libinit$$00000033)
    .ARM.Collect$$libshutdown$$00000000      0x00000284   Section        2  libshutdown.o(.ARM.Collect$$libshutdown$$00000000)
    .ARM.Collect$$libshutdown$$00000002      0x00000286   Section        0  libshutdown2.o(.ARM.Collect$$libshutdown$$00000002)
    .ARM.Collect$$libshutdown$$00000004      0x00000286   Section        0  libshutdown2.o(.ARM.Collect$$libshutdown$$00000004)
    .ARM.Collect$$libshutdown$$00000007      0x00000286   Section        0  libshutdown2.o(.ARM.Collect$$libshutdown$$00000007)
    .ARM.Collect$$libshutdown$$0000000A      0x00000286   Section        0  libshutdown2.o(.ARM.Collect$$libshutdown$$0000000A)
    .ARM.Collect$$libshutdown$$0000000C      0x00000286   Section        0  libshutdown2.o(.ARM.Collect$$libshutdown$$0000000C)
    .ARM.Collect$$libshutdown$$0000000F      0x00000286   Section        0  libshutdown2.o(.ARM.Collect$$libshutdown$$0000000F)
    .ARM.Collect$$libshutdown$$00000010      0x00000286   Section        2  libshutdown2.o(.ARM.Collect$$libshutdown$$00000010)
    .ARM.Collect$$rtentry$$00000000          0x00000288   Section        0  __rtentry.o(.ARM.Collect$$rtentry$$00000000)
    .ARM.Collect$$rtentry$$00000002          0x00000288   Section        0  __rtentry2.o(.ARM.Collect$$rtentry$$00000002)
    .ARM.Collect$$rtentry$$00000004          0x00000288   Section        6  __rtentry4.o(.ARM.Collect$$rtentry$$00000004)
    .ARM.Collect$$rtentry$$00000009          0x0000028e   Section        0  __rtentry2.o(.ARM.Collect$$rtentry$$00000009)
    .ARM.Collect$$rtentry$$0000000A          0x0000028e   Section        4  __rtentry2.o(.ARM.Collect$$rtentry$$0000000A)
    .ARM.Collect$$rtentry$$0000000B          0x00000292   Section        8  __rtentry2.o(.ARM.Collect$$rtentry$$0000000B)
    .ARM.Collect$$rtentry$$0000000D          0x0000029a   Section        8  __rtentry2.o(.ARM.Collect$$rtentry$$0000000D)
    .ARM.Collect$$rtexit$$00000000           0x000002a2   Section        2  rtexit.o(.ARM.Collect$$rtexit$$00000000)
    .ARM.Collect$$rtexit$$00000002           0x000002a4   Section        0  rtexit2.o(.ARM.Collect$$rtexit$$00000002)
    .ARM.Collect$$rtexit$$00000003           0x000002a4   Section        4  rtexit2.o(.ARM.Collect$$rtexit$$00000003)
    .ARM.Collect$$rtexit$$00000004           0x000002a8   Section        6  rtexit2.o(.ARM.Collect$$rtexit$$00000004)
    .emb_text                                0x000002b0   Section       28  rtx_conf_cm.o(.emb_text)
    $v0                                      0x000002b0   Number         0  rtx_conf_cm.o(.emb_text)
    .emb_text                                0x000002cc   Section      408  hal_cm4.o(.emb_text)
    $v0                                      0x000002cc   Number         0  hal_cm4.o(.emb_text)
    .emb_text                                0x00000464   Section        0  maybetermalloc1.o(.emb_text)
    .text                                    0x00000464   Section        0  uart_functions.o(.text)
    .text                                    0x000004f8   Section        0  lab4.o(.text)
    .text                                    0x00000720   Section        0  colors.o(.text)
    .text                                    0x00000888   Section        0  graphics.o(.text)
    .text                                    0x00000c7c   Section        0  comunication.o(.text)
    .text                                    0x00000c9c   Section        0  terminal.o(.text)
    .text                                    0x00000e00   Section        0  utils.o(.text)
    .text                                    0x00000ed0   Section        0  cfaf128x128x16.o(.text)
    swap_ui16                                0x00000ed1   Thumb Code    10  cfaf128x128x16.o(.text)
    swap_i32                                 0x00000edb   Thumb Code    10  cfaf128x128x16.o(.text)
    cfaf128x128x16SsiTransfer                0x00000ee5   Thumb Code    46  cfaf128x128x16.o(.text)
    cfaf128x128x16WriteCommand               0x00000f13   Thumb Code    56  cfaf128x128x16.o(.text)
    cfaf128x128x16WriteData                  0x00000f4b   Thumb Code    70  cfaf128x128x16.o(.text)
    cfaf128x128x16WriteRegister              0x00000f91   Thumb Code    16  cfaf128x128x16.o(.text)
    cfaf128x128x16SetWindow                  0x00000fa1   Thumb Code   192  cfaf128x128x16.o(.text)
    cfaf128x128x16PixelDraw                  0x00001101   Thumb Code    10  cfaf128x128x16.o(.text)
    cfaf128x128x16PixelDrawMultiple          0x0000110b   Thumb Code   360  cfaf128x128x16.o(.text)
    cfaf128x128x16LineDrawH                  0x00001273   Thumb Code    46  cfaf128x128x16.o(.text)
    cfaf128x128x16LineDrawV                  0x000012a1   Thumb Code    60  cfaf128x128x16.o(.text)
    cfaf128x128x16RectFill                   0x000012dd   Thumb Code    80  cfaf128x128x16.o(.text)
    cfaf128x128x16ColorTranslate             0x0000132d   Thumb Code    22  cfaf128x128x16.o(.text)
    cfaf128x128x16Flush                      0x00001343   Thumb Code     2  cfaf128x128x16.o(.text)
    .text                                    0x000015cc   Section        0  rgb.o(.text)
    .text                                    0x00001820   Section        0  rtx_conf_cm.o(.text)
    __tagsym$$used                           0x00001867   Number         0  rtx_conf_cm.o(.text)
    __tagsym$$used                           0x0000187d   Number         0  rtx_conf_cm.o(.text)
    .text                                    0x000018ac   Section      304  startup_tm4c129.o(.text)
    $v0                                      0x000018ac   Number         0  startup_tm4c129.o(.text)
    .text                                    0x000019dc   Section        0  system_tm4c129.o(.text)
    .text                                    0x00001a04   Section        8  libspace.o(.text)
    .text                                    0x00001a0c   Section        0  h1_alloc_mt.o(.text)
    Heap1_SizeAdjust                         0x00001a0d   Thumb Code     8  h1_alloc_mt.o(.text)
    .text                                    0x00001aaa   Section      238  lludivv7m.o(.text)
    .text                                    0x00001b98   Section       72  llsdiv.o(.text)
    .text                                    0x00001be0   Section        0  exit.o(.text)
    .text                                    0x00001bf4   Section        0  assert.o(.text)
    .text                                    0x00001c74   Section        0  strcpy.o(.text)
    .text                                    0x00001cbc   Section        0  strlen.o(.text)
    .text                                    0x00001cfa   Section        0  strcat.o(.text)
    .text                                    0x00001d12   Section      100  rt_memcpy_w.o(.text)
    .text                                    0x00001d76   Section        0  heapauxi.o(.text)
    .text                                    0x00001d7c   Section       10  rt_heap_descriptor_twolibspace.o(.text)
    .text                                    0x00001d86   Section        0  hguard.o(.text)
    .text                                    0x00001d8a   Section        0  init_alloc.o(.text)
    .text                                    0x00001e14   Section        0  h1_init_mt.o(.text)
    .text                                    0x00001e26   Section        0  h1_free_mt.o(.text)
    .text                                    0x00001e9c   Section        0  abort.o(.text)
    .text                                    0x00001eb2   Section        0  assert_puts.o(.text)
    .text                                    0x00001ec6   Section        0  sys_wrch.o(.text)
    .text                                    0x00001ed4   Section        0  sys_exit.o(.text)
    .text                                    0x00001ee0   Section        0  h1_extend_mt.o(.text)
    .text                                    0x00001f1e   Section        0  defsig_abrt_outer.o(.text)
    .text                                    0x00001f2c   Section        0  defsig_rtmem_outer.o(.text)
    .text                                    0x00001f3a   Section        2  use_no_semi.o(.text)
    .text                                    0x00001f3c   Section       74  sys_stackheap_outer.o(.text)
    .text                                    0x00001f3c   Section        0  indicate_semi.o(.text)
    .text                                    0x00001f86   Section        0  defsig_exit.o(.text)
    .text                                    0x00001f90   Section        0  defsig_abrt_inner.o(.text)
    .text                                    0x00001fc0   Section        0  defsig_rtmem_inner.o(.text)
    .text                                    0x00002010   Section        0  defsig_general.o(.text)
    SVC_TABLE                                0x00002044   Section        4  svc_table.o(SVC_TABLE)
    i.GPIODirModeSet                         0x00002048   Section        0  gpio.o(i.GPIODirModeSet)
    i.GPIOPadConfigSet                       0x00002070   Section        0  gpio.o(i.GPIOPadConfigSet)
    i.GPIOPinConfigure                       0x000021a8   Section        0  gpio.o(i.GPIOPinConfigure)
    i.GPIOPinTypePWM                         0x000021ec   Section        0  gpio.o(i.GPIOPinTypePWM)
    i.GrContextFontSet                       0x00002208   Section        0  string.o(i.GrContextFontSet)
    i.GrContextInit                          0x00002210   Section        0  context.o(i.GrContextInit)
    i.GrDefaultStringRenderer                0x00002274   Section        0  string.o(i.GrDefaultStringRenderer)
    i.GrFontGlyphDataGet                     0x0000238c   Section        0  string.o(i.GrFontGlyphDataGet)
    i.GrFontGlyphRender                      0x00002432   Section        0  string.o(i.GrFontGlyphRender)
    i.GrMapISO8859_1_Unicode                 0x000026ba   Section        0  charmap.o(i.GrMapISO8859_1_Unicode)
    i.GrRectFill                             0x000026c2   Section        0  rectangle.o(i.GrRectFill)
    i.GrStringDraw                           0x00002776   Section        0  string.o(i.GrStringDraw)
    i.IntEnable                              0x00002798   Section        0  interrupt.o(i.IntEnable)
    i.PWMClockSet                            0x000027fc   Section        0  pwm.o(i.PWMClockSet)
    i.PWMGenConfigure                        0x00002810   Section        0  pwm.o(i.PWMGenConfigure)
    i.PWMGenDisable                          0x00002836   Section        0  pwm.o(i.PWMGenDisable)
    i.PWMGenEnable                           0x00002840   Section        0  pwm.o(i.PWMGenEnable)
    i.PWMGenPeriodGet                        0x0000284a   Section        0  pwm.o(i.PWMGenPeriodGet)
    i.PWMGenPeriodSet                        0x0000285c   Section        0  pwm.o(i.PWMGenPeriodSet)
    i.PWMOutputState                         0x0000286e   Section        0  pwm.o(i.PWMOutputState)
    i.PWMPulseWidthSet                       0x0000287e   Section        0  pwm.o(i.PWMPulseWidthSet)
    i.SysCtlClockFreqSet                     0x000028a0   Section        0  sysctl.o(i.SysCtlClockFreqSet)
    i.SysCtlPeripheralEnable                 0x00002b8c   Section        0  sysctl.o(i.SysCtlPeripheralEnable)
    i.SysCtlPeripheralReady                  0x00002bb4   Section        0  sysctl.o(i.SysCtlPeripheralReady)
    i.UpdateContextCharMapping               0x00002be0   Section        0  string.o(i.UpdateContextCharMapping)
    UpdateContextCharMapping                 0x00002be1   Thumb Code   108  string.o(i.UpdateContextCharMapping)
    i._init_box                              0x00002c4c   Section        0  rt_membox.o(i._init_box)
    i.dbg_init                               0x00002c94   Section        0  hal_cm.o(i.dbg_init)
    i.dbg_task_notify                        0x00002cc4   Section        0  hal_cm.o(i.dbg_task_notify)
    i.dbg_task_switch                        0x00002ce4   Section        0  hal_cm.o(i.dbg_task_switch)
    i.isrMessageGet                          0x00002cf4   Section        0  rt_cmsis.o(i.isrMessageGet)
    i.isrMessagePut                          0x00002d1e   Section        0  rt_cmsis.o(i.isrMessagePut)
    i.isr_mbx_receive                        0x00002d4c   Section        0  rt_mailbox.o(i.isr_mbx_receive)
    i.isr_mbx_send                           0x00002da2   Section        0  rt_mailbox.o(i.isr_mbx_send)
    i.osDelay                                0x00002db0   Section        0  rt_cmsis.o(i.osDelay)
    i.osKernelInitialize                     0x00002dc8   Section        0  rt_cmsis.o(i.osKernelInitialize)
    i.osKernelStart                          0x00002dec   Section        0  rt_cmsis.o(i.osKernelStart)
    i.osMessageCreate                        0x00002e58   Section        0  rt_cmsis.o(i.osMessageCreate)
    i.osMessageGet                           0x00002e84   Section        0  rt_cmsis.o(i.osMessageGet)
    i.osMessagePut                           0x00002e9c   Section        0  rt_cmsis.o(i.osMessagePut)
    i.osThreadCreate                         0x00002eb4   Section        0  rt_cmsis.o(i.osThreadCreate)
    i.osThreadExit                           0x00002ee0   Section        0  rt_cmsis.o(i.osThreadExit)
    i.osTimerCall                            0x00002ef8   Section        0  rt_cmsis.o(i.osTimerCall)
    i.osTimerThread                          0x00002f04   Section        0  rt_cmsis.o(i.osTimerThread)
    i.os_tick_init                           0x00002f30   Section        0  rt_system.o(i.os_tick_init)
    i.os_tick_irqack                         0x00002f58   Section        0  rt_system.o(i.os_tick_irqack)
    i.rt_alloc_box                           0x00002f5a   Section        0  rt_membox.o(i.rt_alloc_box)
    i.rt_alloc_mem                           0x00002f74   Section        0  rt_memory.o(i.rt_alloc_mem)
    i.rt_block                               0x00002fb4   Section        0  rt_task.o(i.rt_block)
    i.rt_chk_robin                           0x00002fec   Section        0  rt_robin.o(i.rt_chk_robin)
    i.rt_dec_dly                             0x00003034   Section        0  rt_list.o(i.rt_dec_dly)
    i.rt_dispatch                            0x000030a4   Section        0  rt_task.o(i.rt_dispatch)
    i.rt_dly_wait                            0x000030e8   Section        0  rt_time.o(i.rt_dly_wait)
    i.rt_evt_psh                             0x000030f0   Section        0  rt_event.o(i.rt_evt_psh)
    i.rt_free_box                            0x00003140   Section        0  rt_membox.o(i.rt_free_box)
    i.rt_free_mem                            0x0000316c   Section        0  rt_memory.o(i.rt_free_mem)
    i.rt_get_first                           0x00003194   Section        0  rt_list.o(i.rt_get_first)
    i.rt_id2obj                              0x000031bc   Section        0  rt_cmsis.o(i.rt_id2obj)
    rt_id2obj                                0x000031bd   Thumb Code     8  rt_cmsis.o(i.rt_id2obj)
    i.rt_init_context                        0x000031c4   Section        0  rt_task.o(i.rt_init_context)
    rt_init_context                          0x000031c5   Thumb Code    66  rt_task.o(i.rt_init_context)
    i.rt_init_mem                            0x0000320c   Section        0  rt_memory.o(i.rt_init_mem)
    i.rt_init_robin                          0x00003228   Section        0  rt_robin.o(i.rt_init_robin)
    i.rt_init_stack                          0x00003240   Section        0  hal_cm.o(i.rt_init_stack)
    i.rt_mbx_check                           0x000032c0   Section        0  rt_mailbox.o(i.rt_mbx_check)
    i.rt_mbx_init                            0x000032c8   Section        0  rt_mailbox.o(i.rt_mbx_init)
    i.rt_mbx_psh                             0x000032e4   Section        0  rt_mailbox.o(i.rt_mbx_psh)
    i.rt_mbx_send                            0x000033d4   Section        0  rt_mailbox.o(i.rt_mbx_send)
    i.rt_mbx_wait                            0x0000346c   Section        0  rt_mailbox.o(i.rt_mbx_wait)
    i.rt_ms2tick                             0x00003520   Section        0  rt_cmsis.o(i.rt_ms2tick)
    rt_ms2tick                               0x00003521   Thumb Code    58  rt_cmsis.o(i.rt_ms2tick)
    i.rt_mut_init                            0x00003564   Section        0  rt_mutex.o(i.rt_mut_init)
    i.rt_mut_release                         0x00003574   Section        0  rt_mutex.o(i.rt_mut_release)
    i.rt_mut_wait                            0x0000364c   Section        0  rt_mutex.o(i.rt_mut_wait)
    i.rt_pop_req                             0x000036c4   Section        0  rt_system.o(i.rt_pop_req)
    i.rt_psh_req                             0x00003740   Section        0  rt_system.o(i.rt_psh_req)
    i.rt_psq_enq                             0x00003760   Section        0  rt_list.o(i.rt_psq_enq)
    i.rt_put_dly                             0x000037bc   Section        0  rt_list.o(i.rt_put_dly)
    i.rt_put_prio                            0x00003804   Section        0  rt_list.o(i.rt_put_prio)
    i.rt_put_rdy_first                       0x0000383c   Section        0  rt_list.o(i.rt_put_rdy_first)
    i.rt_resort_prio                         0x00003850   Section        0  rt_list.o(i.rt_resort_prio)
    i.rt_ret_regs                            0x00003884   Section        0  hal_cm.o(i.rt_ret_regs)
    rt_ret_regs                              0x00003885   Thumb Code    16  hal_cm.o(i.rt_ret_regs)
    i.rt_ret_val                             0x00003894   Section        0  hal_cm.o(i.rt_ret_val)
    i.rt_ret_val2                            0x000038a0   Section        0  hal_cm.o(i.rt_ret_val2)
    i.rt_rmv_dly                             0x000038b0   Section        0  rt_list.o(i.rt_rmv_dly)
    i.rt_rmv_list                            0x000038d8   Section        0  rt_list.o(i.rt_rmv_list)
    i.rt_sem_psh                             0x00003908   Section        0  rt_semaphore.o(i.rt_sem_psh)
    i.rt_stk_check                           0x0000393c   Section        0  rt_system.o(i.rt_stk_check)
    i.rt_switch_req                          0x00003960   Section        0  rt_task.o(i.rt_switch_req)
    i.rt_sys_init                            0x00003988   Section        0  rt_task.o(i.rt_sys_init)
    i.rt_sys_start                           0x00003a54   Section        0  rt_task.o(i.rt_sys_start)
    i.rt_systick                             0x00003acc   Section        0  rt_system.o(i.rt_systick)
    i.rt_tid2ptcb                            0x00003b0c   Section        0  rt_cmsis.o(i.rt_tid2ptcb)
    rt_tid2ptcb                              0x00003b0d   Thumb Code    18  rt_cmsis.o(i.rt_tid2ptcb)
    i.rt_timer_insert                        0x00003b20   Section        0  rt_cmsis.o(i.rt_timer_insert)
    rt_timer_insert                          0x00003b21   Thumb Code    48  rt_cmsis.o(i.rt_timer_insert)
    i.rt_tsk_create                          0x00003b54   Section        0  rt_task.o(i.rt_tsk_create)
    i.rt_tsk_delete                          0x00003bdc   Section        0  rt_task.o(i.rt_tsk_delete)
    i.rt_tsk_prio                            0x00003d58   Section        0  rt_task.o(i.rt_tsk_prio)
    i.rt_tsk_self                            0x00003dd4   Section        0  rt_task.o(i.rt_tsk_self)
    i.svcDelay                               0x00003de4   Section        0  rt_cmsis.o(i.svcDelay)
    i.svcKernelInitialize                    0x00003df8   Section        0  rt_cmsis.o(i.svcKernelInitialize)
    i.svcKernelStart                         0x00003e68   Section        0  rt_cmsis.o(i.svcKernelStart)
    i.svcMessageCreate                       0x00003eb0   Section        0  rt_cmsis.o(i.svcMessageCreate)
    i.svcMessageGet                          0x00003ed4   Section        0  rt_cmsis.o(i.svcMessageGet)
    i.svcMessagePut                          0x00003f0e   Section        0  rt_cmsis.o(i.svcMessagePut)
    i.svcThreadCreate                        0x00003f44   Section        0  rt_cmsis.o(i.svcThreadCreate)
    i.svcThreadGetId                         0x00003fb0   Section        0  rt_cmsis.o(i.svcThreadGetId)
    i.svcThreadTerminate                     0x00003fcc   Section        0  rt_cmsis.o(i.svcThreadTerminate)
    i.svcTimerCall                           0x00004004   Section        0  rt_cmsis.o(i.svcTimerCall)
    i.sysTimerTick                           0x0000401c   Section        0  rt_cmsis.o(i.sysTimerTick)
    x$fpl$fpinit                             0x00004078   Section       10  fpinit.o(x$fpl$fpinit)
    $v0                                      0x00004078   Number         0  fpinit.o(x$fpl$fpinit)
    .constdata                               0x00004084   Section      120  lab4.o(.constdata)
    .constdata                               0x000040fc   Section    11424  colors.o(.constdata)
    .constdata                               0x00006d9c   Section       40  cfaf128x128x16.o(.constdata)
    .constdata                               0x00006dc4   Section        2  rtx_conf_cm.o(.constdata)
    .constdata                               0x00006dc8   Section        4  rtx_conf_cm.o(.constdata)
    .constdata                               0x00006dcc   Section        4  rtx_conf_cm.o(.constdata)
    .constdata                               0x00006dd0   Section        4  rtx_conf_cm.o(.constdata)
    .constdata                               0x00006dd4   Section        1  rtx_conf_cm.o(.constdata)
    .constdata                               0x00006dd8   Section       16  rtx_conf_cm.o(.constdata)
    __tagsym$$used                           0x00006dd8   Number         0  rtx_conf_cm.o(.constdata)
    __tagsym$$used                           0x00006ddc   Number         0  rtx_conf_cm.o(.constdata)
    __tagsym$$used                           0x00006de0   Number         0  rtx_conf_cm.o(.constdata)
    __tagsym$$used                           0x00006de4   Number         0  rtx_conf_cm.o(.constdata)
    .constdata                               0x00006de8   Section        2  rtx_conf_cm.o(.constdata)
    .constdata                               0x00006dec   Section        4  rtx_conf_cm.o(.constdata)
    .constdata                               0x00006df0   Section        4  rtx_conf_cm.o(.constdata)
    .constdata                               0x00006df4   Section        1  rtx_conf_cm.o(.constdata)
    .constdata                               0x00006df8   Section       16  rtx_conf_cm.o(.constdata)
    .constdata                               0x00006e08   Section        8  rtx_conf_cm.o(.constdata)
    .constdata                               0x00006e10   Section        2  rtx_conf_cm.o(.constdata)
    .constdata                               0x00006e14   Section       16  rtx_conf_cm.o(.constdata)
    .constdata                               0x00006e24   Section      552  gpio.o(.constdata)
    g_ppui32GPIOIntMapBlizzard               0x00006e24   Data         192  gpio.o(.constdata)
    g_ppui32GPIOIntMapSnowflake              0x00006ee4   Data         216  gpio.o(.constdata)
    g_pui32GPIOBaseAddrs                     0x00006fbc   Data         144  gpio.o(.constdata)
    .constdata                               0x0000704c   Section      268  interrupt.o(.constdata)
    g_pui32Priority                          0x0000704c   Data          32  interrupt.o(.constdata)
    g_pui32Regs                              0x0000706c   Data         156  interrupt.o(.constdata)
    g_pui32EnRegs                            0x00007108   Data          20  interrupt.o(.constdata)
    g_pui32Dii16Regs                         0x0000711c   Data          20  interrupt.o(.constdata)
    g_pui32PendRegs                          0x00007130   Data          20  interrupt.o(.constdata)
    g_pui32UnpendRegs                        0x00007144   Data          20  interrupt.o(.constdata)
    .constdata                               0x00007158   Section      596  sysctl.o(.constdata)
    g_pui32VCOFrequencies                    0x00007158   Data           8  sysctl.o(.constdata)
    g_pui32Xtals                             0x00007160   Data         108  sysctl.o(.constdata)
    g_pppui32XTALtoVCO                       0x000071cc   Data         432  sysctl.o(.constdata)
    g_sXTALtoMEMTIM                          0x0000737c   Data          48  sysctl.o(.constdata)
    .constdata                               0x000073ac   Section       16  context.o(.constdata)
    .constdata                               0x000073bc   Section      760  fontfixed6x8.o(.constdata)
    g_pui8FontFixed6x8Data                   0x000073bc   Data         760  fontfixed6x8.o(.constdata)
    .constdata                               0x000076b4   Section      200  fontfixed6x8.o(.constdata)
    .conststring                             0x0000777c   Section       37  utils.o(.conststring)
    .data                                    0x20000000   Section       40  lab4.o(.data)
    .data                                    0x20000028   Section        4  utils.o(.data)
    pAscii                                   0x20000028   Data           4  utils.o(.data)
    .data                                    0x2000002c   Section        8  cfaf128x128x16.o(.data)
    _orientation                             0x2000002c   Data           1  cfaf128x128x16.o(.data)
    g_ui32SysClock                           0x20000030   Data           4  cfaf128x128x16.o(.data)
    .data                                    0x20000034   Section        8  rgb.o(.data)
    enabled                                  0x20000034   Data           1  rgb.o(.data)
    enabled                                  0x20000035   Data           1  rgb.o(.data)
    enabled                                  0x20000036   Data           1  rgb.o(.data)
    g_ui32SysClock                           0x20000038   Data           4  rgb.o(.data)
    .data                                    0x2000003c   Section        4  rtx_conf_cm.o(.data)
    .data                                    0x20000040   Section        4  rtx_conf_cm.o(.data)
    .data                                    0x20000044   Section        4  rtx_conf_cm.o(.data)
    .data                                    0x20000048   Section        4  rtx_conf_cm.o(.data)
    nr_mutex                                 0x20000048   Data           4  rtx_conf_cm.o(.data)
    .data                                    0x2000004c   Section        4  system_tm4c129.o(.data)
    .data                                    0x20000050   Section        4  context.o(.data)
    g_psGrLibDefaults                        0x20000050   Data           4  context.o(.data)
    .data                                    0x20000054   Section        8  rt_cmsis.o(.data)
    .data                                    0x2000005c   Section        8  rt_task.o(.data)
    .data                                    0x20000064   Section        8  rt_system.o(.data)
    os_lock                                  0x20000064   Data           1  rt_system.o(.data)
    os_psh_flag                              0x20000065   Data           1  rt_system.o(.data)
    pend_flags                               0x20000066   Data           1  rt_system.o(.data)
    .data                                    0x2000006c   Section        4  rt_time.o(.data)
    .data                                    0x20000070   Section        8  rt_robin.o(.data)
    .data                                    0x20000078   Section        1  hal_cm.o(.data)
    .bss                                     0x2000007c   Section       80  lab4.o(.bss)
    .bss                                     0x200000cc   Section       80  lab4.o(.bss)
    .bss                                     0x2000011c   Section       80  lab4.o(.bss)
    .bss                                     0x2000016c   Section       80  lab4.o(.bss)
    .bss                                     0x200001bc   Section       80  lab4.o(.bss)
    .bss                                     0x2000020c   Section       32  rtx_conf_cm.o(.bss)
    .bss                                     0x2000022c   Section      480  rtx_conf_cm.o(.bss)
    .bss                                     0x20000410   Section     6416  rtx_conf_cm.o(.bss)
    .bss                                     0x20001d20   Section     1032  rtx_conf_cm.o(.bss)
    .bss                                     0x20002128   Section      132  rtx_conf_cm.o(.bss)
    .bss                                     0x200021ac   Section       36  rtx_conf_cm.o(.bss)
    .bss                                     0x200021d0   Section      992  rtx_conf_cm.o(.bss)
    std_libspace                             0x200021d0   Data         864  rtx_conf_cm.o(.bss)
    std_libmutex                             0x20002530   Data         128  rtx_conf_cm.o(.bss)
    .bss                                     0x200025b0   Section       52  rt_task.o(.bss)
    .bss                                     0x200025e4   Section       48  rt_list.o(.bss)
    .bss                                     0x20002614   Section       96  libspace.o(.bss)
    HEAP                                     0x20002678   Section    12288  startup_tm4c129.o(HEAP)
    Heap_Mem                                 0x20002678   Data       12288  startup_tm4c129.o(HEAP)
    STACK                                    0x20005678   Section      512  startup_tm4c129.o(STACK)
    Stack_Mem                                0x20005678   Data         512  startup_tm4c129.o(STACK)
    __initial_sp                             0x20005878   Data           0  startup_tm4c129.o(STACK)

    Global Symbols

    Symbol Name                              Value     Ov Type        Size  Object(Section)

    BuildAttributes$$THM_ISAv4$E$P$D$K$B$S$7EM$VFPi3$EXTD16$VFPS$VFMA$PE$A:L22UL41UL21$X:L11$S22US41US21$IEEE1$IW$USESV6$~STKCKD$USESV7$~SHL$OTIME$ROPI$EBA8$UX$STANDARDLIB$REQ8$PRES8$EABIv2 0x00000000   Number         0  anon$$obj.o ABSOLUTE
    __ARM_use_no_argv                        0x00000000   Number         0  lab4.o ABSOLUTE
    __Vectors                                0x00000000   Data           4  startup_tm4c129.o(RESET)
    __ARM_exceptions_init                     - Undefined Weak Reference
    __alloca_initialize                       - Undefined Weak Reference
    __arm_preinit_                            - Undefined Weak Reference
    __cpp_initialize__aeabi_                  - Undefined Weak Reference
    __cxa_finalize                            - Undefined Weak Reference
    __rt_locale                               - Undefined Weak Reference
    __sigvec_lookup                           - Undefined Weak Reference
    __user_heap_extent                        - Undefined Weak Reference
    _atexit_init                              - Undefined Weak Reference
    _call_atexit_fns                          - Undefined Weak Reference
    _clock_init                               - Undefined Weak Reference
    _fp_trap_init                             - Undefined Weak Reference
    _fp_trap_shutdown                         - Undefined Weak Reference
    _get_lc_collate                           - Undefined Weak Reference
    _get_lc_ctype                             - Undefined Weak Reference
    _get_lc_monetary                          - Undefined Weak Reference
    _get_lc_numeric                           - Undefined Weak Reference
    _get_lc_time                              - Undefined Weak Reference
    _getenv_init                              - Undefined Weak Reference
    _handle_redirection                       - Undefined Weak Reference
    _initio                                   - Undefined Weak Reference
    _mutex_free                               - Undefined Weak Reference
    _rand_init                                - Undefined Weak Reference
    _signal_finish                            - Undefined Weak Reference
    _signal_init                              - Undefined Weak Reference
    _terminateio                              - Undefined Weak Reference
    __Vectors_End                            0x00000200   Data           0  startup_tm4c129.o(RESET)
    __Vectors_Size                           0x00000200   Number         0  startup_tm4c129.o ABSOLUTE
    __main                                   0x00000201   Thumb Code     8  __main.o(!!!main)
    __scatterload                            0x00000209   Thumb Code     0  __scatter.o(!!!scatter)
    __scatterload_rt2                        0x00000209   Thumb Code    44  __scatter.o(!!!scatter)
    __scatterload_rt2_thumb_only             0x00000209   Thumb Code     0  __scatter.o(!!!scatter)
    __scatterload_null                       0x00000217   Thumb Code     0  __scatter.o(!!!scatter)
    __scatterload_copy                       0x0000023d   Thumb Code    26  __scatter_copy.o(!!handler_copy)
    __scatterload_zeroinit                   0x00000259   Thumb Code    28  __scatter_zi.o(!!handler_zi)
    __rt_lib_init                            0x00000275   Thumb Code     0  libinit.o(.ARM.Collect$$libinit$$00000000)
    __rt_lib_init_fp_1                       0x00000277   Thumb Code     0  libinit2.o(.ARM.Collect$$libinit$$00000001)
    __rt_lib_init_heap_2                     0x0000027b   Thumb Code     0  libinit2.o(.ARM.Collect$$libinit$$00000005)
    __rt_lib_init_preinit_1                  0x0000027b   Thumb Code     0  libinit2.o(.ARM.Collect$$libinit$$00000004)
    __rt_lib_init_alloca_1                   0x00000283   Thumb Code     0  libinit2.o(.ARM.Collect$$libinit$$0000002E)
    __rt_lib_init_argv_1                     0x00000283   Thumb Code     0  libinit2.o(.ARM.Collect$$libinit$$0000002C)
    __rt_lib_init_atexit_1                   0x00000283   Thumb Code     0  libinit2.o(.ARM.Collect$$libinit$$0000001B)
    __rt_lib_init_clock_1                    0x00000283   Thumb Code     0  libinit2.o(.ARM.Collect$$libinit$$00000021)
    __rt_lib_init_cpp_1                      0x00000283   Thumb Code     0  libinit2.o(.ARM.Collect$$libinit$$00000032)
    __rt_lib_init_exceptions_1               0x00000283   Thumb Code     0  libinit2.o(.ARM.Collect$$libinit$$00000030)
    __rt_lib_init_fp_trap_1                  0x00000283   Thumb Code     0  libinit2.o(.ARM.Collect$$libinit$$0000001F)
    __rt_lib_init_getenv_1                   0x00000283   Thumb Code     0  libinit2.o(.ARM.Collect$$libinit$$00000023)
    __rt_lib_init_heap_1                     0x00000283   Thumb Code     0  libinit2.o(.ARM.Collect$$libinit$$0000000A)
    __rt_lib_init_lc_collate_1               0x00000283   Thumb Code     0  libinit2.o(.ARM.Collect$$libinit$$00000011)
    __rt_lib_init_lc_ctype_1                 0x00000283   Thumb Code     0  libinit2.o(.ARM.Collect$$libinit$$00000013)
    __rt_lib_init_lc_monetary_1              0x00000283   Thumb Code     0  libinit2.o(.ARM.Collect$$libinit$$00000015)
    __rt_lib_init_lc_numeric_1               0x00000283   Thumb Code     0  libinit2.o(.ARM.Collect$$libinit$$00000017)
    __rt_lib_init_lc_time_1                  0x00000283   Thumb Code     0  libinit2.o(.ARM.Collect$$libinit$$00000019)
    __rt_lib_init_rand_1                     0x00000283   Thumb Code     0  libinit2.o(.ARM.Collect$$libinit$$0000000E)
    __rt_lib_init_return                     0x00000283   Thumb Code     0  libinit2.o(.ARM.Collect$$libinit$$00000033)
    __rt_lib_init_signal_1                   0x00000283   Thumb Code     0  libinit2.o(.ARM.Collect$$libinit$$0000001D)
    __rt_lib_init_stdio_1                    0x00000283   Thumb Code     0  libinit2.o(.ARM.Collect$$libinit$$00000025)
    __rt_lib_init_user_alloc_1               0x00000283   Thumb Code     0  libinit2.o(.ARM.Collect$$libinit$$0000000C)
    __rt_lib_shutdown                        0x00000285   Thumb Code     0  libshutdown.o(.ARM.Collect$$libshutdown$$00000000)
    __rt_lib_shutdown_cpp_1                  0x00000287   Thumb Code     0  libshutdown2.o(.ARM.Collect$$libshutdown$$00000002)
    __rt_lib_shutdown_fp_trap_1              0x00000287   Thumb Code     0  libshutdown2.o(.ARM.Collect$$libshutdown$$00000007)
    __rt_lib_shutdown_heap_1                 0x00000287   Thumb Code     0  libshutdown2.o(.ARM.Collect$$libshutdown$$0000000F)
    __rt_lib_shutdown_return                 0x00000287   Thumb Code     0  libshutdown2.o(.ARM.Collect$$libshutdown$$00000010)
    __rt_lib_shutdown_signal_1               0x00000287   Thumb Code     0  libshutdown2.o(.ARM.Collect$$libshutdown$$0000000A)
    __rt_lib_shutdown_stdio_1                0x00000287   Thumb Code     0  libshutdown2.o(.ARM.Collect$$libshutdown$$00000004)
    __rt_lib_shutdown_user_alloc_1           0x00000287   Thumb Code     0  libshutdown2.o(.ARM.Collect$$libshutdown$$0000000C)
    __rt_entry                               0x00000289   Thumb Code     0  __rtentry.o(.ARM.Collect$$rtentry$$00000000)
    __rt_entry_presh_1                       0x00000289   Thumb Code     0  __rtentry2.o(.ARM.Collect$$rtentry$$00000002)
    __rt_entry_sh                            0x00000289   Thumb Code     0  __rtentry4.o(.ARM.Collect$$rtentry$$00000004)
    __rt_entry_li                            0x0000028f   Thumb Code     0  __rtentry2.o(.ARM.Collect$$rtentry$$0000000A)
    __rt_entry_postsh_1                      0x0000028f   Thumb Code     0  __rtentry2.o(.ARM.Collect$$rtentry$$00000009)
    __rt_entry_postli_1                      0x00000293   Thumb Code     0  __rtentry2.o(.ARM.Collect$$rtentry$$0000000B)
    __rt_entry_main                          0x0000029b   Thumb Code     0  __rtentry2.o(.ARM.Collect$$rtentry$$0000000D)
    __rt_exit                                0x000002a3   Thumb Code     0  rtexit.o(.ARM.Collect$$rtexit$$00000000)
    __rt_exit_ls                             0x000002a5   Thumb Code     0  rtexit2.o(.ARM.Collect$$rtexit$$00000003)
    __rt_exit_prels_1                        0x000002a5   Thumb Code     0  rtexit2.o(.ARM.Collect$$rtexit$$00000002)
    __rt_exit_exit                           0x000002a9   Thumb Code     0  rtexit2.o(.ARM.Collect$$rtexit$$00000004)
    _platform_post_lib_init                  0x000002b1   Thumb Code    24  rtx_conf_cm.o(.emb_text)
    rt_set_PSP                               0x000002cd   Thumb Code     6  hal_cm4.o(.emb_text)
    rt_get_PSP                               0x000002d3   Thumb Code     6  hal_cm4.o(.emb_text)
    os_set_env                               0x000002d9   Thumb Code    24  hal_cm4.o(.emb_text)
    _alloc_box                               0x000002f5   Thumb Code    28  hal_cm4.o(.emb_text)
    _free_box                                0x00000315   Thumb Code    28  hal_cm4.o(.emb_text)
    SVC_Handler                              0x00000335   Thumb Code   168  hal_cm4.o(.emb_text)
    PendSV_Handler                           0x000003ed   Thumb Code    96  hal_cm4.o(.emb_text)
    SysTick_Handler                          0x00000451   Thumb Code     8  hal_cm4.o(.emb_text)
    OS_Tick_Handler                          0x00000459   Thumb Code    12  hal_cm4.o(.emb_text)
    _maybe_terminate_alloc                   0x00000465   Thumb Code     0  maybetermalloc1.o(.emb_text)
    initUART                                 0x00000465   Thumb Code   106  uart_functions.o(.text)
    __RL_RTX_VER                             0x00000482   Number         0  rt_system.o ABSOLUTE
    sendUART                                 0x000004cf   Thumb Code    24  uart_functions.o(.text)
    readUART                                 0x000004e7   Thumb Code     6  uart_functions.o(.text)
    UART                                     0x000004f9   Thumb Code    42  lab4.o(.text)
    handleControls                           0x00000523   Thumb Code    42  lab4.o(.text)
    Menu                                     0x0000054d   Thumb Code   144  lab4.o(.text)
    Red_LED                                  0x000005dd   Thumb Code    42  lab4.o(.text)
    Green_LED                                0x00000607   Thumb Code    42  lab4.o(.text)
    Blue_LED                                 0x00000631   Thumb Code    42  lab4.o(.text)
    UART0_Handler                            0x0000065b   Thumb Code    22  lab4.o(.text)
    main                                     0x00000671   Thumb Code   160  lab4.o(.text)
    loadGroups                               0x00000721   Thumb Code    88  colors.o(.text)
    nextColor                                0x00000779   Thumb Code    58  colors.o(.text)
    previousColor                            0x000007b3   Thumb Code    56  colors.o(.text)
    nextColorGroup                           0x000007eb   Thumb Code    50  colors.o(.text)
    previousColorGroup                       0x0000081d   Thumb Code    48  colors.o(.text)
    initMenu                                 0x00000889   Thumb Code    74  graphics.o(.text)
    nextEntry                                0x000008d3   Thumb Code    34  graphics.o(.text)
    previousEntry                            0x000008f5   Thumb Code    28  graphics.o(.text)
    setColorGroup                            0x00000911   Thumb Code    24  graphics.o(.text)
    setColor                                 0x00000929   Thumb Code    20  graphics.o(.text)
    previousValue                            0x0000093d   Thumb Code    60  graphics.o(.text)
    nextValue                                0x00000979   Thumb Code    60  graphics.o(.text)
    drawConsoleMenu                          0x000009b5   Thumb Code   140  graphics.o(.text)
    drawDisplayMenu                          0x00000a41   Thumb Code   430  graphics.o(.text)
    sendString                               0x00000c7d   Thumb Code    30  comunication.o(.text)
    background_color                         0x00000c9d   Thumb Code   130  terminal.o(.text)
    terminal_clear                           0x00000d1f   Thumb Code    18  terminal.o(.text)
    goto_xy                                  0x00000d31   Thumb Code    90  terminal.o(.text)
    draw_square                              0x00000d8b   Thumb Code    80  terminal.o(.text)
    intToString                              0x00000e01   Thumb Code   202  utils.o(.text)
    cfaf128x128x16Rect                       0x00001061   Thumb Code   100  cfaf128x128x16.o(.text)
    cfaf128x128x16LineVer                    0x000010c5   Thumb Code    22  cfaf128x128x16.o(.text)
    cfaf128x128x16LineHor                    0x000010db   Thumb Code    16  cfaf128x128x16.o(.text)
    cfaf128x128x16Dot                        0x000010eb   Thumb Code    22  cfaf128x128x16.o(.text)
    cfaf128x128x16SetOrientation             0x00001345   Thumb Code    70  cfaf128x128x16.o(.text)
    cfaf128x128x16ClearColor                 0x0000138b   Thumb Code    36  cfaf128x128x16.o(.text)
    cfaf128x128x16Clear                      0x000013af   Thumb Code     4  cfaf128x128x16.o(.text)
    InitSSICom                               0x000013b3   Thumb Code   138  cfaf128x128x16.o(.text)
    cfaf128x128x16Init                       0x0000143d   Thumb Code   322  cfaf128x128x16.o(.text)
    rgb_write_r                              0x000015cd   Thumb Code    82  rgb.o(.text)
    rgb_write_g                              0x0000161f   Thumb Code    82  rgb.o(.text)
    rgb_write_b                              0x00001671   Thumb Code    82  rgb.o(.text)
    rgb_write                                0x000016c3   Thumb Code    24  rgb.o(.text)
    rgb_write_color                          0x000016db   Thumb Code    12  rgb.o(.text)
    rgb_init                                 0x000016e7   Thumb Code   272  rgb.o(.text)
    os_idle_demon                            0x00001821   Thumb Code     2  rtx_conf_cm.o(.text)
    os_error                                 0x00001823   Thumb Code     2  rtx_conf_cm.o(.text)
    __user_perthread_libspace                0x00001825   Thumb Code    32  rtx_conf_cm.o(.text)
    _mutex_initialize                        0x00001845   Thumb Code    34  rtx_conf_cm.o(.text)
    _mutex_acquire                           0x00001867   Thumb Code    22  rtx_conf_cm.o(.text)
    _mutex_release                           0x0000187d   Thumb Code    18  rtx_conf_cm.o(.text)
    Reset_Handler                            0x000018ad   Thumb Code     8  startup_tm4c129.o(.text)
    NMI_Handler                              0x000018b5   Thumb Code     2  startup_tm4c129.o(.text)
    HardFault_Handler                        0x000018b7   Thumb Code     2  startup_tm4c129.o(.text)
    MemManage_Handler                        0x000018b9   Thumb Code     2  startup_tm4c129.o(.text)
    BusFault_Handler                         0x000018bb   Thumb Code     2  startup_tm4c129.o(.text)
    UsageFault_Handler                       0x000018bd   Thumb Code     2  startup_tm4c129.o(.text)
    DebugMon_Handler                         0x000018c1   Thumb Code     2  startup_tm4c129.o(.text)
    GPIOA_Handler                            0x000018c7   Thumb Code     2  startup_tm4c129.o(.text)
    GPIOB_Handler                            0x000018c9   Thumb Code     2  startup_tm4c129.o(.text)
    GPIOC_Handler                            0x000018cb   Thumb Code     2  startup_tm4c129.o(.text)
    GPIOD_Handler                            0x000018cd   Thumb Code     2  startup_tm4c129.o(.text)
    GPIOE_Handler                            0x000018cf   Thumb Code     2  startup_tm4c129.o(.text)
    UART1_Handler                            0x000018d3   Thumb Code     2  startup_tm4c129.o(.text)
    SSI0_Handler                             0x000018d5   Thumb Code     2  startup_tm4c129.o(.text)
    I2C0_Handler                             0x000018d7   Thumb Code     2  startup_tm4c129.o(.text)
    PMW0_FAULT_Handler                       0x000018d9   Thumb Code     2  startup_tm4c129.o(.text)
    PWM0_0_Handler                           0x000018db   Thumb Code     2  startup_tm4c129.o(.text)
    PWM0_1_Handler                           0x000018dd   Thumb Code     2  startup_tm4c129.o(.text)
    PWM0_2_Handler                           0x000018df   Thumb Code     2  startup_tm4c129.o(.text)
    QEI0_Handler                             0x000018e1   Thumb Code     2  startup_tm4c129.o(.text)
    ADC0SS0_Handler                          0x000018e3   Thumb Code     2  startup_tm4c129.o(.text)
    ADC0SS1_Handler                          0x000018e5   Thumb Code     2  startup_tm4c129.o(.text)
    ADC0SS2_Handler                          0x000018e7   Thumb Code     2  startup_tm4c129.o(.text)
    ADC0SS3_Handler                          0x000018e9   Thumb Code     2  startup_tm4c129.o(.text)
    WDT0_Handler                             0x000018eb   Thumb Code     2  startup_tm4c129.o(.text)
    TIMER0A_Handler                          0x000018ed   Thumb Code     2  startup_tm4c129.o(.text)
    TIMER0B_Handler                          0x000018ef   Thumb Code     2  startup_tm4c129.o(.text)
    TIMER1A_Handler                          0x000018f1   Thumb Code     2  startup_tm4c129.o(.text)
    TIMER1B_Handler                          0x000018f3   Thumb Code     2  startup_tm4c129.o(.text)
    TIMER2A_Handler                          0x000018f5   Thumb Code     2  startup_tm4c129.o(.text)
    TIMER2B_Handler                          0x000018f7   Thumb Code     2  startup_tm4c129.o(.text)
    COMP0_Handler                            0x000018f9   Thumb Code     2  startup_tm4c129.o(.text)
    COMP1_Handler                            0x000018fb   Thumb Code     2  startup_tm4c129.o(.text)
    COMP2_Handler                            0x000018fd   Thumb Code     2  startup_tm4c129.o(.text)
    SYSCTL_Handler                           0x000018ff   Thumb Code     2  startup_tm4c129.o(.text)
    FLASH_Handler                            0x00001901   Thumb Code     2  startup_tm4c129.o(.text)
    GPIOF_Handler                            0x00001903   Thumb Code     2  startup_tm4c129.o(.text)
    GPIOG_Handler                            0x00001905   Thumb Code     2  startup_tm4c129.o(.text)
    GPIOH_Handler                            0x00001907   Thumb Code     2  startup_tm4c129.o(.text)
    UART2_Handler                            0x00001909   Thumb Code     2  startup_tm4c129.o(.text)
    SSI1_Handler                             0x0000190b   Thumb Code     2  startup_tm4c129.o(.text)
    TIMER3A_Handler                          0x0000190d   Thumb Code     2  startup_tm4c129.o(.text)
    TIMER3B_Handler                          0x0000190f   Thumb Code     2  startup_tm4c129.o(.text)
    I2C1_Handler                             0x00001911   Thumb Code     2  startup_tm4c129.o(.text)
    CAN0_Handler                             0x00001913   Thumb Code     2  startup_tm4c129.o(.text)
    CAN1_Handler                             0x00001915   Thumb Code     2  startup_tm4c129.o(.text)
    ETH_Handler                              0x00001917   Thumb Code     2  startup_tm4c129.o(.text)
    HIB_Handler                              0x00001919   Thumb Code     2  startup_tm4c129.o(.text)
    USB0_Handler                             0x0000191b   Thumb Code     2  startup_tm4c129.o(.text)
    PWM0_3_Handler                           0x0000191d   Thumb Code     2  startup_tm4c129.o(.text)
    UDMA_Handler                             0x0000191f   Thumb Code     2  startup_tm4c129.o(.text)
    UDMAERR_Handler                          0x00001921   Thumb Code     2  startup_tm4c129.o(.text)
    ADC1SS0_Handler                          0x00001923   Thumb Code     2  startup_tm4c129.o(.text)
    ADC1SS1_Handler                          0x00001925   Thumb Code     2  startup_tm4c129.o(.text)
    ADC1SS2_Handler                          0x00001927   Thumb Code     2  startup_tm4c129.o(.text)
    ADC1SS3_Handler                          0x00001929   Thumb Code     2  startup_tm4c129.o(.text)
    EBI0_Handler                             0x0000192b   Thumb Code     2  startup_tm4c129.o(.text)
    GPIOJ_Handler                            0x0000192d   Thumb Code     2  startup_tm4c129.o(.text)
    GPIOK_Handler                            0x0000192f   Thumb Code     2  startup_tm4c129.o(.text)
    GPIOL_Handler                            0x00001931   Thumb Code     2  startup_tm4c129.o(.text)
    SSI2_Handler                             0x00001933   Thumb Code     2  startup_tm4c129.o(.text)
    SSI3_Handler                             0x00001935   Thumb Code     2  startup_tm4c129.o(.text)
    UART3_Handler                            0x00001937   Thumb Code     2  startup_tm4c129.o(.text)
    UART4_Handler                            0x00001939   Thumb Code     2  startup_tm4c129.o(.text)
    UART5_Handler                            0x0000193b   Thumb Code     2  startup_tm4c129.o(.text)
    UART6_Handler                            0x0000193d   Thumb Code     2  startup_tm4c129.o(.text)
    UART7_Handler                            0x0000193f   Thumb Code     2  startup_tm4c129.o(.text)
    I2C2_Handler                             0x00001941   Thumb Code     2  startup_tm4c129.o(.text)
    I2C3_Handler                             0x00001943   Thumb Code     2  startup_tm4c129.o(.text)
    TIMER4A_Handler                          0x00001945   Thumb Code     2  startup_tm4c129.o(.text)
    TIMER4B_Handler                          0x00001947   Thumb Code     2  startup_tm4c129.o(.text)
    TIMER5A_Handler                          0x00001949   Thumb Code     2  startup_tm4c129.o(.text)
    TIMER5B_Handler                          0x0000194b   Thumb Code     2  startup_tm4c129.o(.text)
    WTIMER0A_Handler                         0x0000194d   Thumb Code     2  startup_tm4c129.o(.text)
    WTIMER0B_Handler                         0x0000194f   Thumb Code     2  startup_tm4c129.o(.text)
    WTIMER1A_Handler                         0x00001951   Thumb Code     2  startup_tm4c129.o(.text)
    WTIMER1B_Handler                         0x00001953   Thumb Code     2  startup_tm4c129.o(.text)
    WTIMER2A_Handler                         0x00001955   Thumb Code     2  startup_tm4c129.o(.text)
    WTIMER2B_Handler                         0x00001957   Thumb Code     2  startup_tm4c129.o(.text)
    WTIMER3A_Handler                         0x00001959   Thumb Code     2  startup_tm4c129.o(.text)
    WTIMER3B_Handler                         0x0000195b   Thumb Code     2  startup_tm4c129.o(.text)
    WTIMER4A_Handler                         0x0000195d   Thumb Code     2  startup_tm4c129.o(.text)
    WTIMER4B_Handler                         0x0000195f   Thumb Code     2  startup_tm4c129.o(.text)
    WTIMER5A_Handler                         0x00001961   Thumb Code     2  startup_tm4c129.o(.text)
    WTIMER5B_Handler                         0x00001963   Thumb Code     2  startup_tm4c129.o(.text)
    FPU_Handler                              0x00001965   Thumb Code     2  startup_tm4c129.o(.text)
    I2C4_Handler                             0x00001967   Thumb Code     2  startup_tm4c129.o(.text)
    I2C5_Handler                             0x00001969   Thumb Code     2  startup_tm4c129.o(.text)
    GPIOM_Handler                            0x0000196b   Thumb Code     2  startup_tm4c129.o(.text)
    GPION_Handler                            0x0000196d   Thumb Code     2  startup_tm4c129.o(.text)
    TAMPER_Handler                           0x0000196f   Thumb Code     2  startup_tm4c129.o(.text)
    GPIOP0_Handler                           0x00001971   Thumb Code     2  startup_tm4c129.o(.text)
    GPIOP1_Handler                           0x00001973   Thumb Code     2  startup_tm4c129.o(.text)
    GPIOP2_Handler                           0x00001975   Thumb Code     2  startup_tm4c129.o(.text)
    GPIOP3_Handler                           0x00001977   Thumb Code     2  startup_tm4c129.o(.text)
    GPIOP4_Handler                           0x00001979   Thumb Code     2  startup_tm4c129.o(.text)
    GPIOP5_Handler                           0x0000197b   Thumb Code     2  startup_tm4c129.o(.text)
    GPIOP6_Handler                           0x0000197d   Thumb Code     2  startup_tm4c129.o(.text)
    GPIOP7_Handler                           0x0000197f   Thumb Code     2  startup_tm4c129.o(.text)
    GPIOQ0_Handler                           0x00001981   Thumb Code     2  startup_tm4c129.o(.text)
    GPIOQ1_Handler                           0x00001983   Thumb Code     2  startup_tm4c129.o(.text)
    GPIOQ2_Handler                           0x00001985   Thumb Code     2  startup_tm4c129.o(.text)
    GPIOQ3_Handler                           0x00001987   Thumb Code     2  startup_tm4c129.o(.text)
    GPIOQ4_Handler                           0x00001989   Thumb Code     2  startup_tm4c129.o(.text)
    GPIOQ5_Handler                           0x0000198b   Thumb Code     2  startup_tm4c129.o(.text)
    GPIOQ6_Handler                           0x0000198d   Thumb Code     2  startup_tm4c129.o(.text)
    GPIOQ7_Handler                           0x0000198f   Thumb Code     2  startup_tm4c129.o(.text)
    GPIOR_Handler                            0x00001991   Thumb Code     2  startup_tm4c129.o(.text)
    GPIOS_Handler                            0x00001993   Thumb Code     2  startup_tm4c129.o(.text)
    SHAMD5_Handler                           0x00001995   Thumb Code     2  startup_tm4c129.o(.text)
    AES_Handler                              0x00001997   Thumb Code     2  startup_tm4c129.o(.text)
    DES3DES_Handler                          0x00001999   Thumb Code     2  startup_tm4c129.o(.text)
    LCDCONTROLLER_Handler                    0x0000199b   Thumb Code     2  startup_tm4c129.o(.text)
    TIMER6A_Handler                          0x0000199d   Thumb Code     2  startup_tm4c129.o(.text)
    TIMER6B_Handler                          0x0000199f   Thumb Code     2  startup_tm4c129.o(.text)
    TIMER7A_Handler                          0x000019a1   Thumb Code     2  startup_tm4c129.o(.text)
    TIMER7B_Handler                          0x000019a3   Thumb Code     2  startup_tm4c129.o(.text)
    I2C6_Handler                             0x000019a5   Thumb Code     2  startup_tm4c129.o(.text)
    I2C7_Handler                             0x000019a7   Thumb Code     2  startup_tm4c129.o(.text)
    HIMSCANKEYBOARD_Handler                  0x000019a9   Thumb Code     2  startup_tm4c129.o(.text)
    ONEWIRE_Handler                          0x000019ab   Thumb Code     2  startup_tm4c129.o(.text)
    HIMPS2_Handler                           0x000019ad   Thumb Code     2  startup_tm4c129.o(.text)
    HIMLEDSEQUENCER_Handler                  0x000019af   Thumb Code     2  startup_tm4c129.o(.text)
    HIMCONSUMERIR_Handler                    0x000019b1   Thumb Code     2  startup_tm4c129.o(.text)
    I2C8_Handler                             0x000019b3   Thumb Code     2  startup_tm4c129.o(.text)
    I2C9_Handler                             0x000019b5   Thumb Code     2  startup_tm4c129.o(.text)
    GPIOT_Handler                            0x000019b7   Thumb Code     2  startup_tm4c129.o(.text)
    __user_initial_stackheap                 0x000019b9   Thumb Code     0  startup_tm4c129.o(.text)
    SystemCoreClockUpdate                    0x000019dd   Thumb Code     8  system_tm4c129.o(.text)
    SystemInit                               0x000019e5   Thumb Code    18  system_tm4c129.o(.text)
    __user_libspace                          0x00001a05   Thumb Code     8  libspace.o(.text)
    __user_perproc_libspace                  0x00001a05   Thumb Code     0  libspace.o(.text)
    _malloc_internal                         0x00001a15   Thumb Code   130  h1_alloc_mt.o(.text)
    malloc                                   0x00001a97   Thumb Code    20  h1_alloc_mt.o(.text)
    __aeabi_uldivmod                         0x00001aab   Thumb Code     0  lludivv7m.o(.text)
    _ll_udiv                                 0x00001aab   Thumb Code   238  lludivv7m.o(.text)
    __aeabi_ldivmod                          0x00001b99   Thumb Code     0  llsdiv.o(.text)
    _ll_sdiv                                 0x00001b99   Thumb Code    72  llsdiv.o(.text)
    exit                                     0x00001be1   Thumb Code    18  exit.o(.text)
    __aeabi_assert                           0x00001bf5   Thumb Code    86  assert.o(.text)
    __assert                                 0x00001bf5   Thumb Code     0  assert.o(.text)
    strcpy                                   0x00001c75   Thumb Code    72  strcpy.o(.text)
    strlen                                   0x00001cbd   Thumb Code    62  strlen.o(.text)
    strcat                                   0x00001cfb   Thumb Code    24  strcat.o(.text)
    __aeabi_memcpy4                          0x00001d13   Thumb Code     0  rt_memcpy_w.o(.text)
    __aeabi_memcpy8                          0x00001d13   Thumb Code     0  rt_memcpy_w.o(.text)
    __rt_memcpy_w                            0x00001d13   Thumb Code   100  rt_memcpy_w.o(.text)
    _memcpy_lastbytes_aligned                0x00001d5b   Thumb Code     0  rt_memcpy_w.o(.text)
    __use_two_region_memory                  0x00001d77   Thumb Code     2  heapauxi.o(.text)
    __rt_heap_escrow                         0x00001d79   Thumb Code     2  heapauxi.o(.text)
    __rt_heap_expand                         0x00001d7b   Thumb Code     2  heapauxi.o(.text)
    __rt_heap_descriptor                     0x00001d7d   Thumb Code    10  rt_heap_descriptor_twolibspace.o(.text)
    __use_no_heap                            0x00001d87   Thumb Code     2  hguard.o(.text)
    __heap$guard                             0x00001d89   Thumb Code     2  hguard.o(.text)
    _terminate_user_alloc                    0x00001d8b   Thumb Code     2  init_alloc.o(.text)
    _init_user_alloc                         0x00001d8d   Thumb Code     2  init_alloc.o(.text)
    __Heap_Full                              0x00001d8f   Thumb Code    34  init_alloc.o(.text)
    __Heap_Broken                            0x00001db1   Thumb Code     6  init_alloc.o(.text)
    _init_alloc                              0x00001db7   Thumb Code    94  init_alloc.o(.text)
    __Heap_Initialize                        0x00001e15   Thumb Code    14  h1_init_mt.o(.text)
    __Heap_DescSize                          0x00001e23   Thumb Code     4  h1_init_mt.o(.text)
    _free_internal                           0x00001e27   Thumb Code    98  h1_free_mt.o(.text)
    free                                     0x00001e89   Thumb Code    20  h1_free_mt.o(.text)
    abort                                    0x00001e9d   Thumb Code    22  abort.o(.text)
    __assert_puts                            0x00001eb3   Thumb Code    20  assert_puts.o(.text)
    _ttywrch                                 0x00001ec7   Thumb Code    14  sys_wrch.o(.text)
    _sys_exit                                0x00001ed5   Thumb Code     8  sys_exit.o(.text)
    __Heap_ProvideMemory                     0x00001ee1   Thumb Code    62  h1_extend_mt.o(.text)
    __rt_SIGABRT                             0x00001f1f   Thumb Code    14  defsig_abrt_outer.o(.text)
    __rt_SIGRTMEM                            0x00001f2d   Thumb Code    14  defsig_rtmem_outer.o(.text)
    __I$use$semihosting                      0x00001f3b   Thumb Code     0  use_no_semi.o(.text)
    __use_no_semihosting_swi                 0x00001f3b   Thumb Code     2  use_no_semi.o(.text)
    __semihosting_library_function           0x00001f3d   Thumb Code     0  indicate_semi.o(.text)
    __user_setup_stackheap                   0x00001f3d   Thumb Code    74  sys_stackheap_outer.o(.text)
    __sig_exit                               0x00001f87   Thumb Code    10  defsig_exit.o(.text)
    __rt_SIGABRT_inner                       0x00001f91   Thumb Code    14  defsig_abrt_inner.o(.text)
    __rt_SIGRTMEM_inner                      0x00001fc1   Thumb Code    22  defsig_rtmem_inner.o(.text)
    __default_signal_display                 0x00002011   Thumb Code    50  defsig_general.o(.text)
    SVC_Count                                0x00002044   Data           4  svc_table.o(SVC_TABLE)
    GPIODirModeSet                           0x00002049   Thumb Code    40  gpio.o(i.GPIODirModeSet)
    SVC_Table                                0x00002048   Data           0  svc_table.o(SVC_TABLE)
    GPIOPadConfigSet                         0x00002071   Thumb Code   312  gpio.o(i.GPIOPadConfigSet)
    GPIOPinConfigure                         0x000021a9   Thumb Code    60  gpio.o(i.GPIOPinConfigure)
    GPIOPinTypePWM                           0x000021ed   Thumb Code    28  gpio.o(i.GPIOPinTypePWM)
    GrContextFontSet                         0x00002209   Thumb Code     6  string.o(i.GrContextFontSet)
    GrContextInit                            0x00002211   Thumb Code    88  context.o(i.GrContextInit)
    GrDefaultStringRenderer                  0x00002275   Thumb Code   280  string.o(i.GrDefaultStringRenderer)
    GrFontGlyphDataGet                       0x0000238d   Thumb Code   166  string.o(i.GrFontGlyphDataGet)
    GrFontGlyphRender                        0x00002433   Thumb Code   648  string.o(i.GrFontGlyphRender)
    GrMapISO8859_1_Unicode                   0x000026bb   Thumb Code     8  charmap.o(i.GrMapISO8859_1_Unicode)
    GrRectFill                               0x000026c3   Thumb Code   180  rectangle.o(i.GrRectFill)
    GrStringDraw                             0x00002777   Thumb Code    32  string.o(i.GrStringDraw)
    IntEnable                                0x00002799   Thumb Code    92  interrupt.o(i.IntEnable)
    PWMClockSet                              0x000027fd   Thumb Code    20  pwm.o(i.PWMClockSet)
    PWMGenConfigure                          0x00002811   Thumb Code    38  pwm.o(i.PWMGenConfigure)
    PWMGenDisable                            0x00002837   Thumb Code    10  pwm.o(i.PWMGenDisable)
    PWMGenEnable                             0x00002841   Thumb Code    10  pwm.o(i.PWMGenEnable)
    PWMGenPeriodGet                          0x0000284b   Thumb Code    18  pwm.o(i.PWMGenPeriodGet)
    PWMGenPeriodSet                          0x0000285d   Thumb Code    18  pwm.o(i.PWMGenPeriodSet)
    PWMOutputState                           0x0000286f   Thumb Code    16  pwm.o(i.PWMOutputState)
    PWMPulseWidthSet                         0x0000287f   Thumb Code    32  pwm.o(i.PWMPulseWidthSet)
    SysCtlClockFreqSet                       0x000028a1   Thumb Code   706  sysctl.o(i.SysCtlClockFreqSet)
    SysCtlPeripheralEnable                   0x00002b8d   Thumb Code    36  sysctl.o(i.SysCtlPeripheralEnable)
    SysCtlPeripheralReady                    0x00002bb5   Thumb Code    40  sysctl.o(i.SysCtlPeripheralReady)
    _init_box                                0x00002c4d   Thumb Code    70  rt_membox.o(i._init_box)
    dbg_init                                 0x00002c95   Thumb Code    34  hal_cm.o(i.dbg_init)
    dbg_task_notify                          0x00002cc5   Thumb Code    32  hal_cm.o(i.dbg_task_notify)
    dbg_task_switch                          0x00002ce5   Thumb Code    16  hal_cm.o(i.dbg_task_switch)
    isrMessageGet                            0x00002cf5   Thumb Code    42  rt_cmsis.o(i.isrMessageGet)
    isrMessagePut                            0x00002d1f   Thumb Code    44  rt_cmsis.o(i.isrMessagePut)
    isr_mbx_receive                          0x00002d4d   Thumb Code    86  rt_mailbox.o(i.isr_mbx_receive)
    isr_mbx_send                             0x00002da3   Thumb Code    14  rt_mailbox.o(i.isr_mbx_send)
    osDelay                                  0x00002db1   Thumb Code    18  rt_cmsis.o(i.osDelay)
    osKernelInitialize                       0x00002dc9   Thumb Code    30  rt_cmsis.o(i.osKernelInitialize)
    osKernelStart                            0x00002ded   Thumb Code    98  rt_cmsis.o(i.osKernelStart)
    osMessageCreate                          0x00002e59   Thumb Code    36  rt_cmsis.o(i.osMessageCreate)
    osMessageGet                             0x00002e85   Thumb Code    18  rt_cmsis.o(i.osMessageGet)
    osMessagePut                             0x00002e9d   Thumb Code    18  rt_cmsis.o(i.osMessagePut)
    osThreadCreate                           0x00002eb5   Thumb Code    36  rt_cmsis.o(i.osThreadCreate)
    osThreadExit                             0x00002ee1   Thumb Code    14  rt_cmsis.o(i.osThreadExit)
    osTimerCall                              0x00002ef9   Thumb Code     8  rt_cmsis.o(i.osTimerCall)
    osTimerThread                            0x00002f05   Thumb Code    38  rt_cmsis.o(i.osTimerThread)
    os_tick_init                             0x00002f31   Thumb Code    32  rt_system.o(i.os_tick_init)
    os_tick_irqack                           0x00002f59   Thumb Code     2  rt_system.o(i.os_tick_irqack)
    rt_alloc_box                             0x00002f5b   Thumb Code    26  rt_membox.o(i.rt_alloc_box)
    rt_alloc_mem                             0x00002f75   Thumb Code    62  rt_memory.o(i.rt_alloc_mem)
    rt_block                                 0x00002fb5   Thumb Code    48  rt_task.o(i.rt_block)
    rt_chk_robin                             0x00002fed   Thumb Code    60  rt_robin.o(i.rt_chk_robin)
    rt_dec_dly                               0x00003035   Thumb Code   102  rt_list.o(i.rt_dec_dly)
    rt_dispatch                              0x000030a5   Thumb Code    60  rt_task.o(i.rt_dispatch)
    rt_dly_wait                              0x000030e9   Thumb Code     6  rt_time.o(i.rt_dly_wait)
    rt_evt_psh                               0x000030f1   Thumb Code    76  rt_event.o(i.rt_evt_psh)
    rt_free_box                              0x00003141   Thumb Code    44  rt_membox.o(i.rt_free_box)
    rt_free_mem                              0x0000316d   Thumb Code    40  rt_memory.o(i.rt_free_mem)
    rt_get_first                             0x00003195   Thumb Code    40  rt_list.o(i.rt_get_first)
    rt_init_mem                              0x0000320d   Thumb Code    26  rt_memory.o(i.rt_init_mem)
    rt_init_robin                            0x00003229   Thumb Code    14  rt_robin.o(i.rt_init_robin)
    rt_init_stack                            0x00003241   Thumb Code   118  hal_cm.o(i.rt_init_stack)
    rt_mbx_check                             0x000032c1   Thumb Code     8  rt_mailbox.o(i.rt_mbx_check)
    rt_mbx_init                              0x000032c9   Thumb Code    26  rt_mailbox.o(i.rt_mbx_init)
    rt_mbx_psh                               0x000032e5   Thumb Code   236  rt_mailbox.o(i.rt_mbx_psh)
    rt_mbx_send                              0x000033d5   Thumb Code   148  rt_mailbox.o(i.rt_mbx_send)
    rt_mbx_wait                              0x0000346d   Thumb Code   174  rt_mailbox.o(i.rt_mbx_wait)
    rt_mut_init                              0x00003565   Thumb Code    16  rt_mutex.o(i.rt_mut_init)
    rt_mut_release                           0x00003575   Thumb Code   208  rt_mutex.o(i.rt_mut_release)
    rt_mut_wait                              0x0000364d   Thumb Code   114  rt_mutex.o(i.rt_mut_wait)
    rt_pop_req                               0x000036c5   Thumb Code   112  rt_system.o(i.rt_pop_req)
    rt_psh_req                               0x00003741   Thumb Code    22  rt_system.o(i.rt_psh_req)
    rt_psq_enq                               0x00003761   Thumb Code    88  rt_list.o(i.rt_psq_enq)
    rt_put_dly                               0x000037bd   Thumb Code    68  rt_list.o(i.rt_put_dly)
    rt_put_prio                              0x00003805   Thumb Code    54  rt_list.o(i.rt_put_prio)
    rt_put_rdy_first                         0x0000383d   Thumb Code    14  rt_list.o(i.rt_put_rdy_first)
    rt_resort_prio                           0x00003851   Thumb Code    46  rt_list.o(i.rt_resort_prio)
    rt_ret_val                               0x00003895   Thumb Code    12  hal_cm.o(i.rt_ret_val)
    rt_ret_val2                              0x000038a1   Thumb Code    16  hal_cm.o(i.rt_ret_val2)
    rt_rmv_dly                               0x000038b1   Thumb Code    40  rt_list.o(i.rt_rmv_dly)
    rt_rmv_list                              0x000038d9   Thumb Code    44  rt_list.o(i.rt_rmv_list)
    rt_sem_psh                               0x00003909   Thumb Code    48  rt_semaphore.o(i.rt_sem_psh)
    rt_stk_check                             0x0000393d   Thumb Code    28  rt_system.o(i.rt_stk_check)
    rt_switch_req                            0x00003961   Thumb Code    30  rt_task.o(i.rt_switch_req)
    rt_sys_init                              0x00003989   Thumb Code   138  rt_task.o(i.rt_sys_init)
    rt_sys_start                             0x00003a55   Thumb Code   110  rt_task.o(i.rt_sys_start)
    rt_systick                               0x00003acd   Thumb Code    50  rt_system.o(i.rt_systick)
    rt_tsk_create                            0x00003b55   Thumb Code   118  rt_task.o(i.rt_tsk_create)
    rt_tsk_delete                            0x00003bdd   Thumb Code   352  rt_task.o(i.rt_tsk_delete)
    rt_tsk_prio                              0x00003d59   Thumb Code   108  rt_task.o(i.rt_tsk_prio)
    rt_tsk_self                              0x00003dd5   Thumb Code    12  rt_task.o(i.rt_tsk_self)
    svcDelay                                 0x00003de5   Thumb Code    18  rt_cmsis.o(i.svcDelay)
    svcKernelInitialize                      0x00003df9   Thumb Code    80  rt_cmsis.o(i.svcKernelInitialize)
    svcKernelStart                           0x00003e69   Thumb Code    62  rt_cmsis.o(i.svcKernelStart)
    svcMessageCreate                         0x00003eb1   Thumb Code    36  rt_cmsis.o(i.svcMessageCreate)
    svcMessageGet                            0x00003ed5   Thumb Code    58  rt_cmsis.o(i.svcMessageGet)
    svcMessagePut                            0x00003f0f   Thumb Code    54  rt_cmsis.o(i.svcMessagePut)
    svcThreadCreate                          0x00003f45   Thumb Code    96  rt_cmsis.o(i.svcThreadCreate)
    svcThreadGetId                           0x00003fb1   Thumb Code    22  rt_cmsis.o(i.svcThreadGetId)
    svcThreadTerminate                       0x00003fcd   Thumb Code    50  rt_cmsis.o(i.svcThreadTerminate)
    svcTimerCall                             0x00004005   Thumb Code    24  rt_cmsis.o(i.svcTimerCall)
    sysTimerTick                             0x0000401d   Thumb Code    84  rt_cmsis.o(i.sysTimerTick)
    _fp_init                                 0x00004079   Thumb Code    10  fpinit.o(x$fpl$fpinit)
    __fplib_config_fpu_vfp                   0x00004081   Thumb Code     0  fpinit.o(x$fpl$fpinit)
    __fplib_config_pureend_doubles           0x00004081   Thumb Code     0  fpinit.o(x$fpl$fpinit)
    os_messageQ_def_UARTMsgBox               0x00004084   Data           8  lab4.o(.constdata)
    os_messageQ_def_MenuMsgBox               0x0000408c   Data           8  lab4.o(.constdata)
    os_messageQ_def_RedLEDMsgBox             0x00004094   Data           8  lab4.o(.constdata)
    os_messageQ_def_GreenLEDMsgBox           0x0000409c   Data           8  lab4.o(.constdata)
    os_messageQ_def_BlueLEDMsgBox            0x000040a4   Data           8  lab4.o(.constdata)
    os_thread_def_UART                       0x000040ac   Data          16  lab4.o(.constdata)
    os_thread_def_Menu                       0x000040bc   Data          16  lab4.o(.constdata)
    os_thread_def_Green_LED                  0x000040cc   Data          16  lab4.o(.constdata)
    os_thread_def_Red_LED                    0x000040dc   Data          16  lab4.o(.constdata)
    os_thread_def_Blue_LED                   0x000040ec   Data          16  lab4.o(.constdata)
    blue_group_colors                        0x000040fc   Data        2856  colors.o(.constdata)
    brown_group_colors                       0x00004c24   Data        2856  colors.o(.constdata)
    purple_group_colors                      0x0000574c   Data        2856  colors.o(.constdata)
    red_group_colors                         0x00006274   Data        2856  colors.o(.constdata)
    g_sCfaf128x128x16                        0x00006d9c   Data          40  cfaf128x128x16.o(.constdata)
    os_maxtaskrun                            0x00006dc4   Data           2  rtx_conf_cm.o(.constdata)
    os_stackinfo                             0x00006dc8   Data           4  rtx_conf_cm.o(.constdata)
    os_rrobin                                0x00006dcc   Data           4  rtx_conf_cm.o(.constdata)
    os_trv                                   0x00006dd0   Data           4  rtx_conf_cm.o(.constdata)
    os_flags                                 0x00006dd4   Data           1  rtx_conf_cm.o(.constdata)
    CMSIS_RTOS_API_Version                   0x00006dd8   Data           4  rtx_conf_cm.o(.constdata)
    CMSIS_RTOS_RTX_Version                   0x00006ddc   Data           4  rtx_conf_cm.o(.constdata)
    os_clockrate                             0x00006de0   Data           4  rtx_conf_cm.o(.constdata)
    os_timernum                              0x00006de4   Data           4  rtx_conf_cm.o(.constdata)
    mp_tcb_size                              0x00006de8   Data           2  rtx_conf_cm.o(.constdata)
    mp_stk_size                              0x00006dec   Data           4  rtx_conf_cm.o(.constdata)
    os_stack_sz                              0x00006df0   Data           4  rtx_conf_cm.o(.constdata)
    os_fifo_size                             0x00006df4   Data           1  rtx_conf_cm.o(.constdata)
    os_thread_def_osTimerThread              0x00006df8   Data          16  rtx_conf_cm.o(.constdata)
    os_messageQ_def_osTimerMessageQ          0x00006e08   Data           8  rtx_conf_cm.o(.constdata)
    mp_tmr_size                              0x00006e10   Data           2  rtx_conf_cm.o(.constdata)
    os_thread_def_main                       0x00006e14   Data          16  rtx_conf_cm.o(.constdata)
    g_psDefaultCodePointMapTable             0x000073ac   Data          16  context.o(.constdata)
    g_sFontFixed6x8                          0x000076b4   Data         200  fontfixed6x8.o(.constdata)
    Region$$Table$$Base                      0x000077a4   Number         0  anon$$obj.o(Region$$Table)
    Region$$Table$$Limit                     0x000077c4   Number         0  anon$$obj.o(Region$$Table)
    UART_id                                  0x20000000   Data           4  lab4.o(.data)
    Menu_id                                  0x20000004   Data           4  lab4.o(.data)
    Green_LED_id                             0x20000008   Data           4  lab4.o(.data)
    Red_LED_id                               0x2000000c   Data           4  lab4.o(.data)
    Blue_LED_id                              0x20000010   Data           4  lab4.o(.data)
    UARTMsgBox_id                            0x20000014   Data           4  lab4.o(.data)
    MenuMsgBox_id                            0x20000018   Data           4  lab4.o(.data)
    RedLEDMsgBox_id                          0x2000001c   Data           4  lab4.o(.data)
    GreenLEDMsgBox_id                        0x20000020   Data           4  lab4.o(.data)
    BlueLEDMsgBox_id                         0x20000024   Data           4  lab4.o(.data)
    m_tmr                                    0x2000003c   Data           4  rtx_conf_cm.o(.data)
    osThreadId_osTimerThread                 0x20000040   Data           4  rtx_conf_cm.o(.data)
    osMessageQId_osTimerMessageQ             0x20000044   Data           4  rtx_conf_cm.o(.data)
    SystemCoreClock                          0x2000004c   Data           4  system_tm4c129.o(.data)
    os_initialized                           0x20000054   Data           1  rt_cmsis.o(.data)
    os_running                               0x20000055   Data           1  rt_cmsis.o(.data)
    os_timer_head                            0x20000058   Data           4  rt_cmsis.o(.data)
    os_tsk                                   0x2000005c   Data           8  rt_task.o(.data)
    os_tick_irqn                             0x20000068   Data           4  rt_system.o(.data)
    os_time                                  0x2000006c   Data           4  rt_time.o(.data)
    os_robin                                 0x20000070   Data           8  rt_robin.o(.data)
    dbg_msg                                  0x20000078   Data           1  hal_cm.o(.data)
    os_messageQ_q_UARTMsgBox                 0x2000007c   Data          80  lab4.o(.bss)
    os_messageQ_q_MenuMsgBox                 0x200000cc   Data          80  lab4.o(.bss)
    os_messageQ_q_RedLEDMsgBox               0x2000011c   Data          80  lab4.o(.bss)
    os_messageQ_q_GreenLEDMsgBox             0x2000016c   Data          80  lab4.o(.bss)
    os_messageQ_q_BlueLEDMsgBox              0x200001bc   Data          80  lab4.o(.bss)
    os_messageQ_q_osTimerMessageQ            0x2000020c   Data          32  rtx_conf_cm.o(.bss)
    mp_tcb                                   0x2000022c   Data         480  rtx_conf_cm.o(.bss)
    mp_stk                                   0x20000410   Data        6416  rtx_conf_cm.o(.bss)
    os_stack_mem                             0x20001d20   Data        1032  rtx_conf_cm.o(.bss)
    os_fifo                                  0x20002128   Data         132  rtx_conf_cm.o(.bss)
    os_active_TCB                            0x200021ac   Data          36  rtx_conf_cm.o(.bss)
    os_idle_TCB                              0x200025b0   Data          52  rt_task.o(.bss)
    os_rdy                                   0x200025e4   Data          24  rt_list.o(.bss)
    os_dly                                   0x200025fc   Data          24  rt_list.o(.bss)
    __libspace_start                         0x20002614   Data          96  libspace.o(.bss)
    __temporary_stack_top$libspace           0x20002674   Data           0  libspace.o(.bss)



==============================================================================

Memory Map of the image

  Image Entry point : 0x00000201

  Load Region LR_IROM1 (Base: 0x00000000, Size: 0x00007840, Max: 0x00100000, ABSOLUTE)

    Execution Region ER_IROM1 (Exec base: 0x00000000, Load base: 0x00000000, Size: 0x000077c4, Max: 0x00100000, ABSOLUTE)

    Exec Addr    Load Addr    Size         Type   Attr      Idx    E Section Name        Object

    0x00000000   0x00000000   0x00000200   Data   RO          590    RESET               startup_tm4c129.o
    0x00000200   0x00000200   0x00000008   Code   RO         4176  * !!!main             c_w.l(__main.o)
    0x00000208   0x00000208   0x00000034   Code   RO         4395    !!!scatter          c_w.l(__scatter.o)
    0x0000023c   0x0000023c   0x0000001a   Code   RO         4397    !!handler_copy      c_w.l(__scatter_copy.o)
    0x00000256   0x00000256   0x00000002   PAD
    0x00000258   0x00000258   0x0000001c   Code   RO         4399    !!handler_zi        c_w.l(__scatter_zi.o)
    0x00000274   0x00000274   0x00000002   Code   RO         4351    .ARM.Collect$$libinit$$00000000  c_w.l(libinit.o)
    0x00000276   0x00000276   0x00000004   Code   RO         4224    .ARM.Collect$$libinit$$00000001  c_w.l(libinit2.o)
    0x0000027a   0x0000027a   0x00000000   Code   RO         4227    .ARM.Collect$$libinit$$00000004  c_w.l(libinit2.o)
    0x0000027a   0x0000027a   0x00000008   Code   RO         4228    .ARM.Collect$$libinit$$00000005  c_w.l(libinit2.o)
    0x00000282   0x00000282   0x00000000   Code   RO         4230    .ARM.Collect$$libinit$$0000000A  c_w.l(libinit2.o)
    0x00000282   0x00000282   0x00000000   Code   RO         4232    .ARM.Collect$$libinit$$0000000C  c_w.l(libinit2.o)
    0x00000282   0x00000282   0x00000000   Code   RO         4234    .ARM.Collect$$libinit$$0000000E  c_w.l(libinit2.o)
    0x00000282   0x00000282   0x00000000   Code   RO         4237    .ARM.Collect$$libinit$$00000011  c_w.l(libinit2.o)
    0x00000282   0x00000282   0x00000000   Code   RO         4239    .ARM.Collect$$libinit$$00000013  c_w.l(libinit2.o)
    0x00000282   0x00000282   0x00000000   Code   RO         4241    .ARM.Collect$$libinit$$00000015  c_w.l(libinit2.o)
    0x00000282   0x00000282   0x00000000   Code   RO         4243    .ARM.Collect$$libinit$$00000017  c_w.l(libinit2.o)
    0x00000282   0x00000282   0x00000000   Code   RO         4245    .ARM.Collect$$libinit$$00000019  c_w.l(libinit2.o)
    0x00000282   0x00000282   0x00000000   Code   RO         4247    .ARM.Collect$$libinit$$0000001B  c_w.l(libinit2.o)
    0x00000282   0x00000282   0x00000000   Code   RO         4249    .ARM.Collect$$libinit$$0000001D  c_w.l(libinit2.o)
    0x00000282   0x00000282   0x00000000   Code   RO         4251    .ARM.Collect$$libinit$$0000001F  c_w.l(libinit2.o)
    0x00000282   0x00000282   0x00000000   Code   RO         4253    .ARM.Collect$$libinit$$00000021  c_w.l(libinit2.o)
    0x00000282   0x00000282   0x00000000   Code   RO         4255    .ARM.Collect$$libinit$$00000023  c_w.l(libinit2.o)
    0x00000282   0x00000282   0x00000000   Code   RO         4257    .ARM.Collect$$libinit$$00000025  c_w.l(libinit2.o)
    0x00000282   0x00000282   0x00000000   Code   RO         4261    .ARM.Collect$$libinit$$0000002C  c_w.l(libinit2.o)
    0x00000282   0x00000282   0x00000000   Code   RO         4263    .ARM.Collect$$libinit$$0000002E  c_w.l(libinit2.o)
    0x00000282   0x00000282   0x00000000   Code   RO         4265    .ARM.Collect$$libinit$$00000030  c_w.l(libinit2.o)
    0x00000282   0x00000282   0x00000000   Code   RO         4267    .ARM.Collect$$libinit$$00000032  c_w.l(libinit2.o)
    0x00000282   0x00000282   0x00000002   Code   RO         4268    .ARM.Collect$$libinit$$00000033  c_w.l(libinit2.o)
    0x00000284   0x00000284   0x00000002   Code   RO         4352    .ARM.Collect$$libshutdown$$00000000  c_w.l(libshutdown.o)
    0x00000286   0x00000286   0x00000000   Code   RO         4364    .ARM.Collect$$libshutdown$$00000002  c_w.l(libshutdown2.o)
    0x00000286   0x00000286   0x00000000   Code   RO         4366    .ARM.Collect$$libshutdown$$00000004  c_w.l(libshutdown2.o)
    0x00000286   0x00000286   0x00000000   Code   RO         4369    .ARM.Collect$$libshutdown$$00000007  c_w.l(libshutdown2.o)
    0x00000286   0x00000286   0x00000000   Code   RO         4372    .ARM.Collect$$libshutdown$$0000000A  c_w.l(libshutdown2.o)
    0x00000286   0x00000286   0x00000000   Code   RO         4374    .ARM.Collect$$libshutdown$$0000000C  c_w.l(libshutdown2.o)
    0x00000286   0x00000286   0x00000000   Code   RO         4377    .ARM.Collect$$libshutdown$$0000000F  c_w.l(libshutdown2.o)
    0x00000286   0x00000286   0x00000002   Code   RO         4378    .ARM.Collect$$libshutdown$$00000010  c_w.l(libshutdown2.o)
    0x00000288   0x00000288   0x00000000   Code   RO         4178    .ARM.Collect$$rtentry$$00000000  c_w.l(__rtentry.o)
    0x00000288   0x00000288   0x00000000   Code   RO         4276    .ARM.Collect$$rtentry$$00000002  c_w.l(__rtentry2.o)
    0x00000288   0x00000288   0x00000006   Code   RO         4288    .ARM.Collect$$rtentry$$00000004  c_w.l(__rtentry4.o)
    0x0000028e   0x0000028e   0x00000000   Code   RO         4278    .ARM.Collect$$rtentry$$00000009  c_w.l(__rtentry2.o)
    0x0000028e   0x0000028e   0x00000004   Code   RO         4279    .ARM.Collect$$rtentry$$0000000A  c_w.l(__rtentry2.o)
    0x00000292   0x00000292   0x00000008   Code   RO         4280    .ARM.Collect$$rtentry$$0000000B  c_w.l(__rtentry2.o)
    0x0000029a   0x0000029a   0x00000008   Code   RO         4282    .ARM.Collect$$rtentry$$0000000D  c_w.l(__rtentry2.o)
    0x000002a2   0x000002a2   0x00000002   Code   RO         4179    .ARM.Collect$$rtexit$$00000000  c_w.l(rtexit.o)
    0x000002a4   0x000002a4   0x00000000   Code   RO         4291    .ARM.Collect$$rtexit$$00000002  c_w.l(rtexit2.o)
    0x000002a4   0x000002a4   0x00000004   Code   RO         4292    .ARM.Collect$$rtexit$$00000003  c_w.l(rtexit2.o)
    0x000002a8   0x000002a8   0x00000006   Code   RO         4293    .ARM.Collect$$rtexit$$00000004  c_w.l(rtexit2.o)
    0x000002ae   0x000002ae   0x00000002   PAD
    0x000002b0   0x000002b0   0x0000001c   Code   RO          534    .emb_text           rtx_conf_cm.o
    0x000002cc   0x000002cc   0x00000198   Code   RO         4084    .emb_text           RTX_CM4.lib(hal_cm4.o)
    0x00000464   0x00000464   0x00000000   Code   RO         4301    .emb_text           c_w.l(maybetermalloc1.o)
    0x00000464   0x00000464   0x00000094   Code   RO            4    .text               uart_functions.o
    0x000004f8   0x000004f8   0x00000228   Code   RO           83    .text               lab4.o
    0x00000720   0x00000720   0x00000168   Code   RO          164    .text               colors.o
    0x00000888   0x00000888   0x000003f4   Code   RO          196    .text               graphics.o
    0x00000c7c   0x00000c7c   0x0000001e   Code   RO          220    .text               comunication.o
    0x00000c9a   0x00000c9a   0x00000002   PAD
    0x00000c9c   0x00000c9c   0x00000164   Code   RO          244    .text               terminal.o
    0x00000e00   0x00000e00   0x000000d0   Code   RO          265    .text               utils.o
    0x00000ed0   0x00000ed0   0x000006fc   Code   RO          356    .text               cfaf128x128x16.o
    0x000015cc   0x000015cc   0x00000254   Code   RO          467    .text               rgb.o
    0x00001820   0x00001820   0x0000008c   Code   RO          535    .text               rtx_conf_cm.o
    0x000018ac   0x000018ac   0x00000130   Code   RO          591    .text               startup_tm4c129.o
    0x000019dc   0x000019dc   0x00000028   Code   RO          598    .text               system_tm4c129.o
    0x00001a04   0x00001a04   0x00000008   Code   RO         4099    .text               c_w.l(libspace.o)
    0x00001a0c   0x00001a0c   0x0000009e   Code   RO         4106    .text               c_w.l(h1_alloc_mt.o)
    0x00001aaa   0x00001aaa   0x000000ee   Code   RO         4158    .text               c_w.l(lludivv7m.o)
    0x00001b98   0x00001b98   0x00000048   Code   RO         4160    .text               c_w.l(llsdiv.o)
    0x00001be0   0x00001be0   0x00000012   Code   RO         4162    .text               c_w.l(exit.o)
    0x00001bf2   0x00001bf2   0x00000002   PAD
    0x00001bf4   0x00001bf4   0x00000080   Code   RO         4164    .text               c_w.l(assert.o)
    0x00001c74   0x00001c74   0x00000048   Code   RO         4166    .text               c_w.l(strcpy.o)
    0x00001cbc   0x00001cbc   0x0000003e   Code   RO         4168    .text               c_w.l(strlen.o)
    0x00001cfa   0x00001cfa   0x00000018   Code   RO         4170    .text               c_w.l(strcat.o)
    0x00001d12   0x00001d12   0x00000064   Code   RO         4172    .text               c_w.l(rt_memcpy_w.o)
    0x00001d76   0x00001d76   0x00000006   Code   RO         4174    .text               c_w.l(heapauxi.o)
    0x00001d7c   0x00001d7c   0x0000000a   Code   RO         4190    .text               c_w.l(rt_heap_descriptor_twolibspace.o)
    0x00001d86   0x00001d86   0x00000004   Code   RO         4192    .text               c_w.l(hguard.o)
    0x00001d8a   0x00001d8a   0x0000008a   Code   RO         4194    .text               c_w.l(init_alloc.o)
    0x00001e14   0x00001e14   0x00000012   Code   RO         4204    .text               c_w.l(h1_init_mt.o)
    0x00001e26   0x00001e26   0x00000076   Code   RO         4206    .text               c_w.l(h1_free_mt.o)
    0x00001e9c   0x00001e9c   0x00000016   Code   RO         4218    .text               c_w.l(abort.o)
    0x00001eb2   0x00001eb2   0x00000014   Code   RO         4220    .text               c_w.l(assert_puts.o)
    0x00001ec6   0x00001ec6   0x0000000e   Code   RO         4269    .text               c_w.l(sys_wrch.o)
    0x00001ed4   0x00001ed4   0x0000000c   Code   RO         4273    .text               c_w.l(sys_exit.o)
    0x00001ee0   0x00001ee0   0x0000003e   Code   RO         4305    .text               c_w.l(h1_extend_mt.o)
    0x00001f1e   0x00001f1e   0x0000000e   Code   RO         4307    .text               c_w.l(defsig_abrt_outer.o)
    0x00001f2c   0x00001f2c   0x0000000e   Code   RO         4311    .text               c_w.l(defsig_rtmem_outer.o)
    0x00001f3a   0x00001f3a   0x00000002   Code   RO         4322    .text               c_w.l(use_no_semi.o)
    0x00001f3c   0x00001f3c   0x00000000   Code   RO         4324    .text               c_w.l(indicate_semi.o)
    0x00001f3c   0x00001f3c   0x0000004a   Code   RO         4325    .text               c_w.l(sys_stackheap_outer.o)
    0x00001f86   0x00001f86   0x0000000a   Code   RO         4331    .text               c_w.l(defsig_exit.o)
    0x00001f90   0x00001f90   0x00000030   Code   RO         4333    .text               c_w.l(defsig_abrt_inner.o)
    0x00001fc0   0x00001fc0   0x00000050   Code   RO         4339    .text               c_w.l(defsig_rtmem_inner.o)
    0x00002010   0x00002010   0x00000032   Code   RO         4359    .text               c_w.l(defsig_general.o)
    0x00002042   0x00002042   0x00000002   PAD
    0x00002044   0x00002044   0x00000004   Code   RO         4094    SVC_TABLE           RTX_CM4.lib(svc_table.o)
    0x00002048   0x00002048   0x00000028   Code   RO          908    i.GPIODirModeSet    driverlib.lib(gpio.o)
    0x00002070   0x00002070   0x00000138   Code   RO          920    i.GPIOPadConfigSet  driverlib.lib(gpio.o)
    0x000021a8   0x000021a8   0x00000044   Code   RO          921    i.GPIOPinConfigure  driverlib.lib(gpio.o)
    0x000021ec   0x000021ec   0x0000001c   Code   RO          939    i.GPIOPinTypePWM    driverlib.lib(gpio.o)
    0x00002208   0x00002208   0x00000006   Code   RO         2566    i.GrContextFontSet  grlib.lib(string.o)
    0x0000220e   0x0000220e   0x00000002   PAD
    0x00002210   0x00002210   0x00000064   Code   RO         2487    i.GrContextInit     grlib.lib(context.o)
    0x00002274   0x00002274   0x00000118   Code   RO         2567    i.GrDefaultStringRenderer  grlib.lib(string.o)
    0x0000238c   0x0000238c   0x000000a6   Code   RO         2571    i.GrFontGlyphDataGet  grlib.lib(string.o)
    0x00002432   0x00002432   0x00000288   Code   RO         2572    i.GrFontGlyphRender  grlib.lib(string.o)
    0x000026ba   0x000026ba   0x00000008   Code   RO         3449    i.GrMapISO8859_1_Unicode  grlib.lib(charmap.o)
    0x000026c2   0x000026c2   0x000000b4   Code   RO         2536    i.GrRectFill        grlib.lib(rectangle.o)
    0x00002776   0x00002776   0x00000020   Code   RO         2578    i.GrStringDraw      grlib.lib(string.o)
    0x00002796   0x00002796   0x00000002   PAD
    0x00002798   0x00002798   0x00000064   Code   RO         1548    i.IntEnable         driverlib.lib(interrupt.o)
    0x000027fc   0x000027fc   0x00000014   Code   RO         1664    i.PWMClockSet       driverlib.lib(pwm.o)
    0x00002810   0x00002810   0x00000026   Code   RO         1671    i.PWMGenConfigure   driverlib.lib(pwm.o)
    0x00002836   0x00002836   0x0000000a   Code   RO         1672    i.PWMGenDisable     driverlib.lib(pwm.o)
    0x00002840   0x00002840   0x0000000a   Code   RO         1673    i.PWMGenEnable      driverlib.lib(pwm.o)
    0x0000284a   0x0000284a   0x00000012   Code   RO         1685    i.PWMGenPeriodGet   driverlib.lib(pwm.o)
    0x0000285c   0x0000285c   0x00000012   Code   RO         1686    i.PWMGenPeriodSet   driverlib.lib(pwm.o)
    0x0000286e   0x0000286e   0x00000010   Code   RO         1693    i.PWMOutputState    driverlib.lib(pwm.o)
    0x0000287e   0x0000287e   0x00000020   Code   RO         1696    i.PWMPulseWidthSet  driverlib.lib(pwm.o)
    0x0000289e   0x0000289e   0x00000002   PAD
    0x000028a0   0x000028a0   0x000002ec   Code   RO         1898    i.SysCtlClockFreqSet  driverlib.lib(sysctl.o)
    0x00002b8c   0x00002b8c   0x00000028   Code   RO         1930    i.SysCtlPeripheralEnable  driverlib.lib(sysctl.o)
    0x00002bb4   0x00002bb4   0x0000002c   Code   RO         1934    i.SysCtlPeripheralReady  driverlib.lib(sysctl.o)
    0x00002be0   0x00002be0   0x0000006c   Code   RO         2584    i.UpdateContextCharMapping  grlib.lib(string.o)
    0x00002c4c   0x00002c4c   0x00000046   Code   RO         3978    i._init_box         RTX_CM4.lib(rt_membox.o)
    0x00002c92   0x00002c92   0x00000002   PAD
    0x00002c94   0x00002c94   0x00000030   Code   RO         4031    i.dbg_init          RTX_CM4.lib(hal_cm.o)
    0x00002cc4   0x00002cc4   0x00000020   Code   RO         4032    i.dbg_task_notify   RTX_CM4.lib(hal_cm.o)
    0x00002ce4   0x00002ce4   0x00000010   Code   RO         4033    i.dbg_task_switch   RTX_CM4.lib(hal_cm.o)
    0x00002cf4   0x00002cf4   0x0000002a   Code   RO         2696    i.isrMessageGet     RTX_CM4.lib(rt_cmsis.o)
    0x00002d1e   0x00002d1e   0x0000002c   Code   RO         2697    i.isrMessagePut     RTX_CM4.lib(rt_cmsis.o)
    0x00002d4a   0x00002d4a   0x00000002   PAD
    0x00002d4c   0x00002d4c   0x00000056   Code   RO         3833    i.isr_mbx_receive   RTX_CM4.lib(rt_mailbox.o)
    0x00002da2   0x00002da2   0x0000000e   Code   RO         3834    i.isr_mbx_send      RTX_CM4.lib(rt_mailbox.o)
    0x00002db0   0x00002db0   0x00000018   Code   RO         2700    i.osDelay           RTX_CM4.lib(rt_cmsis.o)
    0x00002dc8   0x00002dc8   0x00000024   Code   RO         2701    i.osKernelInitialize  RTX_CM4.lib(rt_cmsis.o)
    0x00002dec   0x00002dec   0x0000006c   Code   RO         2703    i.osKernelStart     RTX_CM4.lib(rt_cmsis.o)
    0x00002e58   0x00002e58   0x0000002c   Code   RO         2711    i.osMessageCreate   RTX_CM4.lib(rt_cmsis.o)
    0x00002e84   0x00002e84   0x00000018   Code   RO         2712    i.osMessageGet      RTX_CM4.lib(rt_cmsis.o)
    0x00002e9c   0x00002e9c   0x00000018   Code   RO         2713    i.osMessagePut      RTX_CM4.lib(rt_cmsis.o)
    0x00002eb4   0x00002eb4   0x0000002c   Code   RO         2729    i.osThreadCreate    RTX_CM4.lib(rt_cmsis.o)
    0x00002ee0   0x00002ee0   0x00000018   Code   RO         2730    i.osThreadExit      RTX_CM4.lib(rt_cmsis.o)
    0x00002ef8   0x00002ef8   0x0000000c   Code   RO         2736    i.osTimerCall       RTX_CM4.lib(rt_cmsis.o)
    0x00002f04   0x00002f04   0x0000002c   Code   RO         2741    i.osTimerThread     RTX_CM4.lib(rt_cmsis.o)
    0x00002f30   0x00002f30   0x00000028   Code   RO         3625    i.os_tick_init      RTX_CM4.lib(rt_system.o)
    0x00002f58   0x00002f58   0x00000002   Code   RO         3626    i.os_tick_irqack    RTX_CM4.lib(rt_system.o)
    0x00002f5a   0x00002f5a   0x0000001a   Code   RO         3979    i.rt_alloc_box      RTX_CM4.lib(rt_membox.o)
    0x00002f74   0x00002f74   0x0000003e   Code   RO         4007    i.rt_alloc_mem      RTX_CM4.lib(rt_memory.o)
    0x00002fb2   0x00002fb2   0x00000002   PAD
    0x00002fb4   0x00002fb4   0x00000038   Code   RO         3315    i.rt_block          RTX_CM4.lib(rt_task.o)
    0x00002fec   0x00002fec   0x00000048   Code   RO         3956    i.rt_chk_robin      RTX_CM4.lib(rt_robin.o)
    0x00003034   0x00003034   0x00000070   Code   RO         3757    i.rt_dec_dly        RTX_CM4.lib(rt_list.o)
    0x000030a4   0x000030a4   0x00000044   Code   RO         3316    i.rt_dispatch       RTX_CM4.lib(rt_task.o)
    0x000030e8   0x000030e8   0x00000006   Code   RO         3923    i.rt_dly_wait       RTX_CM4.lib(rt_time.o)
    0x000030ee   0x000030ee   0x00000002   PAD
    0x000030f0   0x000030f0   0x00000050   Code   RO         3718    i.rt_evt_psh        RTX_CM4.lib(rt_event.o)
    0x00003140   0x00003140   0x0000002c   Code   RO         3980    i.rt_free_box       RTX_CM4.lib(rt_membox.o)
    0x0000316c   0x0000316c   0x00000028   Code   RO         4008    i.rt_free_mem       RTX_CM4.lib(rt_memory.o)
    0x00003194   0x00003194   0x00000028   Code   RO         3758    i.rt_get_first      RTX_CM4.lib(rt_list.o)
    0x000031bc   0x000031bc   0x00000008   Code   RO         2746    i.rt_id2obj         RTX_CM4.lib(rt_cmsis.o)
    0x000031c4   0x000031c4   0x00000048   Code   RO         3317    i.rt_init_context   RTX_CM4.lib(rt_task.o)
    0x0000320c   0x0000320c   0x0000001a   Code   RO         4009    i.rt_init_mem       RTX_CM4.lib(rt_memory.o)
    0x00003226   0x00003226   0x00000002   PAD
    0x00003228   0x00003228   0x00000018   Code   RO         3957    i.rt_init_robin     RTX_CM4.lib(rt_robin.o)
    0x00003240   0x00003240   0x00000080   Code   RO         4034    i.rt_init_stack     RTX_CM4.lib(hal_cm.o)
    0x000032c0   0x000032c0   0x00000008   Code   RO         3835    i.rt_mbx_check      RTX_CM4.lib(rt_mailbox.o)
    0x000032c8   0x000032c8   0x0000001a   Code   RO         3836    i.rt_mbx_init       RTX_CM4.lib(rt_mailbox.o)
    0x000032e2   0x000032e2   0x00000002   PAD
    0x000032e4   0x000032e4   0x000000f0   Code   RO         3837    i.rt_mbx_psh        RTX_CM4.lib(rt_mailbox.o)
    0x000033d4   0x000033d4   0x00000098   Code   RO         3838    i.rt_mbx_send       RTX_CM4.lib(rt_mailbox.o)
    0x0000346c   0x0000346c   0x000000b4   Code   RO         3839    i.rt_mbx_wait       RTX_CM4.lib(rt_mailbox.o)
    0x00003520   0x00003520   0x00000044   Code   RO         2747    i.rt_ms2tick        RTX_CM4.lib(rt_cmsis.o)
    0x00003564   0x00003564   0x00000010   Code   RO         3400    i.rt_mut_init       RTX_CM4.lib(rt_mutex.o)
    0x00003574   0x00003574   0x000000d8   Code   RO         3401    i.rt_mut_release    RTX_CM4.lib(rt_mutex.o)
    0x0000364c   0x0000364c   0x00000078   Code   RO         3402    i.rt_mut_wait       RTX_CM4.lib(rt_mutex.o)
    0x000036c4   0x000036c4   0x0000007c   Code   RO         3629    i.rt_pop_req        RTX_CM4.lib(rt_system.o)
    0x00003740   0x00003740   0x00000020   Code   RO         3630    i.rt_psh_req        RTX_CM4.lib(rt_system.o)
    0x00003760   0x00003760   0x0000005c   Code   RO         3760    i.rt_psq_enq        RTX_CM4.lib(rt_list.o)
    0x000037bc   0x000037bc   0x00000048   Code   RO         3761    i.rt_put_dly        RTX_CM4.lib(rt_list.o)
    0x00003804   0x00003804   0x00000036   Code   RO         3762    i.rt_put_prio       RTX_CM4.lib(rt_list.o)
    0x0000383a   0x0000383a   0x00000002   PAD
    0x0000383c   0x0000383c   0x00000014   Code   RO         3763    i.rt_put_rdy_first  RTX_CM4.lib(rt_list.o)
    0x00003850   0x00003850   0x00000034   Code   RO         3764    i.rt_resort_prio    RTX_CM4.lib(rt_list.o)
    0x00003884   0x00003884   0x00000010   Code   RO         4035    i.rt_ret_regs       RTX_CM4.lib(hal_cm.o)
    0x00003894   0x00003894   0x0000000c   Code   RO         4036    i.rt_ret_val        RTX_CM4.lib(hal_cm.o)
    0x000038a0   0x000038a0   0x00000010   Code   RO         4037    i.rt_ret_val2       RTX_CM4.lib(hal_cm.o)
    0x000038b0   0x000038b0   0x00000028   Code   RO         3765    i.rt_rmv_dly        RTX_CM4.lib(rt_list.o)
    0x000038d8   0x000038d8   0x00000030   Code   RO         3766    i.rt_rmv_list       RTX_CM4.lib(rt_list.o)
    0x00003908   0x00003908   0x00000034   Code   RO         3884    i.rt_sem_psh        RTX_CM4.lib(rt_semaphore.o)
    0x0000393c   0x0000393c   0x00000024   Code   RO         3632    i.rt_stk_check      RTX_CM4.lib(rt_system.o)
    0x00003960   0x00003960   0x00000028   Code   RO         3318    i.rt_switch_req     RTX_CM4.lib(rt_task.o)
    0x00003988   0x00003988   0x000000cc   Code   RO         3319    i.rt_sys_init       RTX_CM4.lib(rt_task.o)
    0x00003a54   0x00003a54   0x00000078   Code   RO         3320    i.rt_sys_start      RTX_CM4.lib(rt_task.o)
    0x00003acc   0x00003acc   0x00000040   Code   RO         3634    i.rt_systick        RTX_CM4.lib(rt_system.o)
    0x00003b0c   0x00003b0c   0x00000012   Code   RO         2748    i.rt_tid2ptcb       RTX_CM4.lib(rt_cmsis.o)
    0x00003b1e   0x00003b1e   0x00000002   PAD
    0x00003b20   0x00003b20   0x00000034   Code   RO         2749    i.rt_timer_insert   RTX_CM4.lib(rt_cmsis.o)
    0x00003b54   0x00003b54   0x00000088   Code   RO         3321    i.rt_tsk_create     RTX_CM4.lib(rt_task.o)
    0x00003bdc   0x00003bdc   0x0000017c   Code   RO         3322    i.rt_tsk_delete     RTX_CM4.lib(rt_task.o)
    0x00003d58   0x00003d58   0x0000007c   Code   RO         3324    i.rt_tsk_prio       RTX_CM4.lib(rt_task.o)
    0x00003dd4   0x00003dd4   0x00000010   Code   RO         3325    i.rt_tsk_self       RTX_CM4.lib(rt_task.o)
    0x00003de4   0x00003de4   0x00000012   Code   RO         2751    i.svcDelay          RTX_CM4.lib(rt_cmsis.o)
    0x00003df6   0x00003df6   0x00000002   PAD
    0x00003df8   0x00003df8   0x00000070   Code   RO         2752    i.svcKernelInitialize  RTX_CM4.lib(rt_cmsis.o)
    0x00003e68   0x00003e68   0x00000048   Code   RO         2754    i.svcKernelStart    RTX_CM4.lib(rt_cmsis.o)
    0x00003eb0   0x00003eb0   0x00000024   Code   RO         2757    i.svcMessageCreate  RTX_CM4.lib(rt_cmsis.o)
    0x00003ed4   0x00003ed4   0x0000003a   Code   RO         2758    i.svcMessageGet     RTX_CM4.lib(rt_cmsis.o)
    0x00003f0e   0x00003f0e   0x00000036   Code   RO         2759    i.svcMessagePut     RTX_CM4.lib(rt_cmsis.o)
    0x00003f44   0x00003f44   0x0000006c   Code   RO         2772    i.svcThreadCreate   RTX_CM4.lib(rt_cmsis.o)
    0x00003fb0   0x00003fb0   0x0000001c   Code   RO         2773    i.svcThreadGetId    RTX_CM4.lib(rt_cmsis.o)
    0x00003fcc   0x00003fcc   0x00000038   Code   RO         2776    i.svcThreadTerminate  RTX_CM4.lib(rt_cmsis.o)
    0x00004004   0x00004004   0x00000018   Code   RO         2778    i.svcTimerCall      RTX_CM4.lib(rt_cmsis.o)
    0x0000401c   0x0000401c   0x0000005c   Code   RO         2787    i.sysTimerTick      RTX_CM4.lib(rt_cmsis.o)
    0x00004078   0x00004078   0x0000000a   Code   RO         4320    x$fpl$fpinit        fz_wm.l(fpinit.o)
    0x00004082   0x00004082   0x00000002   PAD
    0x00004084   0x00004084   0x00000078   Data   RO           90    .constdata          lab4.o
    0x000040fc   0x000040fc   0x00002ca0   Data   RO          165    .constdata          colors.o
    0x00006d9c   0x00006d9c   0x00000028   Data   RO          369    .constdata          cfaf128x128x16.o
    0x00006dc4   0x00006dc4   0x00000002   Data   RO          543    .constdata          rtx_conf_cm.o
    0x00006dc6   0x00006dc6   0x00000002   PAD
    0x00006dc8   0x00006dc8   0x00000004   Data   RO          544    .constdata          rtx_conf_cm.o
    0x00006dcc   0x00006dcc   0x00000004   Data   RO          545    .constdata          rtx_conf_cm.o
    0x00006dd0   0x00006dd0   0x00000004   Data   RO          549    .constdata          rtx_conf_cm.o
    0x00006dd4   0x00006dd4   0x00000001   Data   RO          550    .constdata          rtx_conf_cm.o
    0x00006dd5   0x00006dd5   0x00000003   PAD
    0x00006dd8   0x00006dd8   0x00000010   Data   RO          551    .constdata          rtx_conf_cm.o
    0x00006de8   0x00006de8   0x00000002   Data   RO          552    .constdata          rtx_conf_cm.o
    0x00006dea   0x00006dea   0x00000002   PAD
    0x00006dec   0x00006dec   0x00000004   Data   RO          553    .constdata          rtx_conf_cm.o
    0x00006df0   0x00006df0   0x00000004   Data   RO          554    .constdata          rtx_conf_cm.o
    0x00006df4   0x00006df4   0x00000001   Data   RO          555    .constdata          rtx_conf_cm.o
    0x00006df5   0x00006df5   0x00000003   PAD
    0x00006df8   0x00006df8   0x00000010   Data   RO          556    .constdata          rtx_conf_cm.o
    0x00006e08   0x00006e08   0x00000008   Data   RO          557    .constdata          rtx_conf_cm.o
    0x00006e10   0x00006e10   0x00000002   Data   RO          558    .constdata          rtx_conf_cm.o
    0x00006e12   0x00006e12   0x00000002   PAD
    0x00006e14   0x00006e14   0x00000010   Data   RO          559    .constdata          rtx_conf_cm.o
    0x00006e24   0x00006e24   0x00000228   Data   RO          952    .constdata          driverlib.lib(gpio.o)
    0x0000704c   0x0000704c   0x0000010c   Data   RO         1564    .constdata          driverlib.lib(interrupt.o)
    0x00007158   0x00007158   0x00000254   Data   RO         1952    .constdata          driverlib.lib(sysctl.o)
    0x000073ac   0x000073ac   0x00000010   Data   RO         2489    .constdata          grlib.lib(context.o)
    0x000073bc   0x000073bc   0x000002f8   Data   RO         2521    .constdata          grlib.lib(fontfixed6x8.o)
    0x000076b4   0x000076b4   0x000000c8   Data   RO         2522    .constdata          grlib.lib(fontfixed6x8.o)
    0x0000777c   0x0000777c   0x00000025   Data   RO          266    .conststring        utils.o
    0x000077a1   0x000077a1   0x00000003   PAD
    0x000077a4   0x000077a4   0x00000020   Data   RO         4393    Region$$Table       anon$$obj.o


    Execution Region RW_IRAM1 (Exec base: 0x20000000, Load base: 0x000077c4, Size: 0x00005878, Max: 0x00040000, ABSOLUTE)

    Exec Addr    Load Addr    Size         Type   Attr      Idx    E Section Name        Object

    0x20000000   0x000077c4   0x00000028   Data   RW           91    .data               lab4.o
    0x20000028   0x000077ec   0x00000004   Data   RW          267    .data               utils.o
    0x2000002c   0x000077f0   0x00000008   Data   RW          370    .data               cfaf128x128x16.o
    0x20000034   0x000077f8   0x00000008   Data   RW          468    .data               rgb.o
    0x2000003c   0x00007800   0x00000004   Data   RW          561    .data               rtx_conf_cm.o
    0x20000040   0x00007804   0x00000004   Data   RW          562    .data               rtx_conf_cm.o
    0x20000044   0x00007808   0x00000004   Data   RW          563    .data               rtx_conf_cm.o
    0x20000048   0x0000780c   0x00000004   Data   RW          564    .data               rtx_conf_cm.o
    0x2000004c   0x00007810   0x00000004   Data   RW          599    .data               system_tm4c129.o
    0x20000050   0x00007814   0x00000004   Data   RW         2490    .data               grlib.lib(context.o)
    0x20000054   0x00007818   0x00000008   Data   RW         2790    .data               RTX_CM4.lib(rt_cmsis.o)
    0x2000005c   0x00007820   0x00000008   Data   RW         3327    .data               RTX_CM4.lib(rt_task.o)
    0x20000064   0x00007828   0x00000008   Data   RW         3637    .data               RTX_CM4.lib(rt_system.o)
    0x2000006c   0x00007830   0x00000004   Data   RW         3927    .data               RTX_CM4.lib(rt_time.o)
    0x20000070   0x00007834   0x00000008   Data   RW         3958    .data               RTX_CM4.lib(rt_robin.o)
    0x20000078   0x0000783c   0x00000001   Data   RW         4038    .data               RTX_CM4.lib(hal_cm.o)
    0x20000079   0x0000783d   0x00000003   PAD
    0x2000007c        -       0x00000050   Zero   RW           84    .bss                lab4.o
    0x200000cc        -       0x00000050   Zero   RW           85    .bss                lab4.o
    0x2000011c        -       0x00000050   Zero   RW           86    .bss                lab4.o
    0x2000016c        -       0x00000050   Zero   RW           87    .bss                lab4.o
    0x200001bc        -       0x00000050   Zero   RW           88    .bss                lab4.o
    0x2000020c        -       0x00000020   Zero   RW          536    .bss                rtx_conf_cm.o
    0x2000022c        -       0x000001e0   Zero   RW          537    .bss                rtx_conf_cm.o
    0x2000040c   0x0000783d   0x00000004   PAD
    0x20000410        -       0x00001910   Zero   RW          538    .bss                rtx_conf_cm.o
    0x20001d20        -       0x00000408   Zero   RW          539    .bss                rtx_conf_cm.o
    0x20002128        -       0x00000084   Zero   RW          540    .bss                rtx_conf_cm.o
    0x200021ac        -       0x00000024   Zero   RW          541    .bss                rtx_conf_cm.o
    0x200021d0        -       0x000003e0   Zero   RW          542    .bss                rtx_conf_cm.o
    0x200025b0        -       0x00000034   Zero   RW         3326    .bss                RTX_CM4.lib(rt_task.o)
    0x200025e4        -       0x00000030   Zero   RW         3767    .bss                RTX_CM4.lib(rt_list.o)
    0x20002614        -       0x00000060   Zero   RW         4100    .bss                c_w.l(libspace.o)
    0x20002674   0x0000783d   0x00000004   PAD
    0x20002678        -       0x00003000   Zero   RW          589    HEAP                startup_tm4c129.o
    0x20005678        -       0x00000200   Zero   RW          588    STACK               startup_tm4c129.o


==============================================================================

Image component sizes


      Code (inc. data)   RO Data    RW Data    ZI Data      Debug   Object Name

      1788         94         40          8          0      10686   cfaf128x128x16.o
       360         60      11424          0          0       2582   colors.o
        30          0          0          0          0        581   comunication.o
      1012        142          0          0          0       3170   graphics.o
       552         16        120         40        400       6472   lab4.o
       596         42          0          8          0       1893   rgb.o
       168         36         84         16       9120       8921   rtx_conf_cm.o
       304         26        512          0      12800       6024   startup_tm4c129.o
        40         14          0          4          0        869   system_tm4c129.o
       356         38          0          0          0       1782   terminal.o
       148         12          0          0          0      34607   uart_functions.o
       208          6         37          4          0        982   utils.o

    ----------------------------------------------------------------------
      5564        486      12264         80      22324      78569   Object Totals
         0          0         32          0          0          0   (incl. Generated)
         2          0         15          0          4          0   (incl. Padding)

    ----------------------------------------------------------------------

      Code (inc. data)   RO Data    RW Data    ZI Data      Debug   Library Member Name

       268         24          0          1          0       4524   hal_cm.o
       408         34          0          0          0        824   hal_cm4.o
      1274        158          0          8          0      37848   rt_cmsis.o
        80          4          0          0          0        709   rt_event.o
       530         34          0          0         48       8685   rt_list.o
       706         14          0          0          0       5123   rt_mailbox.o
       140          0          0          0          0       2069   rt_membox.o
       128          0          0          0          0       2451   rt_memory.o
       352         14          0          0          0       2249   rt_mutex.o
        96         22          0          8          0       1254   rt_robin.o
        52          4          0          0          0        621   rt_semaphore.o
       298         52          0          8          0       6511   rt_system.o
      1216        174          0          8         52      10129   rt_task.o
         6          0          0          4          0        700   rt_time.o
         4          4          0          0          0        208   svc_table.o
         8          0          0          0          0         68   __main.o
         0          0          0          0          0          0   __rtentry.o
        20          0          0          0          0          0   __rtentry2.o
         6          0          0          0          0          0   __rtentry4.o
        52          8          0          0          0          0   __scatter.o
        26          0          0          0          0          0   __scatter_copy.o
        28          0          0          0          0          0   __scatter_zi.o
        22          0          0          0          0         80   abort.o
       128         42          0          0          0         76   assert.o
        20          0          0          0          0         76   assert_puts.o
        48         34          0          0          0         76   defsig_abrt_inner.o
        14          0          0          0          0         80   defsig_abrt_outer.o
        10          0          0          0          0         68   defsig_exit.o
        50          0          0          0          0         88   defsig_general.o
        80         58          0          0          0         76   defsig_rtmem_inner.o
        14          0          0          0          0         80   defsig_rtmem_outer.o
        18          0          0          0          0         80   exit.o
       158          0          0          0          0        128   h1_alloc_mt.o
        62          0          0          0          0         80   h1_extend_mt.o
       118          0          0          0          0        108   h1_free_mt.o
        18          0          0          0          0         84   h1_init_mt.o
         6          0          0          0          0        152   heapauxi.o
         4          0          0          0          0        136   hguard.o
         0          0          0          0          0          0   indicate_semi.o
       138          0          0          0          0        168   init_alloc.o
         2          0          0          0          0          0   libinit.o
        14          0          0          0          0          0   libinit2.o
         2          0          0          0          0          0   libshutdown.o
         2          0          0          0          0          0   libshutdown2.o
         8          4          0          0         96         68   libspace.o
        72          0          0          0          0         76   llsdiv.o
       238          0          0          0          0        100   lludivv7m.o
         0          0          0          0          0          0   maybetermalloc1.o
        10          0          0          0          0         76   rt_heap_descriptor_twolibspace.o
       100          0          0          0          0         80   rt_memcpy_w.o
         2          0          0          0          0          0   rtexit.o
        10          0          0          0          0          0   rtexit2.o
        24          0          0          0          0         68   strcat.o
        72          0          0          0          0         80   strcpy.o
        62          0          0          0          0         76   strlen.o
        12          4          0          0          0         68   sys_exit.o
        74          0          0          0          0         80   sys_stackheap_outer.o
        14          0          0          0          0         76   sys_wrch.o
         2          0          0          0          0         68   use_no_semi.o
         0          0          0          0          0       3064   adc.o
       448          8        552          0          0       3948   gpio.o
       100          8        268          0          0       1580   interrupt.o
       162          0          0          0          0       4551   pwm.o
       832         50        596          0          0       5470   sysctl.o
        10          0          0          0          0        116   fpinit.o
         8          0          0          0          0       1494   charmap.o
       100         12         16          4          0      26443   context.o
         0          0        960          0          0      25662   fontfixed6x8.o
       180          0          0          0          0       1494   rectangle.o
      1240          0          0          0          0       9079   string.o

    ----------------------------------------------------------------------
     10440        766       2392         44        200     169426   Library Totals
        34          0          0          3          4          0   (incl. Padding)

    ----------------------------------------------------------------------

      Code (inc. data)   RO Data    RW Data    ZI Data      Debug   Library Name

      5558        538          0         37        100      83905   RTX_CM4.lib
      1768        150          0          0         96       2620   c_w.l
      1542         66       1416          0          0      18613   driverlib.lib
        10          0          0          0          0        116   fz_wm.l
      1528         12        976          4          0      64172   grlib.lib

    ----------------------------------------------------------------------
     10440        766       2392         44        200     169426   Library Totals

    ----------------------------------------------------------------------

==============================================================================


      Code (inc. data)   RO Data    RW Data    ZI Data      Debug   

     16004       1252      14656        124      22524     235291   Grand Totals
     16004       1252      14656        124      22524     235291   ELF Image Totals
     16004       1252      14656        124          0          0   ROM Totals

==============================================================================

    Total RO  Size (Code + RO Data)                30660 (  29.94kB)
    Total RW  Size (RW Data + ZI Data)             22648 (  22.12kB)
    Total ROM Size (Code + RO Data + RW Data)      30784 (  30.06kB)

==============================================================================

