Component: ARM Compiler 5.06 update 5 (build 528) Tool: armlink [4d35e2]

==============================================================================

Section Cross References

    terminal.o(.text) refers to utils.o(.text) for intToString
    terminal.o(.text) refers to strcpy.o(.text) for strcpy
    terminal.o(.text) refers to strcat.o(.text) for strcat
    terminal.o(.text) refers to communication.o(.text) for sendString
    utils.o(.text) refers to llsdiv.o(.text) for __aeabi_ldivmod
    utils.o(.text) refers to ffixll.o(x$fpl$llsfromf) for __aeabi_f2lz
    utils.o(.text) refers to rt_cmsis.o(i.osKernelSysTick) for osKernelSysTick
    utils.o(.text) refers to dflt_clz.o(x$fpl$dfltu) for __aeabi_ui2d
    utils.o(.text) refers to ddiv.o(x$fpl$ddiv) for __aeabi_ddiv
    utils.o(.text) refers to utils.o(.data) for pAscii
    utils.o(.data) refers to utils.o(.conststring) for .conststring
    lab5.o(.text) refers to rt_cmsis.o(i.osSignalSet) for osSignalSet
    lab5.o(.text) refers to dflt_clz.o(x$fpl$dflt) for __aeabi_i2d
    lab5.o(.text) refers to dmul.o(x$fpl$dmul) for __aeabi_dmul
    lab5.o(.text) refers to rt_cmsis.o(i.osThreadYield) for osThreadYield
    lab5.o(.text) refers to daddsub_clz.o(x$fpl$dadd) for __aeabi_dadd
    lab5.o(.text) refers to pow.o(i.__hardfp_pow) for __hardfp_pow
    lab5.o(.text) refers to ddiv.o(x$fpl$ddiv) for __aeabi_ddiv
    lab5.o(.text) refers to utils.o(.text) for getSystemTime
    lab5.o(.text) refers to floor.o(i.__hardfp_floor) for __hardfp_floor
    lab5.o(.text) refers to dfix.o(x$fpl$dfix) for __aeabi_d2iz
    lab5.o(.text) refers to lab5.o(.bss) for Dispatcher
    lab5.o(.text) refers to lab5.o(.data) for current_task
    lab5.o(.text) refers to daddsub_clz.o(x$fpl$drsb) for __aeabi_drsub
    lab5.o(.text) refers to dleqf.o(x$fpl$dleqf) for __aeabi_cdcmple
    lab5.o(.text) refers to queue.o(.text) for get_element
    lab5.o(.text) refers to task.o(.text) for sort
    lab5.o(.text) refers to rt_cmsis.o(i.osSignalWait) for osSignalWait
    lab5.o(.text) refers to rt_cmsis.o(i.osTimerStop) for osTimerStop
    lab5.o(.text) refers to rt_cmsis.o(i.osMutexWait) for osMutexWait
    lab5.o(.text) refers to rt_cmsis.o(i.osMutexRelease) for osMutexRelease
    lab5.o(.text) refers to rt_cmsis.o(i.osTimerStart) for osTimerStart
    lab5.o(.text) refers to rt_cmsis.o(i.osKernelInitialize) for osKernelInitialize
    lab5.o(.text) refers to rt_cmsis.o(i.osThreadGetId) for osThreadGetId
    lab5.o(.text) refers to rt_cmsis.o(i.osThreadSetPriority) for osThreadSetPriority
    lab5.o(.text) refers to rt_memcpy_w.o(.text) for __aeabi_memcpy4
    lab5.o(.text) refers to rt_cmsis.o(i.osThreadCreate) for osThreadCreate
    lab5.o(.text) refers to rt_cmsis.o(i.osKernelStart) for osKernelStart
    lab5.o(.text) refers to rt_cmsis.o(i.osTimerCreate) for osTimerCreate
    lab5.o(.text) refers to rt_cmsis.o(i.osMutexCreate) for osMutexCreate
    lab5.o(.text) refers to lab5.o(.constdata) for os_thread_def_Thread_A
    lab5.o(.constdata) refers to lab5.o(.text) for Thread_A
    lab5.o(.constdata) refers to lab5.o(.bss) for os_timer_cb_timer
    task.o(.text) refers to strcpy.o(.text) for strcpy
    task.o(.text) refers to dflt_clz.o(x$fpl$dflt) for __aeabi_i2d
    task.o(.text) refers to floor.o(i.__hardfp_floor) for __hardfp_floor
    task.o(.text) refers to dfix.o(x$fpl$dfix) for __aeabi_d2iz
    task.o(.text) refers to utils.o(.text) for getSystemTime
    task.o(.text) refers to rt_memcpy_w.o(.text) for __aeabi_memcpy4
    communication.o(.text) refers to strlen.o(.text) for strlen
    communication.o(.text) refers to uart_functions.o(.text) for sendUART
    communication.o(.text) refers to d2f.o(x$fpl$d2f) for __aeabi_d2f
    communication.o(.text) refers to utils.o(.text) for floatToString
    gantt.o(.text) refers to communication.o(.text) for sendString
    gantt.o(.text) refers to utils.o(.text) for intToString
    gantt.o(.text) refers to strcpy.o(.text) for strcpy
    gantt.o(.text) refers to strcat.o(.text) for strcat
    cfaf128x128x16.o(.text) refers to cfaf128x128x16.o(.data) for _orientation
    cfaf128x128x16.o(.text) refers to sysctl.o(i.SysCtlClockFreqSet) for SysCtlClockFreqSet
    cfaf128x128x16.o(.constdata) refers to cfaf128x128x16.o(.text) for cfaf128x128x16PixelDraw
    rtx_conf_cm.o(.emb_text) refers to rt_cmsis.o(i.osKernelInitialize) for osKernelInitialize
    rtx_conf_cm.o(.emb_text) refers to rt_cmsis.o(i.osThreadCreate) for osThreadCreate
    rtx_conf_cm.o(.emb_text) refers to rt_cmsis.o(i.osKernelStart) for osKernelStart
    rtx_conf_cm.o(.emb_text) refers to exit.o(.text) for exit
    rtx_conf_cm.o(.emb_text) refers to rtx_conf_cm.o(.constdata) for os_thread_def_main
    rtx_conf_cm.o(.text) refers to rt_task.o(i.rt_tsk_self) for rt_tsk_self
    rtx_conf_cm.o(.text) refers to rt_mutex.o(i.rt_mut_init) for rt_mut_init
    rtx_conf_cm.o(.text) refers to rt_cmsis.o(.data) for os_running
    rtx_conf_cm.o(.text) refers to rtx_conf_cm.o(.bss) for .bss
    rtx_conf_cm.o(.text) refers to libspace.o(.bss) for __libspace_start
    rtx_conf_cm.o(.text) refers to rtx_conf_cm.o(.data) for .data
    rtx_conf_cm.o(.text) refers to rt_mutex.o(i.rt_mut_wait) for rt_mut_wait
    rtx_conf_cm.o(.text) refers to rt_mutex.o(i.rt_mut_release) for rt_mut_release
    rtx_conf_cm.o(.constdata) refers to rt_cmsis.o(i.osTimerThread) for osTimerThread
    rtx_conf_cm.o(.constdata) refers to rtx_conf_cm.o(.bss) for os_messageQ_q_osTimerMessageQ
    rtx_conf_cm.o(.constdata) refers to lab5.o(.text) for main
    startup_tm4c129.o(STACK) refers (Special) to heapauxi.o(.text) for __use_two_region_memory
    startup_tm4c129.o(HEAP) refers (Special) to heapauxi.o(.text) for __use_two_region_memory
    startup_tm4c129.o(RESET) refers (Special) to heapauxi.o(.text) for __use_two_region_memory
    startup_tm4c129.o(RESET) refers to startup_tm4c129.o(STACK) for __initial_sp
    startup_tm4c129.o(RESET) refers to startup_tm4c129.o(.text) for Reset_Handler
    startup_tm4c129.o(RESET) refers to hal_cm4.o(.emb_text) for SVC_Handler
    startup_tm4c129.o(.text) refers (Special) to heapauxi.o(.text) for __use_two_region_memory
    startup_tm4c129.o(.text) refers to system_tm4c129.o(.text) for SystemInit
    startup_tm4c129.o(.text) refers to __main.o(!!!main) for __main
    startup_tm4c129.o(.text) refers to startup_tm4c129.o(HEAP) for Heap_Mem
    startup_tm4c129.o(.text) refers to startup_tm4c129.o(STACK) for Stack_Mem
    system_tm4c129.o(.text) refers to system_tm4c129.o(.data) for SystemCoreClock
    sysctl.o(i.SysCtlClockFreqSet) refers to sysctl.o(.constdata) for .constdata
    sysctl.o(i.SysCtlClockGet) refers to sysctl.o(.constdata) for .constdata
    sysctl.o(i.SysCtlClockSet) refers to sysctl.o(.emb_text) for SysCtlDelay
    sysctl.o(i.SysCtlDeepSleep) refers to cpu.o(.emb_text) for CPUwfi
    sysctl.o(i.SysCtlIntRegister) refers to interrupt.o(i.IntRegister) for IntRegister
    sysctl.o(i.SysCtlIntRegister) refers to interrupt.o(i.IntEnable) for IntEnable
    sysctl.o(i.SysCtlIntUnregister) refers to interrupt.o(i.IntDisable) for IntDisable
    sysctl.o(i.SysCtlIntUnregister) refers to interrupt.o(i.IntUnregister) for IntUnregister
    sysctl.o(i.SysCtlSleep) refers to cpu.o(.emb_text) for CPUwfi
    sysctl.o(i.SysCtlVCOGet) refers to sysctl.o(.constdata) for .constdata
    rt_cmsis.o(i.isrMessageGet) refers to rt_mailbox.o(i.isr_mbx_receive) for isr_mbx_receive
    rt_cmsis.o(i.isrMessagePut) refers to rt_mailbox.o(i.rt_mbx_check) for rt_mbx_check
    rt_cmsis.o(i.isrMessagePut) refers to rt_mailbox.o(i.isr_mbx_send) for isr_mbx_send
    rt_cmsis.o(i.isrSemaphoreRelease) refers to rt_cmsis.o(i.rt_id2obj) for rt_id2obj
    rt_cmsis.o(i.isrSemaphoreRelease) refers to rt_semaphore.o(i.isr_sem_send) for isr_sem_send
    rt_cmsis.o(i.isrSignalSet) refers to rt_cmsis.o(i.rt_tid2ptcb) for rt_tid2ptcb
    rt_cmsis.o(i.isrSignalSet) refers to rt_event.o(i.isr_evt_set) for isr_evt_set
    rt_cmsis.o(i.osDelay) refers to rt_cmsis.o(i.svcDelay) for svcDelay
    rt_cmsis.o(i.osKernelInitialize) refers to rt_cmsis.o(i.svcKernelInitialize) for svcKernelInitialize
    rt_cmsis.o(i.osKernelRunning) refers to rt_cmsis.o(i.svcKernelRunning) for svcKernelRunning
    rt_cmsis.o(i.osKernelRunning) refers to rt_cmsis.o(.data) for .data
    rt_cmsis.o(i.osKernelStart) refers to rtx_conf_cm.o(.constdata) for os_flags
    rt_cmsis.o(i.osKernelStart) refers to rt_cmsis.o(i.svcKernelStart) for svcKernelStart
    rt_cmsis.o(i.osKernelSysTick) refers to rt_cmsis.o(i.svcKernelSysTick) for svcKernelSysTick
    rt_cmsis.o(i.osMailAlloc) refers to rt_cmsis.o(i.sysMailAlloc) for sysMailAlloc
    rt_cmsis.o(i.osMailCAlloc) refers to rt_cmsis.o(i.sysMailAlloc) for sysMailAlloc
    rt_cmsis.o(i.osMailCAlloc) refers to rt_cmsis.o(i.rt_clr_box) for rt_clr_box
    rt_cmsis.o(i.osMailCreate) refers to rt_cmsis.o(i.svcMailCreate) for svcMailCreate
    rt_cmsis.o(i.osMailCreate) refers to rt_cmsis.o(.data) for .data
    rt_cmsis.o(i.osMailFree) refers to rt_cmsis.o(i.sysMailFree) for sysMailFree
    rt_cmsis.o(i.osMailGet) refers to rt_cmsis.o(i.osMessageGet) for osMessageGet
    rt_cmsis.o(i.osMailPut) refers to rt_cmsis.o(i.osMessagePut) for osMessagePut
    rt_cmsis.o(i.osMessageCreate) refers to rt_cmsis.o(i.svcMessageCreate) for svcMessageCreate
    rt_cmsis.o(i.osMessageCreate) refers to rt_cmsis.o(.data) for .data
    rt_cmsis.o(i.osMessageGet) refers to rt_cmsis.o(i.isrMessageGet) for isrMessageGet
    rt_cmsis.o(i.osMessageGet) refers to rt_cmsis.o(i.svcMessageGet) for svcMessageGet
    rt_cmsis.o(i.osMessagePut) refers to rt_cmsis.o(i.isrMessagePut) for isrMessagePut
    rt_cmsis.o(i.osMessagePut) refers to rt_cmsis.o(i.svcMessagePut) for svcMessagePut
    rt_cmsis.o(i.osMutexCreate) refers to rt_cmsis.o(i.svcMutexCreate) for svcMutexCreate
    rt_cmsis.o(i.osMutexCreate) refers to rt_cmsis.o(.data) for .data
    rt_cmsis.o(i.osMutexDelete) refers to rt_cmsis.o(i.svcMutexDelete) for svcMutexDelete
    rt_cmsis.o(i.osMutexRelease) refers to rt_cmsis.o(i.svcMutexRelease) for svcMutexRelease
    rt_cmsis.o(i.osMutexWait) refers to rt_cmsis.o(i.svcMutexWait) for svcMutexWait
    rt_cmsis.o(i.osPoolAlloc) refers to rt_cmsis.o(i.sysPoolAlloc) for sysPoolAlloc
    rt_cmsis.o(i.osPoolCAlloc) refers to rt_cmsis.o(i.rt_clr_box) for rt_clr_box
    rt_cmsis.o(i.osPoolCAlloc) refers to rt_cmsis.o(i.sysPoolAlloc) for sysPoolAlloc
    rt_cmsis.o(i.osPoolCreate) refers to rt_cmsis.o(i.svcPoolCreate) for svcPoolCreate
    rt_cmsis.o(i.osPoolCreate) refers to rt_cmsis.o(.data) for .data
    rt_cmsis.o(i.osPoolFree) refers to rt_cmsis.o(i.sysPoolFree) for sysPoolFree
    rt_cmsis.o(i.osSemaphoreCreate) refers to rt_cmsis.o(i.svcSemaphoreCreate) for svcSemaphoreCreate
    rt_cmsis.o(i.osSemaphoreCreate) refers to rt_cmsis.o(.data) for .data
    rt_cmsis.o(i.osSemaphoreDelete) refers to rt_cmsis.o(i.svcSemaphoreDelete) for svcSemaphoreDelete
    rt_cmsis.o(i.osSemaphoreRelease) refers to rt_cmsis.o(i.isrSemaphoreRelease) for isrSemaphoreRelease
    rt_cmsis.o(i.osSemaphoreRelease) refers to rt_cmsis.o(i.svcSemaphoreRelease) for svcSemaphoreRelease
    rt_cmsis.o(i.osSemaphoreWait) refers to rt_cmsis.o(i.svcSemaphoreWait) for svcSemaphoreWait
    rt_cmsis.o(i.osSignalClear) refers to rt_cmsis.o(i.svcSignalClear) for svcSignalClear
    rt_cmsis.o(i.osSignalSet) refers to rt_cmsis.o(i.isrSignalSet) for isrSignalSet
    rt_cmsis.o(i.osSignalSet) refers to rt_cmsis.o(i.svcSignalSet) for svcSignalSet
    rt_cmsis.o(i.osSignalWait) refers to rt_cmsis.o(i.svcSignalWait) for svcSignalWait
    rt_cmsis.o(i.osThreadCreate) refers to rt_cmsis.o(i.svcThreadCreate) for svcThreadCreate
    rt_cmsis.o(i.osThreadCreate) refers to rt_cmsis.o(.data) for .data
    rt_cmsis.o(i.osThreadExit) refers to rt_cmsis.o(i.svcThreadGetId) for svcThreadGetId
    rt_cmsis.o(i.osThreadExit) refers to rt_cmsis.o(i.svcThreadTerminate) for svcThreadTerminate
    rt_cmsis.o(i.osThreadGetId) refers to rt_cmsis.o(i.svcThreadGetId) for svcThreadGetId
    rt_cmsis.o(i.osThreadGetPriority) refers to rt_cmsis.o(i.svcThreadGetPriority) for svcThreadGetPriority
    rt_cmsis.o(i.osThreadSetPriority) refers to rt_cmsis.o(i.svcThreadSetPriority) for svcThreadSetPriority
    rt_cmsis.o(i.osThreadTerminate) refers to rt_cmsis.o(i.svcThreadTerminate) for svcThreadTerminate
    rt_cmsis.o(i.osThreadYield) refers to rt_cmsis.o(i.svcThreadYield) for svcThreadYield
    rt_cmsis.o(i.osTimerCall) refers to rt_cmsis.o(i.svcTimerCall) for svcTimerCall
    rt_cmsis.o(i.osTimerCreate) refers to rt_cmsis.o(i.svcTimerCreate) for svcTimerCreate
    rt_cmsis.o(i.osTimerCreate) refers to rt_cmsis.o(.data) for .data
    rt_cmsis.o(i.osTimerDelete) refers to rt_cmsis.o(i.svcTimerDelete) for svcTimerDelete
    rt_cmsis.o(i.osTimerStart) refers to rt_cmsis.o(i.svcTimerStart) for svcTimerStart
    rt_cmsis.o(i.osTimerStop) refers to rt_cmsis.o(i.svcTimerStop) for svcTimerStop
    rt_cmsis.o(i.osTimerThread) refers to rt_cmsis.o(i.osMessageGet) for osMessageGet
    rt_cmsis.o(i.osTimerThread) refers to rt_cmsis.o(i.osTimerCall) for osTimerCall
    rt_cmsis.o(i.osTimerThread) refers to rtx_conf_cm.o(.data) for osMessageQId_osTimerMessageQ
    rt_cmsis.o(i.os_resume) refers to rt_system.o(i.rt_resume) for rt_resume
    rt_cmsis.o(i.os_suspend) refers to rt_system.o(i.rt_suspend) for rt_suspend
    rt_cmsis.o(i.rt_ms2tick) refers to rtx_conf_cm.o(.constdata) for os_clockrate
    rt_cmsis.o(i.rt_timer_insert) refers to rt_cmsis.o(.data) for .data
    rt_cmsis.o(i.rt_timer_remove) refers to rt_cmsis.o(.data) for .data
    rt_cmsis.o(i.svcDelay) refers to rt_cmsis.o(i.rt_ms2tick) for rt_ms2tick
    rt_cmsis.o(i.svcDelay) refers to rt_time.o(i.rt_dly_wait) for rt_dly_wait
    rt_cmsis.o(i.svcKernelInitialize) refers to rt_memory.o(i.rt_init_mem) for rt_init_mem
    rt_cmsis.o(i.svcKernelInitialize) refers to rt_task.o(i.rt_sys_init) for rt_sys_init
    rt_cmsis.o(i.svcKernelInitialize) refers to rt_cmsis.o(i.svcMessageCreate) for svcMessageCreate
    rt_cmsis.o(i.svcKernelInitialize) refers to rt_cmsis.o(i.svcThreadCreate) for svcThreadCreate
    rt_cmsis.o(i.svcKernelInitialize) refers to rt_cmsis.o(.data) for .data
    rt_cmsis.o(i.svcKernelInitialize) refers to rtx_conf_cm.o(.bss) for os_stack_mem
    rt_cmsis.o(i.svcKernelInitialize) refers to rtx_conf_cm.o(.constdata) for os_stack_sz
    rt_cmsis.o(i.svcKernelInitialize) refers to rt_task.o(.data) for os_tsk
    rt_cmsis.o(i.svcKernelInitialize) refers to rtx_conf_cm.o(.data) for osMessageQId_osTimerMessageQ
    rt_cmsis.o(i.svcKernelRunning) refers to rt_cmsis.o(.data) for .data
    rt_cmsis.o(i.svcKernelStart) refers to rt_task.o(i.rt_tsk_prio) for rt_tsk_prio
    rt_cmsis.o(i.svcKernelStart) refers to rt_task.o(i.rt_sys_start) for rt_sys_start
    rt_cmsis.o(i.svcKernelStart) refers to rt_cmsis.o(.data) for .data
    rt_cmsis.o(i.svcKernelStart) refers to rt_task.o(.data) for os_tsk
    rt_cmsis.o(i.svcKernelSysTick) refers to rt_system.o(i.os_tick_val) for os_tick_val
    rt_cmsis.o(i.svcKernelSysTick) refers to rt_system.o(i.os_tick_ovf) for os_tick_ovf
    rt_cmsis.o(i.svcKernelSysTick) refers to rtx_conf_cm.o(.constdata) for os_trv
    rt_cmsis.o(i.svcKernelSysTick) refers to rt_time.o(.data) for os_time
    rt_cmsis.o(i.svcMailCreate) refers to rt_membox.o(i._init_box) for _init_box
    rt_cmsis.o(i.svcMailCreate) refers to rt_mailbox.o(i.rt_mbx_init) for rt_mbx_init
    rt_cmsis.o(i.svcMessageCreate) refers to rt_mailbox.o(i.rt_mbx_init) for rt_mbx_init
    rt_cmsis.o(i.svcMessageGet) refers to rt_cmsis.o(i.rt_ms2tick) for rt_ms2tick
    rt_cmsis.o(i.svcMessageGet) refers to rt_mailbox.o(i.rt_mbx_wait) for rt_mbx_wait
    rt_cmsis.o(i.svcMessagePut) refers to rt_cmsis.o(i.rt_ms2tick) for rt_ms2tick
    rt_cmsis.o(i.svcMessagePut) refers to rt_mailbox.o(i.rt_mbx_send) for rt_mbx_send
    rt_cmsis.o(i.svcMutexCreate) refers to rt_mutex.o(i.rt_mut_init) for rt_mut_init
    rt_cmsis.o(i.svcMutexDelete) refers to rt_cmsis.o(i.rt_id2obj) for rt_id2obj
    rt_cmsis.o(i.svcMutexDelete) refers to rt_mutex.o(i.rt_mut_delete) for rt_mut_delete
    rt_cmsis.o(i.svcMutexRelease) refers to rt_cmsis.o(i.rt_id2obj) for rt_id2obj
    rt_cmsis.o(i.svcMutexRelease) refers to rt_mutex.o(i.rt_mut_release) for rt_mut_release
    rt_cmsis.o(i.svcMutexWait) refers to rt_cmsis.o(i.rt_id2obj) for rt_id2obj
    rt_cmsis.o(i.svcMutexWait) refers to rt_cmsis.o(i.rt_ms2tick) for rt_ms2tick
    rt_cmsis.o(i.svcMutexWait) refers to rt_mutex.o(i.rt_mut_wait) for rt_mut_wait
    rt_cmsis.o(i.svcPoolCreate) refers to rt_membox.o(i._init_box) for _init_box
    rt_cmsis.o(i.svcSemaphoreCreate) refers to rt_semaphore.o(i.rt_sem_init) for rt_sem_init
    rt_cmsis.o(i.svcSemaphoreDelete) refers to rt_cmsis.o(i.rt_id2obj) for rt_id2obj
    rt_cmsis.o(i.svcSemaphoreDelete) refers to rt_semaphore.o(i.rt_sem_delete) for rt_sem_delete
    rt_cmsis.o(i.svcSemaphoreRelease) refers to rt_cmsis.o(i.rt_id2obj) for rt_id2obj
    rt_cmsis.o(i.svcSemaphoreRelease) refers to rt_semaphore.o(i.rt_sem_send) for rt_sem_send
    rt_cmsis.o(i.svcSemaphoreWait) refers to rt_cmsis.o(i.rt_id2obj) for rt_id2obj
    rt_cmsis.o(i.svcSemaphoreWait) refers to rt_cmsis.o(i.rt_ms2tick) for rt_ms2tick
    rt_cmsis.o(i.svcSemaphoreWait) refers to rt_semaphore.o(i.rt_sem_wait) for rt_sem_wait
    rt_cmsis.o(i.svcSignalClear) refers to rt_cmsis.o(i.rt_tid2ptcb) for rt_tid2ptcb
    rt_cmsis.o(i.svcSignalClear) refers to rt_event.o(i.rt_evt_clr) for rt_evt_clr
    rt_cmsis.o(i.svcSignalSet) refers to rt_cmsis.o(i.rt_tid2ptcb) for rt_tid2ptcb
    rt_cmsis.o(i.svcSignalSet) refers to rt_event.o(i.rt_evt_set) for rt_evt_set
    rt_cmsis.o(i.svcSignalWait) refers to rt_cmsis.o(i.rt_ms2tick) for rt_ms2tick
    rt_cmsis.o(i.svcSignalWait) refers to rt_event.o(i.rt_evt_wait) for rt_evt_wait
    rt_cmsis.o(i.svcSignalWait) refers to rt_task.o(.data) for os_tsk
    rt_cmsis.o(i.svcThreadCreate) refers to rt_memory.o(i.rt_alloc_mem) for rt_alloc_mem
    rt_cmsis.o(i.svcThreadCreate) refers to rt_task.o(i.rt_tsk_create) for rt_tsk_create
    rt_cmsis.o(i.svcThreadCreate) refers to rt_memory.o(i.rt_free_mem) for rt_free_mem
    rt_cmsis.o(i.svcThreadCreate) refers to rtx_conf_cm.o(.bss) for os_stack_mem
    rt_cmsis.o(i.svcThreadCreate) refers to rt_cmsis.o(i.osThreadExit) for osThreadExit
    rt_cmsis.o(i.svcThreadGetId) refers to rt_task.o(i.rt_tsk_self) for rt_tsk_self
    rt_cmsis.o(i.svcThreadGetId) refers to rtx_conf_cm.o(.bss) for os_active_TCB
    rt_cmsis.o(i.svcThreadGetPriority) refers to rt_cmsis.o(i.rt_tid2ptcb) for rt_tid2ptcb
    rt_cmsis.o(i.svcThreadSetPriority) refers to rt_cmsis.o(i.rt_tid2ptcb) for rt_tid2ptcb
    rt_cmsis.o(i.svcThreadSetPriority) refers to rt_task.o(i.rt_tsk_prio) for rt_tsk_prio
    rt_cmsis.o(i.svcThreadTerminate) refers to rt_cmsis.o(i.rt_tid2ptcb) for rt_tid2ptcb
    rt_cmsis.o(i.svcThreadTerminate) refers to rt_task.o(i.rt_tsk_delete) for rt_tsk_delete
    rt_cmsis.o(i.svcThreadTerminate) refers to rt_memory.o(i.rt_free_mem) for rt_free_mem
    rt_cmsis.o(i.svcThreadTerminate) refers to rtx_conf_cm.o(.bss) for os_stack_mem
    rt_cmsis.o(i.svcThreadYield) refers to rt_task.o(i.rt_tsk_pass) for rt_tsk_pass
    rt_cmsis.o(i.svcTimerCall) refers to rt_cmsis.o(i.rt_id2obj) for rt_id2obj
    rt_cmsis.o(i.svcTimerCreate) refers to rtx_conf_cm.o(.data) for osThreadId_osTimerThread
    rt_cmsis.o(i.svcTimerDelete) refers to rt_cmsis.o(i.rt_id2obj) for rt_id2obj
    rt_cmsis.o(i.svcTimerDelete) refers to rt_cmsis.o(i.rt_timer_remove) for rt_timer_remove
    rt_cmsis.o(i.svcTimerStart) refers to rt_cmsis.o(i.rt_id2obj) for rt_id2obj
    rt_cmsis.o(i.svcTimerStart) refers to lludivv7m.o(.text) for __aeabi_uldivmod
    rt_cmsis.o(i.svcTimerStart) refers to rt_cmsis.o(i.rt_timer_remove) for rt_timer_remove
    rt_cmsis.o(i.svcTimerStart) refers to rt_cmsis.o(i.rt_timer_insert) for rt_timer_insert
    rt_cmsis.o(i.svcTimerStart) refers to rtx_conf_cm.o(.constdata) for os_clockrate
    rt_cmsis.o(i.svcTimerStop) refers to rt_cmsis.o(i.rt_id2obj) for rt_id2obj
    rt_cmsis.o(i.svcTimerStop) refers to rt_cmsis.o(i.rt_timer_remove) for rt_timer_remove
    rt_cmsis.o(i.sysMailAlloc) refers to rt_membox.o(i.rt_alloc_box) for rt_alloc_box
    rt_cmsis.o(i.sysMailAlloc) refers to rt_list.o(i.rt_put_prio) for rt_put_prio
    rt_cmsis.o(i.sysMailAlloc) refers to rt_cmsis.o(i.rt_ms2tick) for rt_ms2tick
    rt_cmsis.o(i.sysMailAlloc) refers to rt_task.o(i.rt_block) for rt_block
    rt_cmsis.o(i.sysMailAlloc) refers to rt_task.o(.data) for os_tsk
    rt_cmsis.o(i.sysMailFree) refers to rt_membox.o(i.rt_free_box) for rt_free_box
    rt_cmsis.o(i.sysMailFree) refers to rt_list.o(i.rt_psq_enq) for rt_psq_enq
    rt_cmsis.o(i.sysMailFree) refers to rt_system.o(i.rt_psh_req) for rt_psh_req
    rt_cmsis.o(i.sysMailFree) refers to rt_membox.o(i.rt_alloc_box) for rt_alloc_box
    rt_cmsis.o(i.sysMailFree) refers to rt_list.o(i.rt_get_first) for rt_get_first
    rt_cmsis.o(i.sysMailFree) refers to hal_cm.o(i.rt_ret_val) for rt_ret_val
    rt_cmsis.o(i.sysMailFree) refers to rt_list.o(i.rt_rmv_dly) for rt_rmv_dly
    rt_cmsis.o(i.sysMailFree) refers to rt_task.o(i.rt_dispatch) for rt_dispatch
    rt_cmsis.o(i.sysPoolAlloc) refers to rt_membox.o(i.rt_alloc_box) for rt_alloc_box
    rt_cmsis.o(i.sysPoolFree) refers to rt_membox.o(i.rt_free_box) for rt_free_box
    rt_cmsis.o(i.sysTimerTick) refers to rt_cmsis.o(i.isrMessagePut) for isrMessagePut
    rt_cmsis.o(i.sysTimerTick) refers to rtx_conf_cm.o(.text) for os_error
    rt_cmsis.o(i.sysTimerTick) refers to rt_cmsis.o(i.rt_timer_insert) for rt_timer_insert
    rt_cmsis.o(i.sysTimerTick) refers to rt_cmsis.o(.data) for .data
    rt_cmsis.o(i.sysTimerTick) refers to rtx_conf_cm.o(.data) for osMessageQId_osTimerMessageQ
    rt_cmsis.o(i.sysUserTimerUpdate) refers to rt_cmsis.o(i.sysTimerTick) for sysTimerTick
    rt_cmsis.o(i.sysUserTimerUpdate) refers to rt_cmsis.o(.data) for .data
    rt_cmsis.o(i.sysUserTimerWakeupTime) refers to rt_cmsis.o(.data) for .data
    rt_task.o(i.rt_block) refers to rt_list.o(i.rt_put_dly) for rt_put_dly
    rt_task.o(i.rt_block) refers to rt_list.o(i.rt_get_first) for rt_get_first
    rt_task.o(i.rt_block) refers to rt_task.o(i.rt_switch_req) for rt_switch_req
    rt_task.o(i.rt_block) refers to rt_task.o(.data) for .data
    rt_task.o(i.rt_block) refers to rt_list.o(.bss) for os_rdy
    rt_task.o(i.rt_dispatch) refers to rt_list.o(i.rt_put_rdy_first) for rt_put_rdy_first
    rt_task.o(i.rt_dispatch) refers to rt_task.o(i.rt_switch_req) for rt_switch_req
    rt_task.o(i.rt_dispatch) refers to rt_list.o(i.rt_get_first) for rt_get_first
    rt_task.o(i.rt_dispatch) refers to rt_list.o(i.rt_put_prio) for rt_put_prio
    rt_task.o(i.rt_dispatch) refers to rt_task.o(.data) for .data
    rt_task.o(i.rt_dispatch) refers to rt_list.o(.bss) for os_rdy
    rt_task.o(i.rt_init_context) refers to rt_membox.o(i.rt_alloc_box) for rt_alloc_box
    rt_task.o(i.rt_init_context) refers to hal_cm.o(i.rt_init_stack) for rt_init_stack
    rt_task.o(i.rt_init_context) refers to rtx_conf_cm.o(.bss) for mp_stk
    rt_task.o(i.rt_switch_req) refers to hal_cm.o(i.dbg_task_switch) for dbg_task_switch
    rt_task.o(i.rt_switch_req) refers to rt_task.o(.data) for .data
    rt_task.o(i.rt_switch_req) refers to hal_cm.o(.data) for dbg_msg
    rt_task.o(i.rt_sys_init) refers to hal_cm.o(i.dbg_init) for dbg_init
    rt_task.o(i.rt_sys_init) refers to rt_membox.o(i._init_box) for _init_box
    rt_task.o(i.rt_sys_init) refers to rt_task.o(i.rt_init_context) for rt_init_context
    rt_task.o(i.rt_sys_init) refers to rt_robin.o(i.rt_init_robin) for rt_init_robin
    rt_task.o(i.rt_sys_init) refers to rtx_conf_cm.o(.bss) for os_active_TCB
    rt_task.o(i.rt_sys_init) refers to rtx_conf_cm.o(.constdata) for os_maxtaskrun
    rt_task.o(i.rt_sys_init) refers to rtx_conf_cm.o(.data) for m_tmr
    rt_task.o(i.rt_sys_init) refers to rt_task.o(.bss) for .bss
    rt_task.o(i.rt_sys_init) refers to rtx_conf_cm.o(.text) for os_idle_demon
    rt_task.o(i.rt_sys_init) refers to rt_list.o(.bss) for os_rdy
    rt_task.o(i.rt_sys_init) refers to rt_task.o(.data) for .data
    rt_task.o(i.rt_sys_start) refers to rt_system.o(i.os_tick_init) for os_tick_init
    rt_task.o(i.rt_sys_start) refers to rt_system.o(.data) for os_tick_irqn
    rt_task.o(i.rt_tsk_create) refers to rt_membox.o(i.rt_alloc_box) for rt_alloc_box
    rt_task.o(i.rt_tsk_create) refers to rt_task.o(i.rt_init_context) for rt_init_context
    rt_task.o(i.rt_tsk_create) refers to hal_cm.o(i.dbg_task_notify) for dbg_task_notify
    rt_task.o(i.rt_tsk_create) refers to rt_task.o(i.rt_dispatch) for rt_dispatch
    rt_task.o(i.rt_tsk_create) refers to rtx_conf_cm.o(.bss) for mp_tcb
    rt_task.o(i.rt_tsk_create) refers to rtx_conf_cm.o(.constdata) for os_maxtaskrun
    rt_task.o(i.rt_tsk_create) refers to hal_cm.o(.data) for dbg_msg
    rt_task.o(i.rt_tsk_delete) refers to hal_cm4.o(.emb_text) for rt_get_PSP
    rt_task.o(i.rt_tsk_delete) refers to rt_system.o(i.rt_stk_check) for rt_stk_check
    rt_task.o(i.rt_tsk_delete) refers to rt_list.o(i.rt_get_first) for rt_get_first
    rt_task.o(i.rt_tsk_delete) refers to hal_cm.o(i.rt_ret_val) for rt_ret_val
    rt_task.o(i.rt_tsk_delete) refers to rt_list.o(i.rt_rmv_dly) for rt_rmv_dly
    rt_task.o(i.rt_tsk_delete) refers to rt_list.o(i.rt_put_prio) for rt_put_prio
    rt_task.o(i.rt_tsk_delete) refers to rt_membox.o(i.rt_free_box) for rt_free_box
    rt_task.o(i.rt_tsk_delete) refers to hal_cm.o(i.dbg_task_notify) for dbg_task_notify
    rt_task.o(i.rt_tsk_delete) refers to rt_list.o(i.rt_rmv_list) for rt_rmv_list
    rt_task.o(i.rt_tsk_delete) refers to rt_task.o(i.rt_dispatch) for rt_dispatch
    rt_task.o(i.rt_tsk_delete) refers to hal_cm.o(.data) for dbg_msg
    rt_task.o(i.rt_tsk_delete) refers to rtx_conf_cm.o(.bss) for os_active_TCB
    rt_task.o(i.rt_tsk_delete) refers to rt_task.o(.data) for .data
    rt_task.o(i.rt_tsk_delete) refers to rt_list.o(.bss) for os_rdy
    rt_task.o(i.rt_tsk_delete) refers to rtx_conf_cm.o(.constdata) for os_maxtaskrun
    rt_task.o(i.rt_tsk_pass) refers to rt_list.o(i.rt_get_same_rdy_prio) for rt_get_same_rdy_prio
    rt_task.o(i.rt_tsk_pass) refers to rt_list.o(i.rt_put_prio) for rt_put_prio
    rt_task.o(i.rt_tsk_pass) refers to rt_task.o(i.rt_switch_req) for rt_switch_req
    rt_task.o(i.rt_tsk_pass) refers to rt_task.o(.data) for .data
    rt_task.o(i.rt_tsk_pass) refers to rt_list.o(.bss) for os_rdy
    rt_task.o(i.rt_tsk_prio) refers to rt_list.o(i.rt_put_prio) for rt_put_prio
    rt_task.o(i.rt_tsk_prio) refers to rt_list.o(i.rt_resort_prio) for rt_resort_prio
    rt_task.o(i.rt_tsk_prio) refers to rt_list.o(i.rt_get_first) for rt_get_first
    rt_task.o(i.rt_tsk_prio) refers to rt_task.o(i.rt_dispatch) for rt_dispatch
    rt_task.o(i.rt_tsk_prio) refers to rt_task.o(.data) for .data
    rt_task.o(i.rt_tsk_prio) refers to rtx_conf_cm.o(.constdata) for os_maxtaskrun
    rt_task.o(i.rt_tsk_prio) refers to rtx_conf_cm.o(.bss) for os_active_TCB
    rt_task.o(i.rt_tsk_prio) refers to rt_list.o(.bss) for os_rdy
    rt_task.o(i.rt_tsk_self) refers to rt_task.o(.data) for .data
    rt_mutex.o(i.rt_mut_delete) refers to rt_list.o(i.rt_resort_prio) for rt_resort_prio
    rt_mutex.o(i.rt_mut_delete) refers to rt_list.o(i.rt_get_first) for rt_get_first
    rt_mutex.o(i.rt_mut_delete) refers to hal_cm.o(i.rt_ret_val) for rt_ret_val
    rt_mutex.o(i.rt_mut_delete) refers to rt_list.o(i.rt_rmv_dly) for rt_rmv_dly
    rt_mutex.o(i.rt_mut_delete) refers to rt_list.o(i.rt_put_prio) for rt_put_prio
    rt_mutex.o(i.rt_mut_delete) refers to rt_task.o(i.rt_dispatch) for rt_dispatch
    rt_mutex.o(i.rt_mut_delete) refers to rt_task.o(.data) for os_tsk
    rt_mutex.o(i.rt_mut_delete) refers to rt_list.o(.bss) for os_rdy
    rt_mutex.o(i.rt_mut_release) refers to rt_list.o(i.rt_get_first) for rt_get_first
    rt_mutex.o(i.rt_mut_release) refers to hal_cm.o(i.rt_ret_val) for rt_ret_val
    rt_mutex.o(i.rt_mut_release) refers to rt_list.o(i.rt_rmv_dly) for rt_rmv_dly
    rt_mutex.o(i.rt_mut_release) refers to rt_list.o(i.rt_put_prio) for rt_put_prio
    rt_mutex.o(i.rt_mut_release) refers to rt_task.o(i.rt_dispatch) for rt_dispatch
    rt_mutex.o(i.rt_mut_release) refers to rt_task.o(.data) for os_tsk
    rt_mutex.o(i.rt_mut_release) refers to rt_list.o(.bss) for os_rdy
    rt_mutex.o(i.rt_mut_wait) refers to rt_list.o(i.rt_resort_prio) for rt_resort_prio
    rt_mutex.o(i.rt_mut_wait) refers to rt_list.o(i.rt_put_prio) for rt_put_prio
    rt_mutex.o(i.rt_mut_wait) refers to rt_task.o(i.rt_block) for rt_block
    rt_mutex.o(i.rt_mut_wait) refers to rt_task.o(.data) for os_tsk
    interrupt.o(i.IntDisable) refers to interrupt.o(.constdata) for .constdata
    interrupt.o(i.IntEnable) refers to interrupt.o(.constdata) for .constdata
    interrupt.o(i.IntIsEnabled) refers to interrupt.o(.constdata) for .constdata
    interrupt.o(i.IntMasterDisable) refers to cpu.o(.emb_text) for CPUcpsid
    interrupt.o(i.IntMasterEnable) refers to cpu.o(.emb_text) for CPUcpsie
    interrupt.o(i.IntPendClear) refers to interrupt.o(.constdata) for .constdata
    interrupt.o(i.IntPendSet) refers to interrupt.o(.constdata) for .constdata
    interrupt.o(i.IntPriorityGet) refers to interrupt.o(.constdata) for .constdata
    interrupt.o(i.IntPriorityGroupingGet) refers to interrupt.o(.constdata) for .constdata
    interrupt.o(i.IntPriorityGroupingSet) refers to interrupt.o(.constdata) for .constdata
    interrupt.o(i.IntPriorityMaskGet) refers to cpu.o(.emb_text) for CPUbasepriGet
    interrupt.o(i.IntPriorityMaskSet) refers to cpu.o(.emb_text) for CPUbasepriSet
    interrupt.o(i.IntPrioritySet) refers to interrupt.o(.constdata) for .constdata
    interrupt.o(i.IntRegister) refers to interrupt.o(vtable) for vtable
    interrupt.o(i.IntUnregister) refers to interrupt.o(i._IntDefaultHandler) for _IntDefaultHandler
    interrupt.o(i.IntUnregister) refers to interrupt.o(vtable) for vtable
    rt_system.o(i.os_tick_init) refers to rtx_conf_cm.o(.constdata) for os_trv
    rt_system.o(i.os_tick_val) refers to rtx_conf_cm.o(.constdata) for os_trv
    rt_system.o(i.rt_pop_req) refers to rt_list.o(i.rt_put_rdy_first) for rt_put_rdy_first
    rt_system.o(i.rt_pop_req) refers to rt_semaphore.o(i.rt_sem_psh) for rt_sem_psh
    rt_system.o(i.rt_pop_req) refers to rt_list.o(i.rt_get_first) for rt_get_first
    rt_system.o(i.rt_pop_req) refers to rt_task.o(i.rt_switch_req) for rt_switch_req
    rt_system.o(i.rt_pop_req) refers to rt_event.o(i.rt_evt_psh) for rt_evt_psh
    rt_system.o(i.rt_pop_req) refers to rt_mailbox.o(i.rt_mbx_psh) for rt_mbx_psh
    rt_system.o(i.rt_pop_req) refers to rt_task.o(.data) for os_tsk
    rt_system.o(i.rt_pop_req) refers to rtx_conf_cm.o(.bss) for os_fifo
    rt_system.o(i.rt_pop_req) refers to rt_list.o(.bss) for os_rdy
    rt_system.o(i.rt_psh_req) refers to rt_system.o(.data) for .data
    rt_system.o(i.rt_resume) refers to rt_list.o(i.rt_put_rdy_first) for rt_put_rdy_first
    rt_system.o(i.rt_resume) refers to rt_list.o(i.rt_dec_dly) for rt_dec_dly
    rt_system.o(i.rt_resume) refers to rt_cmsis.o(i.sysUserTimerUpdate) for sysUserTimerUpdate
    rt_system.o(i.rt_resume) refers to rt_list.o(i.rt_get_first) for rt_get_first
    rt_system.o(i.rt_resume) refers to rt_task.o(i.rt_switch_req) for rt_switch_req
    rt_system.o(i.rt_resume) refers to rt_system.o(i.rt_tsk_unlock) for rt_tsk_unlock
    rt_system.o(i.rt_resume) refers to rt_task.o(.data) for os_tsk
    rt_system.o(i.rt_resume) refers to rt_robin.o(.data) for os_robin
    rt_system.o(i.rt_resume) refers to rt_list.o(.bss) for os_dly
    rt_system.o(i.rt_resume) refers to rt_time.o(.data) for os_time
    rt_system.o(i.rt_stk_check) refers to rtx_conf_cm.o(.text) for os_error
    rt_system.o(i.rt_stk_check) refers to rt_task.o(.data) for os_tsk
    rt_system.o(i.rt_suspend) refers to rt_system.o(i.rt_tsk_lock) for rt_tsk_lock
    rt_system.o(i.rt_suspend) refers to rt_cmsis.o(i.sysUserTimerWakeupTime) for sysUserTimerWakeupTime
    rt_system.o(i.rt_suspend) refers to rt_list.o(.bss) for os_dly
    rt_system.o(i.rt_systick) refers to rt_list.o(i.rt_put_rdy_first) for rt_put_rdy_first
    rt_system.o(i.rt_systick) refers to rt_robin.o(i.rt_chk_robin) for rt_chk_robin
    rt_system.o(i.rt_systick) refers to rt_list.o(i.rt_dec_dly) for rt_dec_dly
    rt_system.o(i.rt_systick) refers to rt_cmsis.o(i.sysTimerTick) for sysTimerTick
    rt_system.o(i.rt_systick) refers to rt_list.o(i.rt_get_first) for rt_get_first
    rt_system.o(i.rt_systick) refers to rt_task.o(i.rt_switch_req) for rt_switch_req
    rt_system.o(i.rt_systick) refers to rt_task.o(.data) for os_tsk
    rt_system.o(i.rt_systick) refers to rt_time.o(.data) for os_time
    rt_system.o(i.rt_systick) refers to rt_list.o(.bss) for os_rdy
    rt_system.o(i.rt_tsk_lock) refers to rt_system.o(.data) for .data
    rt_system.o(i.rt_tsk_unlock) refers to rt_system.o(.data) for .data
    rt_event.o(i.isr_evt_set) refers to rt_list.o(i.rt_psq_enq) for rt_psq_enq
    rt_event.o(i.isr_evt_set) refers to rt_system.o(i.rt_psh_req) for rt_psh_req
    rt_event.o(i.isr_evt_set) refers to rtx_conf_cm.o(.bss) for os_active_TCB
    rt_event.o(i.rt_evt_clr) refers to rtx_conf_cm.o(.bss) for os_active_TCB
    rt_event.o(i.rt_evt_get) refers to rt_task.o(.data) for os_tsk
    rt_event.o(i.rt_evt_psh) refers to rt_list.o(i.rt_rmv_dly) for rt_rmv_dly
    rt_event.o(i.rt_evt_psh) refers to hal_cm.o(i.rt_ret_val2) for rt_ret_val2
    rt_event.o(i.rt_evt_psh) refers to rt_list.o(i.rt_put_prio) for rt_put_prio
    rt_event.o(i.rt_evt_psh) refers to rt_list.o(.bss) for os_rdy
    rt_event.o(i.rt_evt_set) refers to rt_list.o(i.rt_rmv_dly) for rt_rmv_dly
    rt_event.o(i.rt_evt_set) refers to hal_cm.o(i.rt_ret_val2) for rt_ret_val2
    rt_event.o(i.rt_evt_set) refers to rt_task.o(i.rt_dispatch) for rt_dispatch
    rt_event.o(i.rt_evt_set) refers to rtx_conf_cm.o(.bss) for os_active_TCB
    rt_event.o(i.rt_evt_wait) refers to rt_task.o(i.rt_block) for rt_block
    rt_event.o(i.rt_evt_wait) refers to rt_task.o(.data) for os_tsk
    rt_list.o(i.rt_dec_dly) refers to rt_list.o(i.rt_put_prio) for rt_put_prio
    rt_list.o(i.rt_dec_dly) refers to rt_list.o(.bss) for .bss
    rt_list.o(i.rt_dec_dly) refers to rt_time.o(.data) for os_time
    rt_list.o(i.rt_get_same_rdy_prio) refers to rt_list.o(.bss) for .bss
    rt_list.o(i.rt_get_same_rdy_prio) refers to rt_task.o(.data) for os_tsk
    rt_list.o(i.rt_psq_enq) refers to rtx_conf_cm.o(.text) for os_error
    rt_list.o(i.rt_psq_enq) refers to rtx_conf_cm.o(.bss) for os_fifo
    rt_list.o(i.rt_put_dly) refers to rt_list.o(.bss) for .bss
    rt_list.o(i.rt_put_rdy_first) refers to rt_list.o(.bss) for .bss
    rt_list.o(i.rt_resort_prio) refers to rt_list.o(i.rt_rmv_list) for rt_rmv_list
    rt_list.o(i.rt_resort_prio) refers to rt_list.o(i.rt_put_prio) for rt_put_prio
    rt_list.o(i.rt_resort_prio) refers to rt_list.o(.bss) for .bss
    rt_list.o(i.rt_rmv_list) refers to rt_list.o(.bss) for .bss
    rt_mailbox.o(i.isr_mbx_receive) refers to rt_list.o(i.rt_psq_enq) for rt_psq_enq
    rt_mailbox.o(i.isr_mbx_receive) refers to rt_system.o(i.rt_psh_req) for rt_psh_req
    rt_mailbox.o(i.isr_mbx_send) refers to rt_list.o(i.rt_psq_enq) for rt_psq_enq
    rt_mailbox.o(i.isr_mbx_send) refers to rt_system.o(i.rt_psh_req) for rt_psh_req
    rt_mailbox.o(i.rt_mbx_psh) refers to rt_membox.o(i.rt_alloc_box) for rt_alloc_box
    rt_mailbox.o(i.rt_mbx_psh) refers to rt_list.o(i.rt_get_first) for rt_get_first
    rt_mailbox.o(i.rt_mbx_psh) refers to hal_cm.o(i.rt_ret_val) for rt_ret_val
    rt_mailbox.o(i.rt_mbx_psh) refers to rt_list.o(i.rt_rmv_dly) for rt_rmv_dly
    rt_mailbox.o(i.rt_mbx_psh) refers to rt_list.o(i.rt_put_prio) for rt_put_prio
    rt_mailbox.o(i.rt_mbx_psh) refers to hal_cm.o(i.rt_ret_val2) for rt_ret_val2
    rt_mailbox.o(i.rt_mbx_psh) refers to rtx_conf_cm.o(.text) for os_error
    rt_mailbox.o(i.rt_mbx_psh) refers to rt_list.o(.bss) for os_rdy
    rt_mailbox.o(i.rt_mbx_send) refers to rt_list.o(i.rt_put_prio) for rt_put_prio
    rt_mailbox.o(i.rt_mbx_send) refers to rt_list.o(i.rt_get_first) for rt_get_first
    rt_mailbox.o(i.rt_mbx_send) refers to hal_cm.o(i.rt_ret_val2) for rt_ret_val2
    rt_mailbox.o(i.rt_mbx_send) refers to rt_list.o(i.rt_rmv_dly) for rt_rmv_dly
    rt_mailbox.o(i.rt_mbx_send) refers to rt_task.o(i.rt_dispatch) for rt_dispatch
    rt_mailbox.o(i.rt_mbx_send) refers to rt_task.o(i.rt_block) for rt_block
    rt_mailbox.o(i.rt_mbx_send) refers to rt_task.o(.data) for os_tsk
    rt_mailbox.o(i.rt_mbx_wait) refers to rt_list.o(i.rt_get_first) for rt_get_first
    rt_mailbox.o(i.rt_mbx_wait) refers to hal_cm.o(i.rt_ret_val) for rt_ret_val
    rt_mailbox.o(i.rt_mbx_wait) refers to rt_list.o(i.rt_rmv_dly) for rt_rmv_dly
    rt_mailbox.o(i.rt_mbx_wait) refers to rt_task.o(i.rt_dispatch) for rt_dispatch
    rt_mailbox.o(i.rt_mbx_wait) refers to rt_list.o(i.rt_put_prio) for rt_put_prio
    rt_mailbox.o(i.rt_mbx_wait) refers to rt_task.o(i.rt_block) for rt_block
    rt_mailbox.o(i.rt_mbx_wait) refers to rt_task.o(.data) for os_tsk
    rt_semaphore.o(i.isr_sem_send) refers to rt_list.o(i.rt_psq_enq) for rt_psq_enq
    rt_semaphore.o(i.isr_sem_send) refers to rt_system.o(i.rt_psh_req) for rt_psh_req
    rt_semaphore.o(i.rt_sem_delete) refers to rt_list.o(i.rt_get_first) for rt_get_first
    rt_semaphore.o(i.rt_sem_delete) refers to hal_cm.o(i.rt_ret_val) for rt_ret_val
    rt_semaphore.o(i.rt_sem_delete) refers to rt_list.o(i.rt_rmv_dly) for rt_rmv_dly
    rt_semaphore.o(i.rt_sem_delete) refers to rt_list.o(i.rt_put_prio) for rt_put_prio
    rt_semaphore.o(i.rt_sem_delete) refers to rt_task.o(i.rt_dispatch) for rt_dispatch
    rt_semaphore.o(i.rt_sem_delete) refers to rt_list.o(.bss) for os_rdy
    rt_semaphore.o(i.rt_sem_delete) refers to rt_task.o(.data) for os_tsk
    rt_semaphore.o(i.rt_sem_psh) refers to rt_list.o(i.rt_get_first) for rt_get_first
    rt_semaphore.o(i.rt_sem_psh) refers to rt_list.o(i.rt_rmv_dly) for rt_rmv_dly
    rt_semaphore.o(i.rt_sem_psh) refers to hal_cm.o(i.rt_ret_val) for rt_ret_val
    rt_semaphore.o(i.rt_sem_psh) refers to rt_list.o(i.rt_put_prio) for rt_put_prio
    rt_semaphore.o(i.rt_sem_psh) refers to rt_list.o(.bss) for os_rdy
    rt_semaphore.o(i.rt_sem_send) refers to rt_list.o(i.rt_get_first) for rt_get_first
    rt_semaphore.o(i.rt_sem_send) refers to hal_cm.o(i.rt_ret_val) for rt_ret_val
    rt_semaphore.o(i.rt_sem_send) refers to rt_list.o(i.rt_rmv_dly) for rt_rmv_dly
    rt_semaphore.o(i.rt_sem_send) refers to rt_task.o(i.rt_dispatch) for rt_dispatch
    rt_semaphore.o(i.rt_sem_wait) refers to rt_list.o(i.rt_put_prio) for rt_put_prio
    rt_semaphore.o(i.rt_sem_wait) refers to rt_task.o(i.rt_block) for rt_block
    rt_semaphore.o(i.rt_sem_wait) refers to rt_task.o(.data) for os_tsk
    rt_time.o(i.rt_dly_wait) refers to rt_task.o(i.rt_block) for rt_block
    rt_time.o(i.rt_itv_set) refers to rt_task.o(.data) for os_tsk
    rt_time.o(i.rt_itv_set) refers to rt_time.o(.data) for .data
    rt_time.o(i.rt_itv_wait) refers to rt_task.o(i.rt_block) for rt_block
    rt_time.o(i.rt_itv_wait) refers to rt_task.o(.data) for os_tsk
    rt_time.o(i.rt_itv_wait) refers to rt_time.o(.data) for .data
    rt_time.o(i.rt_time_get) refers to rt_time.o(.data) for .data
    rt_robin.o(i.rt_chk_robin) refers to rt_list.o(i.rt_get_first) for rt_get_first
    rt_robin.o(i.rt_chk_robin) refers to rt_list.o(i.rt_put_prio) for rt_put_prio
    rt_robin.o(i.rt_chk_robin) refers to rt_robin.o(.data) for .data
    rt_robin.o(i.rt_chk_robin) refers to rt_list.o(.bss) for os_rdy
    rt_robin.o(i.rt_chk_robin) refers to rt_time.o(.data) for os_time
    rt_robin.o(i.rt_init_robin) refers to rt_robin.o(.data) for .data
    rt_robin.o(i.rt_init_robin) refers to rtx_conf_cm.o(.constdata) for os_rrobin
    rt_membox.o(i._calloc_box) refers to hal_cm4.o(.emb_text) for _alloc_box
    hal_cm.o(i.dbg_init) refers to hal_cm.o(.data) for .data
    hal_cm.o(i.rt_init_stack) refers to rtx_conf_cm.o(.constdata) for os_stackinfo
    hal_cm.o(i.rt_ret_val) refers to hal_cm.o(i.rt_ret_regs) for rt_ret_regs
    hal_cm.o(i.rt_ret_val2) refers to hal_cm.o(i.rt_ret_regs) for rt_ret_regs
    hal_cm4.o(.emb_text) refers to rtx_conf_cm.o(.constdata) for os_flags
    hal_cm4.o(.emb_text) refers to rt_membox.o(i.rt_alloc_box) for rt_alloc_box
    hal_cm4.o(.emb_text) refers to rt_membox.o(i.rt_free_box) for rt_free_box
    hal_cm4.o(.emb_text) refers to rt_system.o(i.rt_stk_check) for rt_stk_check
    hal_cm4.o(.emb_text) refers to rt_task.o(.data) for os_tsk
    hal_cm4.o(.emb_text) refers to svc_table.o(SVC_TABLE) for SVC_Count
    hal_cm4.o(.emb_text) refers to rt_system.o(i.rt_pop_req) for rt_pop_req
    hal_cm4.o(.emb_text) refers to rt_system.o(i.rt_systick) for rt_systick
    hal_cm4.o(.emb_text) refers to rt_system.o(i.os_tick_irqack) for os_tick_irqack
    libspace.o(.text) refers to libspace.o(.bss) for __libspace_start
    llsdiv.o(.text) refers to lludivv7m.o(.text) for __aeabi_uldivmod
    exit.o(.text) refers to rtexit.o(.ARM.Collect$$rtexit$$00000000) for __rt_exit
    __main.o(!!!main) refers to __rtentry.o(.ARM.Collect$$rtentry$$00000000) for __rt_entry
    d2f.o(x$fpl$d2f) refers (Special) to usenofp.o(x$fpl$usenofp) for __I$use$fp
    d2f.o(x$fpl$d2f) refers to fretinf.o(x$fpl$fretinf) for __fpl_fretinf
    d2f.o(x$fpl$d2f) refers to dnaninf.o(x$fpl$dnaninf) for __fpl_dnaninf
    daddsub_clz.o(x$fpl$dadd) refers (Special) to usenofp.o(x$fpl$usenofp) for __I$use$fp
    daddsub_clz.o(x$fpl$dadd) refers to daddsub_clz.o(x$fpl$dsub) for _dsub1
    daddsub_clz.o(x$fpl$dadd) refers to dretinf.o(x$fpl$dretinf) for __fpl_dretinf
    daddsub_clz.o(x$fpl$dadd) refers to dnaninf.o(x$fpl$dnaninf) for __fpl_dnaninf
    daddsub_clz.o(x$fpl$drsb) refers (Special) to usenofp.o(x$fpl$usenofp) for __I$use$fp
    daddsub_clz.o(x$fpl$drsb) refers to daddsub_clz.o(x$fpl$dadd) for _dadd1
    daddsub_clz.o(x$fpl$drsb) refers to daddsub_clz.o(x$fpl$dsub) for _dsub1
    daddsub_clz.o(x$fpl$dsub) refers (Special) to usenofp.o(x$fpl$usenofp) for __I$use$fp
    daddsub_clz.o(x$fpl$dsub) refers to daddsub_clz.o(x$fpl$dadd) for _dadd1
    daddsub_clz.o(x$fpl$dsub) refers to dnaninf.o(x$fpl$dnaninf) for __fpl_dnaninf
    ddiv.o(x$fpl$drdiv) refers (Special) to usenofp.o(x$fpl$usenofp) for __I$use$fp
    ddiv.o(x$fpl$drdiv) refers to ddiv.o(x$fpl$ddiv) for ddiv_entry
    ddiv.o(x$fpl$ddiv) refers (Special) to usenofp.o(x$fpl$usenofp) for __I$use$fp
    ddiv.o(x$fpl$ddiv) refers to dretinf.o(x$fpl$dretinf) for __fpl_dretinf
    ddiv.o(x$fpl$ddiv) refers to dnaninf.o(x$fpl$dnaninf) for __fpl_dnaninf
    dfix.o(x$fpl$dfix) refers (Special) to usenofp.o(x$fpl$usenofp) for __I$use$fp
    dfix.o(x$fpl$dfix) refers to dnaninf.o(x$fpl$dnaninf) for __fpl_dnaninf
    dfix.o(x$fpl$dfixr) refers (Special) to usenofp.o(x$fpl$usenofp) for __I$use$fp
    dfix.o(x$fpl$dfixr) refers to dnaninf.o(x$fpl$dnaninf) for __fpl_dnaninf
    dflt_clz.o(x$fpl$dfltu) refers (Special) to usenofp.o(x$fpl$usenofp) for __I$use$fp
    dflt_clz.o(x$fpl$dflt) refers (Special) to usenofp.o(x$fpl$usenofp) for __I$use$fp
    dflt_clz.o(x$fpl$dfltn) refers (Special) to usenofp.o(x$fpl$usenofp) for __I$use$fp
    dleqf.o(x$fpl$dleqf) refers (Special) to usenofp.o(x$fpl$usenofp) for __I$use$fp
    dleqf.o(x$fpl$dleqf) refers to dnaninf.o(x$fpl$dnaninf) for __fpl_dnaninf
    dleqf.o(x$fpl$dleqf) refers to dcmpi.o(x$fpl$dcmpinf) for __fpl_dcmp_Inf
    dmul.o(x$fpl$dmul) refers (Special) to usenofp.o(x$fpl$usenofp) for __I$use$fp
    dmul.o(x$fpl$dmul) refers to dretinf.o(x$fpl$dretinf) for __fpl_dretinf
    dmul.o(x$fpl$dmul) refers to dnaninf.o(x$fpl$dnaninf) for __fpl_dnaninf
    ffixll.o(x$fpl$llsfromf) refers (Special) to usenofp.o(x$fpl$usenofp) for __I$use$fp
    ffixll.o(x$fpl$llsfromf) refers to fnaninf.o(x$fpl$fnaninf) for __fpl_fnaninf
    ffixll.o(x$fpl$llsfromfr) refers (Special) to usenofp.o(x$fpl$usenofp) for __I$use$fp
    ffixll.o(x$fpl$llsfromfr) refers to fnaninf.o(x$fpl$fnaninf) for __fpl_fnaninf
    floor.o(i.__hardfp_floor) refers (Special) to usenofp.o(x$fpl$usenofp) for __I$use$fp
    floor.o(i.__hardfp_floor) refers to daddsub_clz.o(x$fpl$dadd) for __aeabi_dadd
    floor.o(i.__hardfp_floor) refers to drleqf.o(x$fpl$drleqf) for __aeabi_cdrcmple
    floor.o(i.__hardfp_floor) refers to daddsub_clz.o(x$fpl$drsb) for __aeabi_drsub
    floor.o(i.__softfp_floor) refers (Special) to usenofp.o(x$fpl$usenofp) for __I$use$fp
    floor.o(i.__softfp_floor) refers to floor.o(i.__hardfp_floor) for __hardfp_floor
    floor.o(i.floor) refers (Special) to usenofp.o(x$fpl$usenofp) for __I$use$fp
    floor.o(i.floor) refers to floor.o(i.__hardfp_floor) for __hardfp_floor
    pow.o(i.__hardfp_pow) refers (Special) to usenofp.o(x$fpl$usenofp) for __I$use$fp
    pow.o(i.__hardfp_pow) refers to dunder.o(i.__mathlib_dbl_infnan2) for __mathlib_dbl_infnan2
    pow.o(i.__hardfp_pow) refers to _rserrno.o(.text) for __set_errno
    pow.o(i.__hardfp_pow) refers to dunder.o(i.__mathlib_dbl_divzero) for __mathlib_dbl_divzero
    pow.o(i.__hardfp_pow) refers to basic.o(x$fpl$basic) for __aeabi_dneg
    pow.o(i.__hardfp_pow) refers to dunder.o(i.__mathlib_dbl_overflow) for __mathlib_dbl_overflow
    pow.o(i.__hardfp_pow) refers to ddiv.o(x$fpl$ddiv) for __aeabi_ddiv
    pow.o(i.__hardfp_pow) refers to sqrt.o(i.sqrt) for sqrt
    pow.o(i.__hardfp_pow) refers to fabs.o(i.fabs) for fabs
    pow.o(i.__hardfp_pow) refers to dflt_clz.o(x$fpl$dflt) for __aeabi_i2d
    pow.o(i.__hardfp_pow) refers to dunder.o(i.__mathlib_dbl_invalid) for __mathlib_dbl_invalid
    pow.o(i.__hardfp_pow) refers to dmul.o(x$fpl$dmul) for __aeabi_dmul
    pow.o(i.__hardfp_pow) refers to dunder.o(i.__mathlib_dbl_underflow) for __mathlib_dbl_underflow
    pow.o(i.__hardfp_pow) refers to daddsub_clz.o(x$fpl$dsub) for __aeabi_dsub
    pow.o(i.__hardfp_pow) refers to daddsub_clz.o(x$fpl$drsb) for __aeabi_drsub
    pow.o(i.__hardfp_pow) refers to qnan.o(.constdata) for __mathlib_zero
    pow.o(i.__hardfp_pow) refers to daddsub_clz.o(x$fpl$dadd) for __aeabi_dadd
    pow.o(i.__hardfp_pow) refers to poly.o(i.__kernel_poly) for __kernel_poly
    pow.o(i.__hardfp_pow) refers to pow.o(.constdata) for .constdata
    pow.o(i.__hardfp_pow) refers to drleqf.o(x$fpl$drleqf) for __aeabi_cdrcmple
    pow.o(i.__hardfp_pow) refers to scalbn.o(x$fpl$scalbn) for __ARM_scalbn
    pow.o(i.__hardfp_pow) refers to fpclassify.o(i.__ARM_fpclassify) for __ARM_fpclassify
    pow.o(i.__softfp_pow) refers (Special) to usenofp.o(x$fpl$usenofp) for __I$use$fp
    pow.o(i.__softfp_pow) refers to pow.o(i.__hardfp_pow) for __hardfp_pow
    pow.o(i.pow) refers (Special) to usenofp.o(x$fpl$usenofp) for __I$use$fp
    pow.o(i.pow) refers to pow.o(i.__hardfp_pow) for __hardfp_pow
    pow.o(.constdata) refers (Special) to usenofp.o(x$fpl$usenofp) for __I$use$fp
    pow_x.o(i.____hardfp_pow$lsc) refers (Special) to usenofp.o(x$fpl$usenofp) for __I$use$fp
    pow_x.o(i.____hardfp_pow$lsc) refers to dunder.o(i.__mathlib_dbl_infnan2) for __mathlib_dbl_infnan2
    pow_x.o(i.____hardfp_pow$lsc) refers to _rserrno.o(.text) for __set_errno
    pow_x.o(i.____hardfp_pow$lsc) refers to basic.o(x$fpl$basic) for __aeabi_dneg
    pow_x.o(i.____hardfp_pow$lsc) refers to ddiv.o(x$fpl$ddiv) for __aeabi_ddiv
    pow_x.o(i.____hardfp_pow$lsc) refers to sqrt.o(i.sqrt) for sqrt
    pow_x.o(i.____hardfp_pow$lsc) refers to fabs.o(i.fabs) for fabs
    pow_x.o(i.____hardfp_pow$lsc) refers to dflt_clz.o(x$fpl$dflt) for __aeabi_i2d
    pow_x.o(i.____hardfp_pow$lsc) refers to dmul.o(x$fpl$dmul) for __aeabi_dmul
    pow_x.o(i.____hardfp_pow$lsc) refers to daddsub_clz.o(x$fpl$dsub) for __aeabi_dsub
    pow_x.o(i.____hardfp_pow$lsc) refers to daddsub_clz.o(x$fpl$drsb) for __aeabi_drsub
    pow_x.o(i.____hardfp_pow$lsc) refers to qnan.o(.constdata) for __mathlib_zero
    pow_x.o(i.____hardfp_pow$lsc) refers to daddsub_clz.o(x$fpl$dadd) for __aeabi_dadd
    pow_x.o(i.____hardfp_pow$lsc) refers to poly.o(i.__kernel_poly) for __kernel_poly
    pow_x.o(i.____hardfp_pow$lsc) refers to pow_x.o(.constdata) for .constdata
    pow_x.o(i.____hardfp_pow$lsc) refers to drleqf.o(x$fpl$drleqf) for __aeabi_cdrcmple
    pow_x.o(i.____hardfp_pow$lsc) refers to scalbn.o(x$fpl$scalbn) for __ARM_scalbn
    pow_x.o(i.____softfp_pow$lsc) refers (Special) to usenofp.o(x$fpl$usenofp) for __I$use$fp
    pow_x.o(i.____softfp_pow$lsc) refers to pow_x.o(i.____hardfp_pow$lsc) for ____hardfp_pow$lsc
    pow_x.o(i.__pow$lsc) refers (Special) to usenofp.o(x$fpl$usenofp) for __I$use$fp
    pow_x.o(i.__pow$lsc) refers to pow_x.o(i.____hardfp_pow$lsc) for ____hardfp_pow$lsc
    pow_x.o(.constdata) refers (Special) to usenofp.o(x$fpl$usenofp) for __I$use$fp
    __rtentry.o(.ARM.Collect$$rtentry$$00000000) refers (Special) to __rtentry2.o(.ARM.Collect$$rtentry$$0000000A) for __rt_entry_li
    __rtentry.o(.ARM.Collect$$rtentry$$00000000) refers (Special) to __rtentry2.o(.ARM.Collect$$rtentry$$0000000D) for __rt_entry_main
    __rtentry.o(.ARM.Collect$$rtentry$$00000000) refers (Special) to __rtentry2.o(.ARM.Collect$$rtentry$$0000000B) for __rt_entry_postli_1
    __rtentry.o(.ARM.Collect$$rtentry$$00000000) refers (Special) to __rtentry2.o(.ARM.Collect$$rtentry$$00000009) for __rt_entry_postsh_1
    __rtentry.o(.ARM.Collect$$rtentry$$00000000) refers (Special) to __rtentry2.o(.ARM.Collect$$rtentry$$00000002) for __rt_entry_presh_1
    __rtentry.o(.ARM.Collect$$rtentry$$00000000) refers (Special) to __rtentry4.o(.ARM.Collect$$rtentry$$00000004) for __rt_entry_sh
    rtexit.o(.ARM.Collect$$rtexit$$00000000) refers (Special) to rtexit2.o(.ARM.Collect$$rtexit$$00000004) for __rt_exit_exit
    rtexit.o(.ARM.Collect$$rtexit$$00000000) refers (Special) to rtexit2.o(.ARM.Collect$$rtexit$$00000003) for __rt_exit_ls
    rtexit.o(.ARM.Collect$$rtexit$$00000000) refers (Special) to rtexit2.o(.ARM.Collect$$rtexit$$00000002) for __rt_exit_prels_1
    rtexit.o(.ARM.exidx) refers (Special) to rtexit2.o(.ARM.Collect$$rtexit$$00000004) for __rt_exit_exit
    rtexit.o(.ARM.exidx) refers (Special) to rtexit2.o(.ARM.Collect$$rtexit$$00000003) for __rt_exit_ls
    rtexit.o(.ARM.exidx) refers (Special) to rtexit2.o(.ARM.Collect$$rtexit$$00000002) for __rt_exit_prels_1
    rtexit.o(.ARM.exidx) refers to rtexit.o(.ARM.Collect$$rtexit$$00000000) for .ARM.Collect$$rtexit$$00000000
    aeabi_ldiv0_sigfpe.o(.text) refers to rt_div0.o(.text) for __rt_div0
    _rserrno.o(.text) refers to rt_errno_addr_twolibspace.o(.text) for __aeabi_errno_addr
    basic.o(x$fpl$basic) refers (Special) to usenofp.o(x$fpl$usenofp) for __I$use$fp
    dcmpi.o(x$fpl$dcmpinf) refers (Special) to usenofp.o(x$fpl$usenofp) for __I$use$fp
    dnaninf.o(x$fpl$dnaninf) refers (Special) to usenofp.o(x$fpl$usenofp) for __I$use$fp
    dretinf.o(x$fpl$dretinf) refers (Special) to usenofp.o(x$fpl$usenofp) for __I$use$fp
    drleqf.o(x$fpl$drleqf) refers (Special) to usenofp.o(x$fpl$usenofp) for __I$use$fp
    drleqf.o(x$fpl$drleqf) refers to dleqf.o(x$fpl$dleqf) for __fpl_dcmple_InfNaN
    fnaninf.o(x$fpl$fnaninf) refers (Special) to usenofp.o(x$fpl$usenofp) for __I$use$fp
    fretinf.o(x$fpl$fretinf) refers (Special) to usenofp.o(x$fpl$usenofp) for __I$use$fp
    scalbn.o(x$fpl$scalbn) refers (Special) to usenofp.o(x$fpl$usenofp) for __I$use$fp
    scalbn.o(x$fpl$scalbn) refers to dcheck1.o(x$fpl$dcheck1) for __fpl_dcheck_NaN1
    dunder.o(i.__mathlib_dbl_divzero) refers to ddiv.o(x$fpl$ddiv) for __aeabi_ddiv
    dunder.o(i.__mathlib_dbl_infnan) refers to daddsub_clz.o(x$fpl$dadd) for __aeabi_dadd
    dunder.o(i.__mathlib_dbl_infnan2) refers to daddsub_clz.o(x$fpl$dadd) for __aeabi_dadd
    dunder.o(i.__mathlib_dbl_invalid) refers to ddiv.o(x$fpl$ddiv) for __aeabi_ddiv
    dunder.o(i.__mathlib_dbl_overflow) refers to dmul.o(x$fpl$dmul) for __aeabi_dmul
    dunder.o(i.__mathlib_dbl_posinfnan) refers to dmul.o(x$fpl$dmul) for __aeabi_dmul
    dunder.o(i.__mathlib_dbl_underflow) refers to dmul.o(x$fpl$dmul) for __aeabi_dmul
    fabs.o(i.__hardfp_fabs) refers (Special) to usenofp.o(x$fpl$usenofp) for __I$use$fp
    fabs.o(i.__softfp_fabs) refers (Special) to usenofp.o(x$fpl$usenofp) for __I$use$fp
    fabs.o(i.fabs) refers (Special) to usenofp.o(x$fpl$usenofp) for __I$use$fp
    fpclassify.o(i.__ARM_fpclassify) refers (Special) to usenofp.o(x$fpl$usenofp) for __I$use$fp
    poly.o(i.__kernel_poly) refers (Special) to usenofp.o(x$fpl$usenofp) for __I$use$fp
    poly.o(i.__kernel_poly) refers to dmul.o(x$fpl$dmul) for __aeabi_dmul
    poly.o(i.__kernel_poly) refers to daddsub_clz.o(x$fpl$dadd) for __aeabi_dadd
    qnan.o(.constdata) refers (Special) to usenofp.o(x$fpl$usenofp) for __I$use$fp
    sqrt.o(i.__hardfp_sqrt) refers (Special) to usenofp.o(x$fpl$usenofp) for __I$use$fp
    sqrt.o(i.__hardfp_sqrt) refers to dsqrt_umaal.o(x$fpl$dsqrt) for _dsqrt
    sqrt.o(i.__hardfp_sqrt) refers to _rserrno.o(.text) for __set_errno
    sqrt.o(i.__softfp_sqrt) refers (Special) to usenofp.o(x$fpl$usenofp) for __I$use$fp
    sqrt.o(i.__softfp_sqrt) refers to dsqrt_umaal.o(x$fpl$dsqrt) for _dsqrt
    sqrt.o(i.__softfp_sqrt) refers to _rserrno.o(.text) for __set_errno
    sqrt.o(i.sqrt) refers (Special) to usenofp.o(x$fpl$usenofp) for __I$use$fp
    sqrt.o(i.sqrt) refers to dsqrt_umaal.o(x$fpl$dsqrt) for _dsqrt
    sqrt.o(i.sqrt) refers to _rserrno.o(.text) for __set_errno
    sqrt_x.o(i.____hardfp_sqrt$lsc) refers (Special) to usenofp.o(x$fpl$usenofp) for __I$use$fp
    sqrt_x.o(i.____hardfp_sqrt$lsc) refers to dleqf.o(x$fpl$dleqf) for __aeabi_cdcmple
    sqrt_x.o(i.____hardfp_sqrt$lsc) refers to _rserrno.o(.text) for __set_errno
    sqrt_x.o(i.____hardfp_sqrt$lsc) refers to dsqrt_umaal.o(x$fpl$dsqrt) for _dsqrt
    sqrt_x.o(i.____softfp_sqrt$lsc) refers (Special) to usenofp.o(x$fpl$usenofp) for __I$use$fp
    sqrt_x.o(i.____softfp_sqrt$lsc) refers to dleqf.o(x$fpl$dleqf) for __aeabi_cdcmple
    sqrt_x.o(i.____softfp_sqrt$lsc) refers to _rserrno.o(.text) for __set_errno
    sqrt_x.o(i.____softfp_sqrt$lsc) refers to dsqrt_umaal.o(x$fpl$dsqrt) for _dsqrt
    sqrt_x.o(i.__sqrt$lsc) refers (Special) to usenofp.o(x$fpl$usenofp) for __I$use$fp
    sqrt_x.o(i.__sqrt$lsc) refers to dleqf.o(x$fpl$dleqf) for __aeabi_cdcmple
    sqrt_x.o(i.__sqrt$lsc) refers to _rserrno.o(.text) for __set_errno
    sqrt_x.o(i.__sqrt$lsc) refers to dsqrt_umaal.o(x$fpl$dsqrt) for _dsqrt
    __rtentry2.o(.ARM.Collect$$rtentry$$00000008) refers to boardinit2.o(.text) for _platform_post_stackheap_init
    __rtentry2.o(.ARM.Collect$$rtentry$$0000000A) refers to libinit.o(.ARM.Collect$$libinit$$00000000) for __rt_lib_init
    __rtentry2.o(.ARM.Collect$$rtentry$$0000000B) refers to rtx_conf_cm.o(.emb_text) for _platform_post_lib_init
    __rtentry2.o(.ARM.Collect$$rtentry$$0000000D) refers to lab5.o(.text) for main
    __rtentry2.o(.ARM.Collect$$rtentry$$0000000D) refers to exit.o(.text) for exit
    __rtentry2.o(.ARM.exidx) refers to __rtentry2.o(.ARM.Collect$$rtentry$$00000001) for .ARM.Collect$$rtentry$$00000001
    __rtentry2.o(.ARM.exidx) refers to __rtentry2.o(.ARM.Collect$$rtentry$$00000008) for .ARM.Collect$$rtentry$$00000008
    __rtentry2.o(.ARM.exidx) refers to __rtentry2.o(.ARM.Collect$$rtentry$$0000000A) for .ARM.Collect$$rtentry$$0000000A
    __rtentry2.o(.ARM.exidx) refers to __rtentry2.o(.ARM.Collect$$rtentry$$0000000B) for .ARM.Collect$$rtentry$$0000000B
    __rtentry2.o(.ARM.exidx) refers to __rtentry2.o(.ARM.Collect$$rtentry$$0000000D) for .ARM.Collect$$rtentry$$0000000D
    __rtentry4.o(.ARM.Collect$$rtentry$$00000004) refers to sys_stackheap_outer.o(.text) for __user_setup_stackheap
    __rtentry4.o(.ARM.exidx) refers to __rtentry4.o(.ARM.Collect$$rtentry$$00000004) for .ARM.Collect$$rtentry$$00000004
    rtexit2.o(.ARM.Collect$$rtexit$$00000003) refers to libshutdown.o(.ARM.Collect$$libshutdown$$00000000) for __rt_lib_shutdown
    rtexit2.o(.ARM.Collect$$rtexit$$00000004) refers to sys_exit.o(.text) for _sys_exit
    rtexit2.o(.ARM.exidx) refers to rtexit2.o(.ARM.Collect$$rtexit$$00000001) for .ARM.Collect$$rtexit$$00000001
    rtexit2.o(.ARM.exidx) refers to rtexit2.o(.ARM.Collect$$rtexit$$00000003) for .ARM.Collect$$rtexit$$00000003
    rtexit2.o(.ARM.exidx) refers to rtexit2.o(.ARM.Collect$$rtexit$$00000004) for .ARM.Collect$$rtexit$$00000004
    rt_div0.o(.text) refers to defsig_fpe_outer.o(.text) for __rt_SIGFPE
    rt_errno_addr.o(.text) refers to rt_errno_addr.o(.bss) for __aeabi_errno_addr_data
    rt_errno_addr_intlibspace.o(.text) refers to libspace.o(.bss) for __libspace_start
    rt_errno_addr_twolibspace.o(.text) refers to rtx_conf_cm.o(.text) for __user_perthread_libspace
    dcheck1.o(x$fpl$dcheck1) refers (Special) to usenofp.o(x$fpl$usenofp) for __I$use$fp
    dcheck1.o(x$fpl$dcheck1) refers to retnan.o(x$fpl$retnan) for __fpl_return_NaN
    dsqrt_umaal.o(x$fpl$dsqrt) refers (Special) to usenofp.o(x$fpl$usenofp) for __I$use$fp
    dsqrt_umaal.o(x$fpl$dsqrt) refers to dnaninf.o(x$fpl$dnaninf) for __fpl_dnaninf
    sys_exit.o(.text) refers (Special) to use_no_semi.o(.text) for __I$use$semihosting
    sys_exit.o(.text) refers (Special) to indicate_semi.o(.text) for __semihosting_library_function
    sys_stackheap_outer.o(.text) refers to libspace.o(.text) for __user_perproc_libspace
    sys_stackheap_outer.o(.text) refers to startup_tm4c129.o(.text) for __user_initial_stackheap
    defsig_fpe_outer.o(.text) refers to defsig_fpe_inner.o(.text) for __rt_SIGFPE_inner
    defsig_fpe_outer.o(.text) refers to defsig_exit.o(.text) for __sig_exit
    defsig_fpe_formal.o(.text) refers to rt_raise.o(.text) for __rt_raise
    libinit.o(.ARM.Collect$$libinit$$00000000) refers (Special) to libinit2.o(.ARM.Collect$$libinit$$0000002E) for __rt_lib_init_alloca_1
    libinit.o(.ARM.Collect$$libinit$$00000000) refers (Special) to libinit2.o(.ARM.Collect$$libinit$$0000002C) for __rt_lib_init_argv_1
    libinit.o(.ARM.Collect$$libinit$$00000000) refers (Special) to libinit2.o(.ARM.Collect$$libinit$$0000001B) for __rt_lib_init_atexit_1
    libinit.o(.ARM.Collect$$libinit$$00000000) refers (Special) to libinit2.o(.ARM.Collect$$libinit$$00000021) for __rt_lib_init_clock_1
    libinit.o(.ARM.Collect$$libinit$$00000000) refers (Special) to libinit2.o(.ARM.Collect$$libinit$$00000032) for __rt_lib_init_cpp_1
    libinit.o(.ARM.Collect$$libinit$$00000000) refers (Special) to libinit2.o(.ARM.Collect$$libinit$$00000030) for __rt_lib_init_exceptions_1
    libinit.o(.ARM.Collect$$libinit$$00000000) refers (Special) to libinit2.o(.ARM.Collect$$libinit$$00000001) for __rt_lib_init_fp_1
    libinit.o(.ARM.Collect$$libinit$$00000000) refers (Special) to libinit2.o(.ARM.Collect$$libinit$$0000001F) for __rt_lib_init_fp_trap_1
    libinit.o(.ARM.Collect$$libinit$$00000000) refers (Special) to libinit2.o(.ARM.Collect$$libinit$$00000023) for __rt_lib_init_getenv_1
    libinit.o(.ARM.Collect$$libinit$$00000000) refers (Special) to libinit2.o(.ARM.Collect$$libinit$$0000000A) for __rt_lib_init_heap_1
    libinit.o(.ARM.Collect$$libinit$$00000000) refers (Special) to libinit2.o(.ARM.Collect$$libinit$$00000011) for __rt_lib_init_lc_collate_1
    libinit.o(.ARM.Collect$$libinit$$00000000) refers (Special) to libinit2.o(.ARM.Collect$$libinit$$00000013) for __rt_lib_init_lc_ctype_1
    libinit.o(.ARM.Collect$$libinit$$00000000) refers (Special) to libinit2.o(.ARM.Collect$$libinit$$00000015) for __rt_lib_init_lc_monetary_1
    libinit.o(.ARM.Collect$$libinit$$00000000) refers (Special) to libinit2.o(.ARM.Collect$$libinit$$00000017) for __rt_lib_init_lc_numeric_1
    libinit.o(.ARM.Collect$$libinit$$00000000) refers (Special) to libinit2.o(.ARM.Collect$$libinit$$00000019) for __rt_lib_init_lc_time_1
    libinit.o(.ARM.Collect$$libinit$$00000000) refers (Special) to libinit2.o(.ARM.Collect$$libinit$$00000004) for __rt_lib_init_preinit_1
    libinit.o(.ARM.Collect$$libinit$$00000000) refers (Special) to libinit2.o(.ARM.Collect$$libinit$$0000000E) for __rt_lib_init_rand_1
    libinit.o(.ARM.Collect$$libinit$$00000000) refers (Special) to libinit2.o(.ARM.Collect$$libinit$$00000033) for __rt_lib_init_return
    libinit.o(.ARM.Collect$$libinit$$00000000) refers (Special) to libinit2.o(.ARM.Collect$$libinit$$0000001D) for __rt_lib_init_signal_1
    libinit.o(.ARM.Collect$$libinit$$00000000) refers (Special) to libinit2.o(.ARM.Collect$$libinit$$00000025) for __rt_lib_init_stdio_1
    libinit.o(.ARM.Collect$$libinit$$00000000) refers (Special) to libinit2.o(.ARM.Collect$$libinit$$0000000C) for __rt_lib_init_user_alloc_1
    libshutdown.o(.ARM.Collect$$libshutdown$$00000000) refers (Special) to libshutdown2.o(.ARM.Collect$$libshutdown$$00000002) for __rt_lib_shutdown_cpp_1
    libshutdown.o(.ARM.Collect$$libshutdown$$00000000) refers (Special) to libshutdown2.o(.ARM.Collect$$libshutdown$$00000007) for __rt_lib_shutdown_fp_trap_1
    libshutdown.o(.ARM.Collect$$libshutdown$$00000000) refers (Special) to libshutdown2.o(.ARM.Collect$$libshutdown$$0000000F) for __rt_lib_shutdown_heap_1
    libshutdown.o(.ARM.Collect$$libshutdown$$00000000) refers (Special) to libshutdown2.o(.ARM.Collect$$libshutdown$$00000010) for __rt_lib_shutdown_return
    libshutdown.o(.ARM.Collect$$libshutdown$$00000000) refers (Special) to libshutdown2.o(.ARM.Collect$$libshutdown$$0000000A) for __rt_lib_shutdown_signal_1
    libshutdown.o(.ARM.Collect$$libshutdown$$00000000) refers (Special) to libshutdown2.o(.ARM.Collect$$libshutdown$$00000004) for __rt_lib_shutdown_stdio_1
    libshutdown.o(.ARM.Collect$$libshutdown$$00000000) refers (Special) to libshutdown2.o(.ARM.Collect$$libshutdown$$0000000C) for __rt_lib_shutdown_user_alloc_1
    retnan.o(x$fpl$retnan) refers (Special) to usenofp.o(x$fpl$usenofp) for __I$use$fp
    retnan.o(x$fpl$retnan) refers to trapv.o(x$fpl$trapveneer) for __fpl_cmpreturn
    rt_raise.o(.text) refers to __raise.o(.text) for __raise
    rt_raise.o(.text) refers to sys_exit.o(.text) for _sys_exit
    defsig_exit.o(.text) refers to sys_exit.o(.text) for _sys_exit
    defsig_fpe_inner.o(.text) refers to defsig_general.o(.text) for __default_signal_display
    libinit2.o(.ARM.Collect$$libinit$$00000001) refers to fpinit.o(x$fpl$fpinit) for _fp_init
    libinit2.o(.ARM.Collect$$libinit$$00000010) refers to libinit2.o(.ARM.Collect$$libinit$$0000000F) for .ARM.Collect$$libinit$$0000000F
    libinit2.o(.ARM.Collect$$libinit$$00000012) refers to libinit2.o(.ARM.Collect$$libinit$$0000000F) for .ARM.Collect$$libinit$$0000000F
    libinit2.o(.ARM.Collect$$libinit$$00000014) refers to libinit2.o(.ARM.Collect$$libinit$$0000000F) for .ARM.Collect$$libinit$$0000000F
    libinit2.o(.ARM.Collect$$libinit$$00000016) refers to libinit2.o(.ARM.Collect$$libinit$$0000000F) for .ARM.Collect$$libinit$$0000000F
    libinit2.o(.ARM.Collect$$libinit$$00000018) refers to libinit2.o(.ARM.Collect$$libinit$$0000000F) for .ARM.Collect$$libinit$$0000000F
    libinit2.o(.ARM.Collect$$libinit$$00000026) refers to argv_veneer.o(.emb_text) for __ARM_argv_veneer
    libinit2.o(.ARM.Collect$$libinit$$00000027) refers to argv_veneer.o(.emb_text) for __ARM_argv_veneer
    trapv.o(x$fpl$trapveneer) refers (Special) to usenofp.o(x$fpl$usenofp) for __I$use$fp
    __raise.o(.text) refers to defsig.o(CL$$defsig) for __default_signal_handler
    defsig_general.o(.text) refers to sys_wrch.o(.text) for _ttywrch
    argv_veneer.o(.emb_text) refers to no_argv.o(.text) for __ARM_get_argv
    sys_wrch.o(.text) refers (Special) to use_no_semi.o(.text) for __I$use$semihosting
    sys_wrch.o(.text) refers (Special) to indicate_semi.o(.text) for __semihosting_library_function
    defsig.o(CL$$defsig) refers to defsig_fpe_inner.o(.text) for __rt_SIGFPE_inner
    defsig.o(CL$$defsig) refers to defsig_rtmem_inner.o(.text) for __rt_SIGRTMEM_inner
    _get_argv_nomalloc.o(.text) refers (Special) to hrguard.o(.text) for __heap_region$guard
    _get_argv_nomalloc.o(.text) refers to defsig_rtmem_outer.o(.text) for __rt_SIGRTMEM
    _get_argv_nomalloc.o(.text) refers to sys_command.o(.text) for _sys_command_string
    sys_command.o(.text) refers (Special) to use_no_semi.o(.text) for __I$use$semihosting
    sys_command.o(.text) refers (Special) to indicate_semi.o(.text) for __semihosting_library_function
    defsig_abrt_inner.o(.text) refers to defsig_general.o(.text) for __default_signal_display
    defsig_rtred_inner.o(.text) refers to defsig_general.o(.text) for __default_signal_display
    defsig_rtmem_inner.o(.text) refers to defsig_general.o(.text) for __default_signal_display
    defsig_rtmem_outer.o(.text) refers to defsig_rtmem_inner.o(.text) for __rt_SIGRTMEM_inner
    defsig_rtmem_outer.o(.text) refers to defsig_exit.o(.text) for __sig_exit
    defsig_rtmem_formal.o(.text) refers to rt_raise.o(.text) for __rt_raise
    defsig_stak_inner.o(.text) refers to defsig_general.o(.text) for __default_signal_display
    defsig_pvfn_inner.o(.text) refers to defsig_general.o(.text) for __default_signal_display
    defsig_cppl_inner.o(.text) refers to defsig_general.o(.text) for __default_signal_display
    defsig_segv_inner.o(.text) refers to defsig_general.o(.text) for __default_signal_display
    defsig_other.o(.text) refers to defsig_general.o(.text) for __default_signal_display


==============================================================================

Removing Unused input sections from the image.

    Removing uart_functions.o(.rev16_text), (4 bytes).
    Removing uart_functions.o(.revsh_text), (4 bytes).
    Removing uart_functions.o(.rrx_text), (6 bytes).
    Removing uart_functions.o(.text), (188 bytes).
    Removing uart_functions.o(.data), (1 bytes).
    Removing terminal.o(.rev16_text), (4 bytes).
    Removing terminal.o(.revsh_text), (4 bytes).
    Removing terminal.o(.rrx_text), (6 bytes).
    Removing terminal.o(.text), (392 bytes).
    Removing lab5.o(.rev16_text), (4 bytes).
    Removing lab5.o(.revsh_text), (4 bytes).
    Removing lab5.o(.rrx_text), (6 bytes).
    Removing communication.o(.rev16_text), (4 bytes).
    Removing communication.o(.revsh_text), (4 bytes).
    Removing communication.o(.rrx_text), (6 bytes).
    Removing communication.o(.text), (94 bytes).
    Removing gantt.o(.rev16_text), (4 bytes).
    Removing gantt.o(.revsh_text), (4 bytes).
    Removing gantt.o(.rrx_text), (6 bytes).
    Removing gantt.o(.text), (260 bytes).
    Removing cfaf128x128x16.o(.text), (2208 bytes).
    Removing cfaf128x128x16.o(.constdata), (64 bytes).
    Removing cfaf128x128x16.o(.data), (5 bytes).
    Removing system_tm4c129.o(.rev16_text), (4 bytes).
    Removing system_tm4c129.o(.revsh_text), (4 bytes).
    Removing system_tm4c129.o(.rrx_text), (6 bytes).
    Removing sysctl.o(.emb_text), (6 bytes).
    Removing sysctl.o(i.SysCtlAltClkConfig), (12 bytes).
    Removing sysctl.o(i.SysCtlClockFreqSet), (748 bytes).
    Removing sysctl.o(i.SysCtlClockGet), (340 bytes).
    Removing sysctl.o(i.SysCtlClockOutConfig), (20 bytes).
    Removing sysctl.o(i.SysCtlClockSet), (288 bytes).
    Removing sysctl.o(i.SysCtlDeepSleep), (32 bytes).
    Removing sysctl.o(i.SysCtlDeepSleepClockConfigSet), (112 bytes).
    Removing sysctl.o(i.SysCtlDeepSleepClockSet), (12 bytes).
    Removing sysctl.o(i.SysCtlDeepSleepPowerSet), (12 bytes).
    Removing sysctl.o(i.SysCtlFlashSectorSizeGet), (56 bytes).
    Removing sysctl.o(i.SysCtlFlashSizeGet), (56 bytes).
    Removing sysctl.o(i.SysCtlGPIOAHBDisable), (28 bytes).
    Removing sysctl.o(i.SysCtlGPIOAHBEnable), (24 bytes).
    Removing sysctl.o(i.SysCtlIntClear), (12 bytes).
    Removing sysctl.o(i.SysCtlIntDisable), (16 bytes).
    Removing sysctl.o(i.SysCtlIntEnable), (16 bytes).
    Removing sysctl.o(i.SysCtlIntRegister), (20 bytes).
    Removing sysctl.o(i.SysCtlIntStatus), (16 bytes).
    Removing sysctl.o(i.SysCtlIntUnregister), (18 bytes).
    Removing sysctl.o(i.SysCtlLDODeepSleepGet), (12 bytes).
    Removing sysctl.o(i.SysCtlLDODeepSleepSet), (12 bytes).
    Removing sysctl.o(i.SysCtlLDOSleepGet), (12 bytes).
    Removing sysctl.o(i.SysCtlLDOSleepSet), (12 bytes).
    Removing sysctl.o(i.SysCtlMOSCConfigSet), (12 bytes).
    Removing sysctl.o(i.SysCtlNMIClear), (16 bytes).
    Removing sysctl.o(i.SysCtlNMIStatus), (12 bytes).
    Removing sysctl.o(i.SysCtlPIOSCCalibrate), (76 bytes).
    Removing sysctl.o(i.SysCtlPWMClockGet), (24 bytes).
    Removing sysctl.o(i.SysCtlPWMClockSet), (20 bytes).
    Removing sysctl.o(i.SysCtlPeripheralClockGating), (68 bytes).
    Removing sysctl.o(i.SysCtlPeripheralDeepSleepDisable), (40 bytes).
    Removing sysctl.o(i.SysCtlPeripheralDeepSleepEnable), (40 bytes).
    Removing sysctl.o(i.SysCtlPeripheralDisable), (40 bytes).
    Removing sysctl.o(i.SysCtlPeripheralEnable), (40 bytes).
    Removing sysctl.o(i.SysCtlPeripheralPowerOff), (40 bytes).
    Removing sysctl.o(i.SysCtlPeripheralPowerOn), (40 bytes).
    Removing sysctl.o(i.SysCtlPeripheralPresent), (44 bytes).
    Removing sysctl.o(i.SysCtlPeripheralReady), (44 bytes).
    Removing sysctl.o(i.SysCtlPeripheralReset), (60 bytes).
    Removing sysctl.o(i.SysCtlPeripheralSleepDisable), (40 bytes).
    Removing sysctl.o(i.SysCtlPeripheralSleepEnable), (40 bytes).
    Removing sysctl.o(i.SysCtlReset), (16 bytes).
    Removing sysctl.o(i.SysCtlResetBehaviorGet), (12 bytes).
    Removing sysctl.o(i.SysCtlResetBehaviorSet), (12 bytes).
    Removing sysctl.o(i.SysCtlResetCauseClear), (16 bytes).
    Removing sysctl.o(i.SysCtlResetCauseGet), (12 bytes).
    Removing sysctl.o(i.SysCtlSRAMSizeGet), (16 bytes).
    Removing sysctl.o(i.SysCtlSleep), (4 bytes).
    Removing sysctl.o(i.SysCtlSleepPowerSet), (12 bytes).
    Removing sysctl.o(i.SysCtlUSBPLLDisable), (16 bytes).
    Removing sysctl.o(i.SysCtlUSBPLLEnable), (16 bytes).
    Removing sysctl.o(i.SysCtlVCOGet), (120 bytes).
    Removing sysctl.o(i.SysCtlVoltageEventClear), (16 bytes).
    Removing sysctl.o(i.SysCtlVoltageEventConfig), (12 bytes).
    Removing sysctl.o(i.SysCtlVoltageEventStatus), (12 bytes).
    Removing sysctl.o(.constdata), (596 bytes).
    Removing rt_cmsis.o(.rev16_text), (4 bytes).
    Removing rt_cmsis.o(.revsh_text), (4 bytes).
    Removing rt_cmsis.o(.rrx_text), (6 bytes).
    Removing rt_cmsis.o(i.isrSemaphoreRelease), (40 bytes).
    Removing rt_cmsis.o(i.osDelay), (24 bytes).
    Removing rt_cmsis.o(i.osKernelRunning), (36 bytes).
    Removing rt_cmsis.o(i.osMailAlloc), (28 bytes).
    Removing rt_cmsis.o(i.osMailCAlloc), (48 bytes).
    Removing rt_cmsis.o(i.osMailCreate), (44 bytes).
    Removing rt_cmsis.o(i.osMailFree), (28 bytes).
    Removing rt_cmsis.o(i.osMailGet), (22 bytes).
    Removing rt_cmsis.o(i.osMailPut), (20 bytes).
    Removing rt_cmsis.o(i.osMessageCreate), (44 bytes).
    Removing rt_cmsis.o(i.osMessagePut), (24 bytes).
    Removing rt_cmsis.o(i.osMutexDelete), (24 bytes).
    Removing rt_cmsis.o(i.osPoolAlloc), (32 bytes).
    Removing rt_cmsis.o(i.osPoolCAlloc), (52 bytes).
    Removing rt_cmsis.o(i.osPoolCreate), (44 bytes).
    Removing rt_cmsis.o(i.osPoolFree), (32 bytes).
    Removing rt_cmsis.o(i.osSemaphoreCreate), (44 bytes).
    Removing rt_cmsis.o(i.osSemaphoreDelete), (24 bytes).
    Removing rt_cmsis.o(i.osSemaphoreRelease), (24 bytes).
    Removing rt_cmsis.o(i.osSemaphoreWait), (24 bytes).
    Removing rt_cmsis.o(i.osSignalClear), (24 bytes).
    Removing rt_cmsis.o(i.osThreadGetPriority), (24 bytes).
    Removing rt_cmsis.o(i.osThreadTerminate), (24 bytes).
    Removing rt_cmsis.o(i.osTimerDelete), (24 bytes).
    Removing rt_cmsis.o(i.osWait), (4 bytes).
    Removing rt_cmsis.o(i.os_resume), (12 bytes).
    Removing rt_cmsis.o(i.os_suspend), (12 bytes).
    Removing rt_cmsis.o(i.rt_clr_box), (24 bytes).
    Removing rt_cmsis.o(i.svcDelay), (18 bytes).
    Removing rt_cmsis.o(i.svcKernelRunning), (12 bytes).
    Removing rt_cmsis.o(i.svcMailCreate), (66 bytes).
    Removing rt_cmsis.o(i.svcMessagePut), (54 bytes).
    Removing rt_cmsis.o(i.svcMutexDelete), (26 bytes).
    Removing rt_cmsis.o(i.svcPoolCreate), (40 bytes).
    Removing rt_cmsis.o(i.svcSemaphoreCreate), (36 bytes).
    Removing rt_cmsis.o(i.svcSemaphoreDelete), (26 bytes).
    Removing rt_cmsis.o(i.svcSemaphoreRelease), (40 bytes).
    Removing rt_cmsis.o(i.svcSemaphoreWait), (50 bytes).
    Removing rt_cmsis.o(i.svcSignalClear), (36 bytes).
    Removing rt_cmsis.o(i.svcThreadGetPriority), (18 bytes).
    Removing rt_cmsis.o(i.svcTimerDelete), (40 bytes).
    Removing rt_cmsis.o(i.sysMailAlloc), (88 bytes).
    Removing rt_cmsis.o(i.sysMailFree), (96 bytes).
    Removing rt_cmsis.o(i.sysPoolAlloc), (10 bytes).
    Removing rt_cmsis.o(i.sysPoolFree), (20 bytes).
    Removing rt_cmsis.o(i.sysUserTimerUpdate), (48 bytes).
    Removing rt_cmsis.o(i.sysUserTimerWakeupTime), (20 bytes).
    Removing rt_mutex.o(i.rt_mut_delete), (176 bytes).
    Removing cpu.o(.emb_text), (38 bytes).
    Removing interrupt.o(i.IntDisable), (100 bytes).
    Removing interrupt.o(i.IntEnable), (100 bytes).
    Removing interrupt.o(i.IntIsEnabled), (96 bytes).
    Removing interrupt.o(i.IntMasterDisable), (14 bytes).
    Removing interrupt.o(i.IntMasterEnable), (14 bytes).
    Removing interrupt.o(i.IntPendClear), (68 bytes).
    Removing interrupt.o(i.IntPendSet), (84 bytes).
    Removing interrupt.o(i.IntPriorityGet), (28 bytes).
    Removing interrupt.o(i.IntPriorityGroupingGet), (36 bytes).
    Removing interrupt.o(i.IntPriorityGroupingSet), (28 bytes).
    Removing interrupt.o(i.IntPriorityMaskGet), (4 bytes).
    Removing interrupt.o(i.IntPriorityMaskSet), (4 bytes).
    Removing interrupt.o(i.IntPrioritySet), (40 bytes).
    Removing interrupt.o(i.IntRegister), (52 bytes).
    Removing interrupt.o(i.IntTrigger), (12 bytes).
    Removing interrupt.o(i.IntUnregister), (20 bytes).
    Removing interrupt.o(i._IntDefaultHandler), (2 bytes).
    Removing interrupt.o(.constdata), (268 bytes).
    Removing interrupt.o(vtable), (620 bytes).
    Removing rt_system.o(.emb_text), (0 bytes).
    Removing rt_system.o(i.rt_resume), (136 bytes).
    Removing rt_system.o(i.rt_suspend), (36 bytes).
    Removing rt_system.o(i.rt_tsk_lock), (80 bytes).
    Removing rt_system.o(i.rt_tsk_unlock), (80 bytes).
    Removing rt_event.o(i.rt_evt_clr), (28 bytes).
    Removing rt_event.o(i.rt_evt_get), (12 bytes).
    Removing rt_mailbox.o(i.rt_mbx_send), (152 bytes).
    Removing rt_semaphore.o(i.isr_sem_send), (16 bytes).
    Removing rt_semaphore.o(i.rt_sem_delete), (92 bytes).
    Removing rt_semaphore.o(i.rt_sem_init), (12 bytes).
    Removing rt_semaphore.o(i.rt_sem_send), (42 bytes).
    Removing rt_semaphore.o(i.rt_sem_wait), (64 bytes).
    Removing rt_time.o(i.rt_dly_wait), (6 bytes).
    Removing rt_time.o(i.rt_itv_set), (24 bytes).
    Removing rt_time.o(i.rt_itv_wait), (40 bytes).
    Removing rt_time.o(i.rt_time_get), (12 bytes).
    Removing rt_membox.o(i._calloc_box), (30 bytes).

172 unused section(s) (total 11002 bytes) removed from the image.

==============================================================================

Image Symbol Table

    Local Symbols

    Symbol Name                              Value     Ov Type        Size  Object(Section)

    RESET                                    0x00000000   Section      512  startup_tm4c129.o(RESET)
    ../clib/angel/boardlib.s                 0x00000000   Number         0  boardinit2.o ABSOLUTE
    ../clib/angel/boardlib.s                 0x00000000   Number         0  boardinit1.o ABSOLUTE
    ../clib/angel/boardlib.s                 0x00000000   Number         0  boardshut.o ABSOLUTE
    ../clib/angel/handlers.s                 0x00000000   Number         0  __scatter_copy.o ABSOLUTE
    ../clib/angel/handlers.s                 0x00000000   Number         0  __scatter_zi.o ABSOLUTE
    ../clib/angel/kernel.s                   0x00000000   Number         0  rtexit.o ABSOLUTE
    ../clib/angel/kernel.s                   0x00000000   Number         0  __rtentry2.o ABSOLUTE
    ../clib/angel/kernel.s                   0x00000000   Number         0  __rtentry.o ABSOLUTE
    ../clib/angel/kernel.s                   0x00000000   Number         0  rtexit2.o ABSOLUTE
    ../clib/angel/kernel.s                   0x00000000   Number         0  __rtentry4.o ABSOLUTE
    ../clib/angel/rt.s                       0x00000000   Number         0  aeabi_ldiv0_sigfpe.o ABSOLUTE
    ../clib/angel/rt.s                       0x00000000   Number         0  rt_errno_addr_twolibspace.o ABSOLUTE
    ../clib/angel/rt.s                       0x00000000   Number         0  aeabi_ldiv0.o ABSOLUTE
    ../clib/angel/rt.s                       0x00000000   Number         0  rt_errno_addr.o ABSOLUTE
    ../clib/angel/rt.s                       0x00000000   Number         0  rt_div0.o ABSOLUTE
    ../clib/angel/rt.s                       0x00000000   Number         0  rt_raise.o ABSOLUTE
    ../clib/angel/rt.s                       0x00000000   Number         0  rt_errno_addr_intlibspace.o ABSOLUTE
    ../clib/angel/scatter.s                  0x00000000   Number         0  __scatter.o ABSOLUTE
    ../clib/angel/startup.s                  0x00000000   Number         0  __main.o ABSOLUTE
    ../clib/angel/sys.s                      0x00000000   Number         0  sys_stackheap_outer.o ABSOLUTE
    ../clib/angel/sys.s                      0x00000000   Number         0  libspace.o ABSOLUTE
    ../clib/angel/sys.s                      0x00000000   Number         0  use_no_semi.o ABSOLUTE
    ../clib/angel/sys.s                      0x00000000   Number         0  indicate_semi.o ABSOLUTE
    ../clib/angel/sysapp.c                   0x00000000   Number         0  sys_command.o ABSOLUTE
    ../clib/angel/sysapp.c                   0x00000000   Number         0  sys_exit.o ABSOLUTE
    ../clib/angel/sysapp.c                   0x00000000   Number         0  sys_wrch.o ABSOLUTE
    ../clib/armsys.c                         0x00000000   Number         0  argv_veneer.o ABSOLUTE
    ../clib/armsys.c                         0x00000000   Number         0  argv_veneer.o ABSOLUTE
    ../clib/armsys.c                         0x00000000   Number         0  _get_argv_nomalloc.o ABSOLUTE
    ../clib/armsys.c                         0x00000000   Number         0  no_argv.o ABSOLUTE
    ../clib/fenv.c                           0x00000000   Number         0  _rserrno.o ABSOLUTE
    ../clib/heapalloc.c                      0x00000000   Number         0  hrguard.o ABSOLUTE
    ../clib/heapaux.c                        0x00000000   Number         0  heapauxi.o ABSOLUTE
    ../clib/libinit.s                        0x00000000   Number         0  libshutdown2.o ABSOLUTE
    ../clib/libinit.s                        0x00000000   Number         0  libinit.o ABSOLUTE
    ../clib/libinit.s                        0x00000000   Number         0  libshutdown.o ABSOLUTE
    ../clib/libinit.s                        0x00000000   Number         0  libinit2.o ABSOLUTE
    ../clib/longlong.s                       0x00000000   Number         0  llsdiv.o ABSOLUTE
    ../clib/longlong.s                       0x00000000   Number         0  lludivv7m.o ABSOLUTE
    ../clib/memcpset.s                       0x00000000   Number         0  rt_memcpy_w.o ABSOLUTE
    ../clib/signal.c                         0x00000000   Number         0  __raise.o ABSOLUTE
    ../clib/signal.c                         0x00000000   Number         0  defsig_general.o ABSOLUTE
    ../clib/signal.c                         0x00000000   Number         0  defsig_other.o ABSOLUTE
    ../clib/signal.c                         0x00000000   Number         0  defsig_pvfn_inner.o ABSOLUTE
    ../clib/signal.c                         0x00000000   Number         0  defsig_fpe_inner.o ABSOLUTE
    ../clib/signal.c                         0x00000000   Number         0  defsig_exit.o ABSOLUTE
    ../clib/signal.c                         0x00000000   Number         0  defsig_rtmem_formal.o ABSOLUTE
    ../clib/signal.c                         0x00000000   Number         0  defsig_stak_inner.o ABSOLUTE
    ../clib/signal.c                         0x00000000   Number         0  defsig_abrt_inner.o ABSOLUTE
    ../clib/signal.c                         0x00000000   Number         0  defsig_rtred_inner.o ABSOLUTE
    ../clib/signal.c                         0x00000000   Number         0  defsig_segv_inner.o ABSOLUTE
    ../clib/signal.c                         0x00000000   Number         0  defsig_rtmem_outer.o ABSOLUTE
    ../clib/signal.c                         0x00000000   Number         0  defsig_cppl_inner.o ABSOLUTE
    ../clib/signal.c                         0x00000000   Number         0  defsig_fpe_formal.o ABSOLUTE
    ../clib/signal.c                         0x00000000   Number         0  defsig_fpe_outer.o ABSOLUTE
    ../clib/signal.c                         0x00000000   Number         0  defsig_rtmem_inner.o ABSOLUTE
    ../clib/signal.s                         0x00000000   Number         0  defsig.o ABSOLUTE
    ../clib/stdlib.c                         0x00000000   Number         0  exit.o ABSOLUTE
    ../clib/string.c                         0x00000000   Number         0  strcat.o ABSOLUTE
    ../clib/string.c                         0x00000000   Number         0  strcpy.o ABSOLUTE
    ../clib/string.c                         0x00000000   Number         0  strlen.o ABSOLUTE
    ../fplib/basic.s                         0x00000000   Number         0  basic.o ABSOLUTE
    ../fplib/d2f.s                           0x00000000   Number         0  d2f.o ABSOLUTE
    ../fplib/daddsub.s                       0x00000000   Number         0  daddsub_clz.o ABSOLUTE
    ../fplib/dcheck1.s                       0x00000000   Number         0  dcheck1.o ABSOLUTE
    ../fplib/dcmpi.s                         0x00000000   Number         0  dcmpi.o ABSOLUTE
    ../fplib/ddiv.s                          0x00000000   Number         0  ddiv.o ABSOLUTE
    ../fplib/dfix.s                          0x00000000   Number         0  dfix.o ABSOLUTE
    ../fplib/dflt.s                          0x00000000   Number         0  dflt_clz.o ABSOLUTE
    ../fplib/dleqf.s                         0x00000000   Number         0  dleqf.o ABSOLUTE
    ../fplib/dmul.s                          0x00000000   Number         0  dmul.o ABSOLUTE
    ../fplib/dnaninf.s                       0x00000000   Number         0  dnaninf.o ABSOLUTE
    ../fplib/dretinf.s                       0x00000000   Number         0  dretinf.o ABSOLUTE
    ../fplib/drleqf.s                        0x00000000   Number         0  drleqf.o ABSOLUTE
    ../fplib/dsqrt.s                         0x00000000   Number         0  dsqrt_umaal.o ABSOLUTE
    ../fplib/ffixll.s                        0x00000000   Number         0  ffixll.o ABSOLUTE
    ../fplib/fnaninf.s                       0x00000000   Number         0  fnaninf.o ABSOLUTE
    ../fplib/fpinit.s                        0x00000000   Number         0  fpinit.o ABSOLUTE
    ../fplib/fretinf.s                       0x00000000   Number         0  fretinf.o ABSOLUTE
    ../fplib/retnan.s                        0x00000000   Number         0  retnan.o ABSOLUTE
    ../fplib/scalbn.s                        0x00000000   Number         0  scalbn.o ABSOLUTE
    ../fplib/trapv.s                         0x00000000   Number         0  trapv.o ABSOLUTE
    ../fplib/usenofp.s                       0x00000000   Number         0  usenofp.o ABSOLUTE
    ../mathlib/dunder.c                      0x00000000   Number         0  dunder.o ABSOLUTE
    ../mathlib/fabs.c                        0x00000000   Number         0  fabs.o ABSOLUTE
    ../mathlib/floor.c                       0x00000000   Number         0  floor.o ABSOLUTE
    ../mathlib/fpclassify.c                  0x00000000   Number         0  fpclassify.o ABSOLUTE
    ../mathlib/poly.c                        0x00000000   Number         0  poly.o ABSOLUTE
    ../mathlib/pow.c                         0x00000000   Number         0  pow_x.o ABSOLUTE
    ../mathlib/pow.c                         0x00000000   Number         0  pow.o ABSOLUTE
    ../mathlib/qnan.c                        0x00000000   Number         0  qnan.o ABSOLUTE
    ../mathlib/sqrt.c                        0x00000000   Number         0  sqrt.o ABSOLUTE
    ../mathlib/sqrt.c                        0x00000000   Number         0  sqrt_x.o ABSOLUTE
    ..\HAL_CM.c                              0x00000000   Number         0  hal_cm.o ABSOLUTE
    ..\\rt_CMSIS.c                           0x00000000   Number         0  rt_cmsis.o ABSOLUTE
    ..\\rt_System.c                          0x00000000   Number         0  rt_system.o ABSOLUTE
    ..\rt_CMSIS.c                            0x00000000   Number         0  rt_cmsis.o ABSOLUTE
    ..\rt_Event.c                            0x00000000   Number         0  rt_event.o ABSOLUTE
    ..\rt_List.c                             0x00000000   Number         0  rt_list.o ABSOLUTE
    ..\rt_Mailbox.c                          0x00000000   Number         0  rt_mailbox.o ABSOLUTE
    ..\rt_MemBox.c                           0x00000000   Number         0  rt_membox.o ABSOLUTE
    ..\rt_Memory.c                           0x00000000   Number         0  rt_memory.o ABSOLUTE
    ..\rt_Mutex.c                            0x00000000   Number         0  rt_mutex.o ABSOLUTE
    ..\rt_Robin.c                            0x00000000   Number         0  rt_robin.o ABSOLUTE
    ..\rt_Semaphore.c                        0x00000000   Number         0  rt_semaphore.o ABSOLUTE
    ..\rt_System.c                           0x00000000   Number         0  rt_system.o ABSOLUTE
    ..\rt_Task.c                             0x00000000   Number         0  rt_task.o ABSOLUTE
    ..\rt_Time.c                             0x00000000   Number         0  rt_time.o ABSOLUTE
    Communication.c                          0x00000000   Number         0  communication.o ABSOLUTE
    Communication.c                          0x00000000   Number         0  communication.o ABSOLUTE
    HAL_CM4.c                                0x00000000   Number         0  hal_cm4.o ABSOLUTE
    HAL_CM4.c                                0x00000000   Number         0  hal_cm4.o ABSOLUTE
    Lab5.c                                   0x00000000   Number         0  lab5.o ABSOLUTE
    Lab5.c                                   0x00000000   Number         0  lab5.o ABSOLUTE
    RTE\CMSIS\RTX_Conf_CM.c                  0x00000000   Number         0  rtx_conf_cm.o ABSOLUTE
    RTE\Device\TM4C1294NCPDT\startup_TM4C129.s 0x00000000   Number         0  startup_tm4c129.o ABSOLUTE
    RTE\Device\TM4C1294NCPDT\system_TM4C129.c 0x00000000   Number         0  system_tm4c129.o ABSOLUTE
    RTE\\CMSIS\\RTX_Conf_CM.c                0x00000000   Number         0  rtx_conf_cm.o ABSOLUTE
    RTE\\Device\\TM4C1294NCPDT\\system_TM4C129.c 0x00000000   Number         0  system_tm4c129.o ABSOLUTE
    SVC_Table.s                              0x00000000   Number         0  svc_table.o ABSOLUTE
    Task.c                                   0x00000000   Number         0  task.o ABSOLUTE
    Terminal.c                               0x00000000   Number         0  terminal.o ABSOLUTE
    Terminal.c                               0x00000000   Number         0  terminal.o ABSOLUTE
    Utils.c                                  0x00000000   Number         0  utils.o ABSOLUTE
    cfaf128x128x16.c                         0x00000000   Number         0  cfaf128x128x16.o ABSOLUTE
    cpu.c                                    0x00000000   Number         0  cpu.o ABSOLUTE
    cpu.c                                    0x00000000   Number         0  cpu.o ABSOLUTE
    dc.s                                     0x00000000   Number         0  dc.o ABSOLUTE
    gantt.c                                  0x00000000   Number         0  gantt.o ABSOLUTE
    gantt.c                                  0x00000000   Number         0  gantt.o ABSOLUTE
    interrupt.c                              0x00000000   Number         0  interrupt.o ABSOLUTE
    queue.c                                  0x00000000   Number         0  queue.o ABSOLUTE
    sysctl.c                                 0x00000000   Number         0  sysctl.o ABSOLUTE
    sysctl.c                                 0x00000000   Number         0  sysctl.o ABSOLUTE
    uart_functions.c                         0x00000000   Number         0  uart_functions.o ABSOLUTE
    uart_functions.c                         0x00000000   Number         0  uart_functions.o ABSOLUTE
    !!!main                                  0x00000200   Section        8  __main.o(!!!main)
    !!!scatter                               0x00000208   Section       52  __scatter.o(!!!scatter)
    !!handler_copy                           0x0000023c   Section       26  __scatter_copy.o(!!handler_copy)
    !!handler_zi                             0x00000258   Section       28  __scatter_zi.o(!!handler_zi)
    .ARM.Collect$$libinit$$00000000          0x00000274   Section        2  libinit.o(.ARM.Collect$$libinit$$00000000)
    .ARM.Collect$$libinit$$00000001          0x00000276   Section        4  libinit2.o(.ARM.Collect$$libinit$$00000001)
    .ARM.Collect$$libinit$$00000004          0x0000027a   Section        0  libinit2.o(.ARM.Collect$$libinit$$00000004)
    .ARM.Collect$$libinit$$0000000A          0x0000027a   Section        0  libinit2.o(.ARM.Collect$$libinit$$0000000A)
    .ARM.Collect$$libinit$$0000000C          0x0000027a   Section        0  libinit2.o(.ARM.Collect$$libinit$$0000000C)
    .ARM.Collect$$libinit$$0000000E          0x0000027a   Section        0  libinit2.o(.ARM.Collect$$libinit$$0000000E)
    .ARM.Collect$$libinit$$00000011          0x0000027a   Section        0  libinit2.o(.ARM.Collect$$libinit$$00000011)
    .ARM.Collect$$libinit$$00000013          0x0000027a   Section        0  libinit2.o(.ARM.Collect$$libinit$$00000013)
    .ARM.Collect$$libinit$$00000015          0x0000027a   Section        0  libinit2.o(.ARM.Collect$$libinit$$00000015)
    .ARM.Collect$$libinit$$00000017          0x0000027a   Section        0  libinit2.o(.ARM.Collect$$libinit$$00000017)
    .ARM.Collect$$libinit$$00000019          0x0000027a   Section        0  libinit2.o(.ARM.Collect$$libinit$$00000019)
    .ARM.Collect$$libinit$$0000001B          0x0000027a   Section        0  libinit2.o(.ARM.Collect$$libinit$$0000001B)
    .ARM.Collect$$libinit$$0000001D          0x0000027a   Section        0  libinit2.o(.ARM.Collect$$libinit$$0000001D)
    .ARM.Collect$$libinit$$0000001F          0x0000027a   Section        0  libinit2.o(.ARM.Collect$$libinit$$0000001F)
    .ARM.Collect$$libinit$$00000021          0x0000027a   Section        0  libinit2.o(.ARM.Collect$$libinit$$00000021)
    .ARM.Collect$$libinit$$00000023          0x0000027a   Section        0  libinit2.o(.ARM.Collect$$libinit$$00000023)
    .ARM.Collect$$libinit$$00000025          0x0000027a   Section        0  libinit2.o(.ARM.Collect$$libinit$$00000025)
    .ARM.Collect$$libinit$$0000002C          0x0000027a   Section        0  libinit2.o(.ARM.Collect$$libinit$$0000002C)
    .ARM.Collect$$libinit$$0000002E          0x0000027a   Section        0  libinit2.o(.ARM.Collect$$libinit$$0000002E)
    .ARM.Collect$$libinit$$00000030          0x0000027a   Section        0  libinit2.o(.ARM.Collect$$libinit$$00000030)
    .ARM.Collect$$libinit$$00000032          0x0000027a   Section        0  libinit2.o(.ARM.Collect$$libinit$$00000032)
    .ARM.Collect$$libinit$$00000033          0x0000027a   Section        2  libinit2.o(.ARM.Collect$$libinit$$00000033)
    .ARM.Collect$$libshutdown$$00000000      0x0000027c   Section        2  libshutdown.o(.ARM.Collect$$libshutdown$$00000000)
    .ARM.Collect$$libshutdown$$00000002      0x0000027e   Section        0  libshutdown2.o(.ARM.Collect$$libshutdown$$00000002)
    .ARM.Collect$$libshutdown$$00000004      0x0000027e   Section        0  libshutdown2.o(.ARM.Collect$$libshutdown$$00000004)
    .ARM.Collect$$libshutdown$$00000007      0x0000027e   Section        0  libshutdown2.o(.ARM.Collect$$libshutdown$$00000007)
    .ARM.Collect$$libshutdown$$0000000A      0x0000027e   Section        0  libshutdown2.o(.ARM.Collect$$libshutdown$$0000000A)
    .ARM.Collect$$libshutdown$$0000000C      0x0000027e   Section        0  libshutdown2.o(.ARM.Collect$$libshutdown$$0000000C)
    .ARM.Collect$$libshutdown$$0000000F      0x0000027e   Section        0  libshutdown2.o(.ARM.Collect$$libshutdown$$0000000F)
    .ARM.Collect$$libshutdown$$00000010      0x0000027e   Section        2  libshutdown2.o(.ARM.Collect$$libshutdown$$00000010)
    .ARM.Collect$$rtentry$$00000000          0x00000280   Section        0  __rtentry.o(.ARM.Collect$$rtentry$$00000000)
    .ARM.Collect$$rtentry$$00000002          0x00000280   Section        0  __rtentry2.o(.ARM.Collect$$rtentry$$00000002)
    .ARM.Collect$$rtentry$$00000004          0x00000280   Section        6  __rtentry4.o(.ARM.Collect$$rtentry$$00000004)
    .ARM.Collect$$rtentry$$00000009          0x00000286   Section        0  __rtentry2.o(.ARM.Collect$$rtentry$$00000009)
    .ARM.Collect$$rtentry$$0000000A          0x00000286   Section        4  __rtentry2.o(.ARM.Collect$$rtentry$$0000000A)
    .ARM.Collect$$rtentry$$0000000B          0x0000028a   Section        8  __rtentry2.o(.ARM.Collect$$rtentry$$0000000B)
    .ARM.Collect$$rtentry$$0000000D          0x00000292   Section        8  __rtentry2.o(.ARM.Collect$$rtentry$$0000000D)
    .ARM.Collect$$rtexit$$00000000           0x0000029a   Section        2  rtexit.o(.ARM.Collect$$rtexit$$00000000)
    .ARM.Collect$$rtexit$$00000002           0x0000029c   Section        0  rtexit2.o(.ARM.Collect$$rtexit$$00000002)
    .ARM.Collect$$rtexit$$00000003           0x0000029c   Section        4  rtexit2.o(.ARM.Collect$$rtexit$$00000003)
    .ARM.Collect$$rtexit$$00000004           0x000002a0   Section        6  rtexit2.o(.ARM.Collect$$rtexit$$00000004)
    .emb_text                                0x000002a8   Section       28  rtx_conf_cm.o(.emb_text)
    $v0                                      0x000002a8   Number         0  rtx_conf_cm.o(.emb_text)
    .emb_text                                0x000002c4   Section      408  hal_cm4.o(.emb_text)
    $v0                                      0x000002c4   Number         0  hal_cm4.o(.emb_text)
    .text                                    0x0000045c   Section        0  utils.o(.text)
    .text                                    0x0000068c   Section        0  lab5.o(.text)
    .text                                    0x00000f60   Section        0  queue.o(.text)
    .text                                    0x00001016   Section        0  task.o(.text)
    .text                                    0x00001154   Section        0  rtx_conf_cm.o(.text)
    __tagsym$$used                           0x000011bb   Number         0  rtx_conf_cm.o(.text)
    __tagsym$$used                           0x000011d1   Number         0  rtx_conf_cm.o(.text)
    .text                                    0x00001200   Section      304  startup_tm4c129.o(.text)
    $v0                                      0x00001200   Number         0  startup_tm4c129.o(.text)
    .text                                    0x00001330   Section        0  system_tm4c129.o(.text)
    .text                                    0x00001358   Section        8  libspace.o(.text)
    .text                                    0x00001360   Section      238  lludivv7m.o(.text)
    .text                                    0x0000144e   Section       72  llsdiv.o(.text)
    .text                                    0x00001496   Section        0  exit.o(.text)
    .text                                    0x000014a8   Section        0  strcpy.o(.text)
    .text                                    0x000014f0   Section      100  rt_memcpy_w.o(.text)
    .text                                    0x00001554   Section        0  heapauxi.o(.text)
    .text                                    0x0000155a   Section        0  _rserrno.o(.text)
    .text                                    0x00001570   Section        4  rt_errno_addr_twolibspace.o(.text)
    .text                                    0x00001574   Section        0  sys_exit.o(.text)
    .text                                    0x00001580   Section       74  sys_stackheap_outer.o(.text)
    .text                                    0x000015ca   Section        2  use_no_semi.o(.text)
    .text                                    0x000015cc   Section        0  indicate_semi.o(.text)
    SVC_TABLE                                0x000015cc   Section        4  svc_table.o(SVC_TABLE)
    i.__ARM_fpclassify                       0x000015d0   Section        0  fpclassify.o(i.__ARM_fpclassify)
    i.__hardfp_floor                         0x00001600   Section        0  floor.o(i.__hardfp_floor)
    i.__hardfp_pow                           0x00001718   Section        0  pow.o(i.__hardfp_pow)
    i.__kernel_poly                          0x00002368   Section        0  poly.o(i.__kernel_poly)
    i.__mathlib_dbl_divzero                  0x00002460   Section        0  dunder.o(i.__mathlib_dbl_divzero)
    i.__mathlib_dbl_infnan2                  0x00002490   Section        0  dunder.o(i.__mathlib_dbl_infnan2)
    i.__mathlib_dbl_invalid                  0x000024a8   Section        0  dunder.o(i.__mathlib_dbl_invalid)
    i.__mathlib_dbl_overflow                 0x000024c8   Section        0  dunder.o(i.__mathlib_dbl_overflow)
    i.__mathlib_dbl_underflow                0x000024e8   Section        0  dunder.o(i.__mathlib_dbl_underflow)
    i._init_box                              0x00002508   Section        0  rt_membox.o(i._init_box)
    i.dbg_init                               0x00002550   Section        0  hal_cm.o(i.dbg_init)
    i.dbg_task_notify                        0x00002580   Section        0  hal_cm.o(i.dbg_task_notify)
    i.dbg_task_switch                        0x000025a0   Section        0  hal_cm.o(i.dbg_task_switch)
    i.fabs                                   0x000025b0   Section        0  fabs.o(i.fabs)
    i.isrMessageGet                          0x000025c8   Section        0  rt_cmsis.o(i.isrMessageGet)
    i.isrMessagePut                          0x000025f2   Section        0  rt_cmsis.o(i.isrMessagePut)
    i.isrSignalSet                           0x0000261e   Section        0  rt_cmsis.o(i.isrSignalSet)
    i.isr_evt_set                            0x00002644   Section        0  rt_event.o(i.isr_evt_set)
    i.isr_mbx_receive                        0x0000266c   Section        0  rt_mailbox.o(i.isr_mbx_receive)
    i.isr_mbx_send                           0x000026c2   Section        0  rt_mailbox.o(i.isr_mbx_send)
    i.osKernelInitialize                     0x000026d0   Section        0  rt_cmsis.o(i.osKernelInitialize)
    i.osKernelStart                          0x000026f4   Section        0  rt_cmsis.o(i.osKernelStart)
    i.osKernelSysTick                        0x00002760   Section        0  rt_cmsis.o(i.osKernelSysTick)
    i.osMessageGet                           0x00002778   Section        0  rt_cmsis.o(i.osMessageGet)
    i.osMutexCreate                          0x00002790   Section        0  rt_cmsis.o(i.osMutexCreate)
    i.osMutexRelease                         0x000027bc   Section        0  rt_cmsis.o(i.osMutexRelease)
    i.osMutexWait                            0x000027d4   Section        0  rt_cmsis.o(i.osMutexWait)
    i.osSignalSet                            0x000027ec   Section        0  rt_cmsis.o(i.osSignalSet)
    i.osSignalWait                           0x00002804   Section        0  rt_cmsis.o(i.osSignalWait)
    i.osThreadCreate                         0x0000281c   Section        0  rt_cmsis.o(i.osThreadCreate)
    i.osThreadExit                           0x00002848   Section        0  rt_cmsis.o(i.osThreadExit)
    i.osThreadGetId                          0x00002860   Section        0  rt_cmsis.o(i.osThreadGetId)
    i.osThreadSetPriority                    0x00002878   Section        0  rt_cmsis.o(i.osThreadSetPriority)
    i.osThreadYield                          0x00002890   Section        0  rt_cmsis.o(i.osThreadYield)
    i.osTimerCall                            0x000028a8   Section        0  rt_cmsis.o(i.osTimerCall)
    i.osTimerCreate                          0x000028b4   Section        0  rt_cmsis.o(i.osTimerCreate)
    i.osTimerStart                           0x000028e0   Section        0  rt_cmsis.o(i.osTimerStart)
    i.osTimerStop                            0x000028f8   Section        0  rt_cmsis.o(i.osTimerStop)
    i.osTimerThread                          0x00002910   Section        0  rt_cmsis.o(i.osTimerThread)
    i.os_tick_init                           0x0000293c   Section        0  rt_system.o(i.os_tick_init)
    i.os_tick_irqack                         0x00002964   Section        0  rt_system.o(i.os_tick_irqack)
    i.os_tick_ovf                            0x00002968   Section        0  rt_system.o(i.os_tick_ovf)
    i.os_tick_val                            0x00002978   Section        0  rt_system.o(i.os_tick_val)
    i.rt_alloc_box                           0x0000298c   Section        0  rt_membox.o(i.rt_alloc_box)
    i.rt_alloc_mem                           0x000029a6   Section        0  rt_memory.o(i.rt_alloc_mem)
    i.rt_block                               0x000029e4   Section        0  rt_task.o(i.rt_block)
    i.rt_chk_robin                           0x00002a1c   Section        0  rt_robin.o(i.rt_chk_robin)
    i.rt_dec_dly                             0x00002a64   Section        0  rt_list.o(i.rt_dec_dly)
    i.rt_dispatch                            0x00002ad4   Section        0  rt_task.o(i.rt_dispatch)
    i.rt_evt_psh                             0x00002b18   Section        0  rt_event.o(i.rt_evt_psh)
    i.rt_evt_set                             0x00002b68   Section        0  rt_event.o(i.rt_evt_set)
    i.rt_evt_wait                            0x00002bc4   Section        0  rt_event.o(i.rt_evt_wait)
    i.rt_free_box                            0x00002c00   Section        0  rt_membox.o(i.rt_free_box)
    i.rt_free_mem                            0x00002c2c   Section        0  rt_memory.o(i.rt_free_mem)
    i.rt_get_first                           0x00002c54   Section        0  rt_list.o(i.rt_get_first)
    i.rt_get_same_rdy_prio                   0x00002c7c   Section        0  rt_list.o(i.rt_get_same_rdy_prio)
    i.rt_id2obj                              0x00002ca0   Section        0  rt_cmsis.o(i.rt_id2obj)
    rt_id2obj                                0x00002ca1   Thumb Code     8  rt_cmsis.o(i.rt_id2obj)
    i.rt_init_context                        0x00002ca8   Section        0  rt_task.o(i.rt_init_context)
    rt_init_context                          0x00002ca9   Thumb Code    66  rt_task.o(i.rt_init_context)
    i.rt_init_mem                            0x00002cf0   Section        0  rt_memory.o(i.rt_init_mem)
    i.rt_init_robin                          0x00002d0c   Section        0  rt_robin.o(i.rt_init_robin)
    i.rt_init_stack                          0x00002d24   Section        0  hal_cm.o(i.rt_init_stack)
    i.rt_mbx_check                           0x00002da4   Section        0  rt_mailbox.o(i.rt_mbx_check)
    i.rt_mbx_init                            0x00002dac   Section        0  rt_mailbox.o(i.rt_mbx_init)
    i.rt_mbx_psh                             0x00002dc8   Section        0  rt_mailbox.o(i.rt_mbx_psh)
    i.rt_mbx_wait                            0x00002eb8   Section        0  rt_mailbox.o(i.rt_mbx_wait)
    i.rt_ms2tick                             0x00002f6c   Section        0  rt_cmsis.o(i.rt_ms2tick)
    rt_ms2tick                               0x00002f6d   Thumb Code    58  rt_cmsis.o(i.rt_ms2tick)
    i.rt_mut_init                            0x00002fb0   Section        0  rt_mutex.o(i.rt_mut_init)
    i.rt_mut_release                         0x00002fc0   Section        0  rt_mutex.o(i.rt_mut_release)
    i.rt_mut_wait                            0x00003098   Section        0  rt_mutex.o(i.rt_mut_wait)
    i.rt_pop_req                             0x00003110   Section        0  rt_system.o(i.rt_pop_req)
    i.rt_psh_req                             0x0000318c   Section        0  rt_system.o(i.rt_psh_req)
    i.rt_psq_enq                             0x000031ac   Section        0  rt_list.o(i.rt_psq_enq)
    i.rt_put_dly                             0x00003208   Section        0  rt_list.o(i.rt_put_dly)
    i.rt_put_prio                            0x00003250   Section        0  rt_list.o(i.rt_put_prio)
    i.rt_put_rdy_first                       0x00003288   Section        0  rt_list.o(i.rt_put_rdy_first)
    i.rt_resort_prio                         0x0000329c   Section        0  rt_list.o(i.rt_resort_prio)
    i.rt_ret_regs                            0x000032d0   Section        0  hal_cm.o(i.rt_ret_regs)
    rt_ret_regs                              0x000032d1   Thumb Code    16  hal_cm.o(i.rt_ret_regs)
    i.rt_ret_val                             0x000032e0   Section        0  hal_cm.o(i.rt_ret_val)
    i.rt_ret_val2                            0x000032ec   Section        0  hal_cm.o(i.rt_ret_val2)
    i.rt_rmv_dly                             0x000032fc   Section        0  rt_list.o(i.rt_rmv_dly)
    i.rt_rmv_list                            0x00003324   Section        0  rt_list.o(i.rt_rmv_list)
    i.rt_sem_psh                             0x00003354   Section        0  rt_semaphore.o(i.rt_sem_psh)
    i.rt_stk_check                           0x00003388   Section        0  rt_system.o(i.rt_stk_check)
    i.rt_switch_req                          0x000033ac   Section        0  rt_task.o(i.rt_switch_req)
    i.rt_sys_init                            0x000033d4   Section        0  rt_task.o(i.rt_sys_init)
    i.rt_sys_start                           0x000034a0   Section        0  rt_task.o(i.rt_sys_start)
    i.rt_systick                             0x00003518   Section        0  rt_system.o(i.rt_systick)
    i.rt_tid2ptcb                            0x00003558   Section        0  rt_cmsis.o(i.rt_tid2ptcb)
    rt_tid2ptcb                              0x00003559   Thumb Code    18  rt_cmsis.o(i.rt_tid2ptcb)
    i.rt_timer_insert                        0x0000356c   Section        0  rt_cmsis.o(i.rt_timer_insert)
    rt_timer_insert                          0x0000356d   Thumb Code    48  rt_cmsis.o(i.rt_timer_insert)
    i.rt_timer_remove                        0x000035a0   Section        0  rt_cmsis.o(i.rt_timer_remove)
    rt_timer_remove                          0x000035a1   Thumb Code    56  rt_cmsis.o(i.rt_timer_remove)
    i.rt_tsk_create                          0x000035dc   Section        0  rt_task.o(i.rt_tsk_create)
    i.rt_tsk_delete                          0x00003664   Section        0  rt_task.o(i.rt_tsk_delete)
    i.rt_tsk_pass                            0x000037e0   Section        0  rt_task.o(i.rt_tsk_pass)
    i.rt_tsk_prio                            0x00003810   Section        0  rt_task.o(i.rt_tsk_prio)
    i.rt_tsk_self                            0x0000388c   Section        0  rt_task.o(i.rt_tsk_self)
    i.sqrt                                   0x0000389c   Section        0  sqrt.o(i.sqrt)
    i.svcKernelInitialize                    0x0000390c   Section        0  rt_cmsis.o(i.svcKernelInitialize)
    i.svcKernelStart                         0x0000397c   Section        0  rt_cmsis.o(i.svcKernelStart)
    i.svcKernelSysTick                       0x000039c4   Section        0  rt_cmsis.o(i.svcKernelSysTick)
    i.svcMessageCreate                       0x000039fc   Section        0  rt_cmsis.o(i.svcMessageCreate)
    i.svcMessageGet                          0x00003a20   Section        0  rt_cmsis.o(i.svcMessageGet)
    i.svcMutexCreate                         0x00003a5a   Section        0  rt_cmsis.o(i.svcMutexCreate)
    i.svcMutexRelease                        0x00003a76   Section        0  rt_cmsis.o(i.svcMutexRelease)
    i.svcMutexWait                           0x00003a98   Section        0  rt_cmsis.o(i.svcMutexWait)
    i.svcSignalSet                           0x00003ad2   Section        0  rt_cmsis.o(i.svcSignalSet)
    i.svcSignalWait                          0x00003af8   Section        0  rt_cmsis.o(i.svcSignalWait)
    i.svcThreadCreate                        0x00003b4c   Section        0  rt_cmsis.o(i.svcThreadCreate)
    i.svcThreadGetId                         0x00003bb8   Section        0  rt_cmsis.o(i.svcThreadGetId)
    i.svcThreadSetPriority                   0x00003bd4   Section        0  rt_cmsis.o(i.svcThreadSetPriority)
    i.svcThreadTerminate                     0x00003c04   Section        0  rt_cmsis.o(i.svcThreadTerminate)
    i.svcThreadYield                         0x00003c3c   Section        0  rt_cmsis.o(i.svcThreadYield)
    i.svcTimerCall                           0x00003c46   Section        0  rt_cmsis.o(i.svcTimerCall)
    i.svcTimerCreate                         0x00003c60   Section        0  rt_cmsis.o(i.svcTimerCreate)
    i.svcTimerStart                          0x00003c98   Section        0  rt_cmsis.o(i.svcTimerStart)
    i.svcTimerStop                           0x00003cfc   Section        0  rt_cmsis.o(i.svcTimerStop)
    i.sysTimerTick                           0x00003d20   Section        0  rt_cmsis.o(i.sysTimerTick)
    x$fpl$basic                              0x00003d7c   Section       24  basic.o(x$fpl$basic)
    $v0                                      0x00003d7c   Number         0  basic.o(x$fpl$basic)
    x$fpl$dadd                               0x00003d94   Section      336  daddsub_clz.o(x$fpl$dadd)
    $v0                                      0x00003d94   Number         0  daddsub_clz.o(x$fpl$dadd)
    _dadd1                                   0x00003da5   Thumb Code     0  daddsub_clz.o(x$fpl$dadd)
    x$fpl$dcheck1                            0x00003ee4   Section       16  dcheck1.o(x$fpl$dcheck1)
    $v0                                      0x00003ee4   Number         0  dcheck1.o(x$fpl$dcheck1)
    x$fpl$dcmpinf                            0x00003ef4   Section       24  dcmpi.o(x$fpl$dcmpinf)
    $v0                                      0x00003ef4   Number         0  dcmpi.o(x$fpl$dcmpinf)
    x$fpl$ddiv                               0x00003f0c   Section      688  ddiv.o(x$fpl$ddiv)
    $v0                                      0x00003f0c   Number         0  ddiv.o(x$fpl$ddiv)
    ddiv_entry                               0x00003f13   Thumb Code     0  ddiv.o(x$fpl$ddiv)
    x$fpl$dfix                               0x000041bc   Section       94  dfix.o(x$fpl$dfix)
    $v0                                      0x000041bc   Number         0  dfix.o(x$fpl$dfix)
    x$fpl$dflt                               0x0000421a   Section       46  dflt_clz.o(x$fpl$dflt)
    $v0                                      0x0000421a   Number         0  dflt_clz.o(x$fpl$dflt)
    x$fpl$dfltu                              0x00004248   Section       38  dflt_clz.o(x$fpl$dfltu)
    $v0                                      0x00004248   Number         0  dflt_clz.o(x$fpl$dfltu)
    x$fpl$dleqf                              0x00004270   Section      120  dleqf.o(x$fpl$dleqf)
    $v0                                      0x00004270   Number         0  dleqf.o(x$fpl$dleqf)
    x$fpl$dmul                               0x000042e8   Section      340  dmul.o(x$fpl$dmul)
    $v0                                      0x000042e8   Number         0  dmul.o(x$fpl$dmul)
    x$fpl$dnaninf                            0x0000443c   Section      156  dnaninf.o(x$fpl$dnaninf)
    $v0                                      0x0000443c   Number         0  dnaninf.o(x$fpl$dnaninf)
    x$fpl$dretinf                            0x000044d8   Section       12  dretinf.o(x$fpl$dretinf)
    $v0                                      0x000044d8   Number         0  dretinf.o(x$fpl$dretinf)
    x$fpl$drleqf                             0x000044e4   Section      108  drleqf.o(x$fpl$drleqf)
    $v0                                      0x000044e4   Number         0  drleqf.o(x$fpl$drleqf)
    x$fpl$drsb                               0x00004550   Section       22  daddsub_clz.o(x$fpl$drsb)
    $v0                                      0x00004550   Number         0  daddsub_clz.o(x$fpl$drsb)
    x$fpl$dsqrt                              0x00004568   Section      408  dsqrt_umaal.o(x$fpl$dsqrt)
    $v0                                      0x00004568   Number         0  dsqrt_umaal.o(x$fpl$dsqrt)
    x$fpl$dsub                               0x00004700   Section      468  daddsub_clz.o(x$fpl$dsub)
    $v0                                      0x00004700   Number         0  daddsub_clz.o(x$fpl$dsub)
    _dsub1                                   0x00004711   Thumb Code     0  daddsub_clz.o(x$fpl$dsub)
    x$fpl$fnaninf                            0x000048d4   Section      140  fnaninf.o(x$fpl$fnaninf)
    $v0                                      0x000048d4   Number         0  fnaninf.o(x$fpl$fnaninf)
    x$fpl$fpinit                             0x00004960   Section       10  fpinit.o(x$fpl$fpinit)
    $v0                                      0x00004960   Number         0  fpinit.o(x$fpl$fpinit)
    x$fpl$llsfromf                           0x0000496c   Section      134  ffixll.o(x$fpl$llsfromf)
    $v0                                      0x0000496c   Number         0  ffixll.o(x$fpl$llsfromf)
    x$fpl$retnan                             0x000049f2   Section      100  retnan.o(x$fpl$retnan)
    $v0                                      0x000049f2   Number         0  retnan.o(x$fpl$retnan)
    x$fpl$scalbn                             0x00004a56   Section       92  scalbn.o(x$fpl$scalbn)
    $v0                                      0x00004a56   Number         0  scalbn.o(x$fpl$scalbn)
    x$fpl$trapveneer                         0x00004ab2   Section       48  trapv.o(x$fpl$trapveneer)
    $v0                                      0x00004ab2   Number         0  trapv.o(x$fpl$trapveneer)
    x$fpl$usenofp                            0x00004ae2   Section        0  usenofp.o(x$fpl$usenofp)
    .constdata                               0x00004ae4   Section      108  lab5.o(.constdata)
    .constdata                               0x00004b50   Section      104  rtx_conf_cm.o(.constdata)
    __tagsym$$used                           0x00004b6c   Number         0  rtx_conf_cm.o(.constdata)
    __tagsym$$used                           0x00004b70   Number         0  rtx_conf_cm.o(.constdata)
    __tagsym$$used                           0x00004b74   Number         0  rtx_conf_cm.o(.constdata)
    __tagsym$$used                           0x00004b78   Number         0  rtx_conf_cm.o(.constdata)
    .constdata                               0x00004bb8   Section      136  pow.o(.constdata)
    bp                                       0x00004bb8   Data          16  pow.o(.constdata)
    dp_h                                     0x00004bc8   Data          16  pow.o(.constdata)
    dp_l                                     0x00004bd8   Data          16  pow.o(.constdata)
    L                                        0x00004be8   Data          48  pow.o(.constdata)
    P                                        0x00004c18   Data          40  pow.o(.constdata)
    .constdata                               0x00004c40   Section        8  qnan.o(.constdata)
    .conststring                             0x00004c48   Section       37  utils.o(.conststring)
    .data                                    0x20000000   Section        8  utils.o(.data)
    pAscii                                   0x20000000   Data           4  utils.o(.data)
    pAscii                                   0x20000004   Data           4  utils.o(.data)
    .data                                    0x20000008   Section       12  lab5.o(.data)
    .data                                    0x20000014   Section       20  rtx_conf_cm.o(.data)
    nr_mutex                                 0x20000024   Data           4  rtx_conf_cm.o(.data)
    .data                                    0x20000028   Section        4  system_tm4c129.o(.data)
    .data                                    0x2000002c   Section        8  rt_cmsis.o(.data)
    .data                                    0x20000034   Section        8  rt_task.o(.data)
    .data                                    0x2000003c   Section        8  rt_system.o(.data)
    os_lock                                  0x2000003c   Data           1  rt_system.o(.data)
    os_psh_flag                              0x2000003d   Data           1  rt_system.o(.data)
    pend_flags                               0x2000003e   Data           1  rt_system.o(.data)
    .data                                    0x20000044   Section        4  rt_time.o(.data)
    .data                                    0x20000048   Section        8  rt_robin.o(.data)
    .data                                    0x20000050   Section        1  hal_cm.o(.data)
    .bss                                     0x20000058   Section      872  lab5.o(.bss)
    .bss                                     0x200003c0   Section     9120  rtx_conf_cm.o(.bss)
    std_libspace                             0x20002380   Data         864  rtx_conf_cm.o(.bss)
    std_libmutex                             0x200026e0   Data         128  rtx_conf_cm.o(.bss)
    .bss                                     0x20002760   Section       52  rt_task.o(.bss)
    .bss                                     0x20002794   Section       48  rt_list.o(.bss)
    .bss                                     0x200027c4   Section       96  libspace.o(.bss)
    HEAP                                     0x20002828   Section    36864  startup_tm4c129.o(HEAP)
    Heap_Mem                                 0x20002828   Data       36864  startup_tm4c129.o(HEAP)
    STACK                                    0x2000b828   Section      512  startup_tm4c129.o(STACK)
    Stack_Mem                                0x2000b828   Data         512  startup_tm4c129.o(STACK)
    __initial_sp                             0x2000ba28   Data           0  startup_tm4c129.o(STACK)

    Global Symbols

    Symbol Name                              Value     Ov Type        Size  Object(Section)

    BuildAttributes$$THM_ISAv4$E$P$D$K$B$S$7EM$VFPi3$EXTD16$VFPS$VFMA$PE$A:L22UL41UL21$X:L11$S22US41US21$IEEE1$IW$USESV6$~STKCKD$USESV7$~SHL$OTIME$ROPI$IEEEX$EBA8$UX$STANDARDLIB$REQ8$PRES8$EABIv2 0x00000000   Number         0  anon$$obj.o ABSOLUTE
    __ARM_use_no_argv                        0x00000000   Number         0  lab5.o ABSOLUTE
    __Vectors                                0x00000000   Data           4  startup_tm4c129.o(RESET)
    __ARM_exceptions_init                     - Undefined Weak Reference
    __alloca_initialize                       - Undefined Weak Reference
    __arm_preinit_                            - Undefined Weak Reference
    __cpp_initialize__aeabi_                  - Undefined Weak Reference
    __cxa_finalize                            - Undefined Weak Reference
    __rt_locale                               - Undefined Weak Reference
    __sigvec_lookup                           - Undefined Weak Reference
    _atexit_init                              - Undefined Weak Reference
    _call_atexit_fns                          - Undefined Weak Reference
    _clock_init                               - Undefined Weak Reference
    _fp_trap_init                             - Undefined Weak Reference
    _fp_trap_shutdown                         - Undefined Weak Reference
    _get_lc_collate                           - Undefined Weak Reference
    _get_lc_ctype                             - Undefined Weak Reference
    _get_lc_monetary                          - Undefined Weak Reference
    _get_lc_numeric                           - Undefined Weak Reference
    _get_lc_time                              - Undefined Weak Reference
    _getenv_init                              - Undefined Weak Reference
    _handle_redirection                       - Undefined Weak Reference
    _init_alloc                               - Undefined Weak Reference
    _init_user_alloc                          - Undefined Weak Reference
    _initio                                   - Undefined Weak Reference
    _rand_init                                - Undefined Weak Reference
    _signal_finish                            - Undefined Weak Reference
    _signal_init                              - Undefined Weak Reference
    _terminate_alloc                          - Undefined Weak Reference
    _terminate_user_alloc                     - Undefined Weak Reference
    _terminateio                              - Undefined Weak Reference
    __Vectors_End                            0x00000200   Data           0  startup_tm4c129.o(RESET)
    __Vectors_Size                           0x00000200   Number         0  startup_tm4c129.o ABSOLUTE
    __main                                   0x00000201   Thumb Code     8  __main.o(!!!main)
    __scatterload                            0x00000209   Thumb Code     0  __scatter.o(!!!scatter)
    __scatterload_rt2                        0x00000209   Thumb Code    44  __scatter.o(!!!scatter)
    __scatterload_rt2_thumb_only             0x00000209   Thumb Code     0  __scatter.o(!!!scatter)
    __scatterload_null                       0x00000217   Thumb Code     0  __scatter.o(!!!scatter)
    __scatterload_copy                       0x0000023d   Thumb Code    26  __scatter_copy.o(!!handler_copy)
    __scatterload_zeroinit                   0x00000259   Thumb Code    28  __scatter_zi.o(!!handler_zi)
    __rt_lib_init                            0x00000275   Thumb Code     0  libinit.o(.ARM.Collect$$libinit$$00000000)
    __rt_lib_init_fp_1                       0x00000277   Thumb Code     0  libinit2.o(.ARM.Collect$$libinit$$00000001)
    __rt_lib_init_alloca_1                   0x0000027b   Thumb Code     0  libinit2.o(.ARM.Collect$$libinit$$0000002E)
    __rt_lib_init_argv_1                     0x0000027b   Thumb Code     0  libinit2.o(.ARM.Collect$$libinit$$0000002C)
    __rt_lib_init_atexit_1                   0x0000027b   Thumb Code     0  libinit2.o(.ARM.Collect$$libinit$$0000001B)
    __rt_lib_init_clock_1                    0x0000027b   Thumb Code     0  libinit2.o(.ARM.Collect$$libinit$$00000021)
    __rt_lib_init_cpp_1                      0x0000027b   Thumb Code     0  libinit2.o(.ARM.Collect$$libinit$$00000032)
    __rt_lib_init_exceptions_1               0x0000027b   Thumb Code     0  libinit2.o(.ARM.Collect$$libinit$$00000030)
    __rt_lib_init_fp_trap_1                  0x0000027b   Thumb Code     0  libinit2.o(.ARM.Collect$$libinit$$0000001F)
    __rt_lib_init_getenv_1                   0x0000027b   Thumb Code     0  libinit2.o(.ARM.Collect$$libinit$$00000023)
    __rt_lib_init_heap_1                     0x0000027b   Thumb Code     0  libinit2.o(.ARM.Collect$$libinit$$0000000A)
    __rt_lib_init_lc_collate_1               0x0000027b   Thumb Code     0  libinit2.o(.ARM.Collect$$libinit$$00000011)
    __rt_lib_init_lc_ctype_1                 0x0000027b   Thumb Code     0  libinit2.o(.ARM.Collect$$libinit$$00000013)
    __rt_lib_init_lc_monetary_1              0x0000027b   Thumb Code     0  libinit2.o(.ARM.Collect$$libinit$$00000015)
    __rt_lib_init_lc_numeric_1               0x0000027b   Thumb Code     0  libinit2.o(.ARM.Collect$$libinit$$00000017)
    __rt_lib_init_lc_time_1                  0x0000027b   Thumb Code     0  libinit2.o(.ARM.Collect$$libinit$$00000019)
    __rt_lib_init_preinit_1                  0x0000027b   Thumb Code     0  libinit2.o(.ARM.Collect$$libinit$$00000004)
    __rt_lib_init_rand_1                     0x0000027b   Thumb Code     0  libinit2.o(.ARM.Collect$$libinit$$0000000E)
    __rt_lib_init_return                     0x0000027b   Thumb Code     0  libinit2.o(.ARM.Collect$$libinit$$00000033)
    __rt_lib_init_signal_1                   0x0000027b   Thumb Code     0  libinit2.o(.ARM.Collect$$libinit$$0000001D)
    __rt_lib_init_stdio_1                    0x0000027b   Thumb Code     0  libinit2.o(.ARM.Collect$$libinit$$00000025)
    __rt_lib_init_user_alloc_1               0x0000027b   Thumb Code     0  libinit2.o(.ARM.Collect$$libinit$$0000000C)
    __rt_lib_shutdown                        0x0000027d   Thumb Code     0  libshutdown.o(.ARM.Collect$$libshutdown$$00000000)
    __rt_lib_shutdown_cpp_1                  0x0000027f   Thumb Code     0  libshutdown2.o(.ARM.Collect$$libshutdown$$00000002)
    __rt_lib_shutdown_fp_trap_1              0x0000027f   Thumb Code     0  libshutdown2.o(.ARM.Collect$$libshutdown$$00000007)
    __rt_lib_shutdown_heap_1                 0x0000027f   Thumb Code     0  libshutdown2.o(.ARM.Collect$$libshutdown$$0000000F)
    __rt_lib_shutdown_return                 0x0000027f   Thumb Code     0  libshutdown2.o(.ARM.Collect$$libshutdown$$00000010)
    __rt_lib_shutdown_signal_1               0x0000027f   Thumb Code     0  libshutdown2.o(.ARM.Collect$$libshutdown$$0000000A)
    __rt_lib_shutdown_stdio_1                0x0000027f   Thumb Code     0  libshutdown2.o(.ARM.Collect$$libshutdown$$00000004)
    __rt_lib_shutdown_user_alloc_1           0x0000027f   Thumb Code     0  libshutdown2.o(.ARM.Collect$$libshutdown$$0000000C)
    __rt_entry                               0x00000281   Thumb Code     0  __rtentry.o(.ARM.Collect$$rtentry$$00000000)
    __rt_entry_presh_1                       0x00000281   Thumb Code     0  __rtentry2.o(.ARM.Collect$$rtentry$$00000002)
    __rt_entry_sh                            0x00000281   Thumb Code     0  __rtentry4.o(.ARM.Collect$$rtentry$$00000004)
    __rt_entry_li                            0x00000287   Thumb Code     0  __rtentry2.o(.ARM.Collect$$rtentry$$0000000A)
    __rt_entry_postsh_1                      0x00000287   Thumb Code     0  __rtentry2.o(.ARM.Collect$$rtentry$$00000009)
    __rt_entry_postli_1                      0x0000028b   Thumb Code     0  __rtentry2.o(.ARM.Collect$$rtentry$$0000000B)
    __rt_entry_main                          0x00000293   Thumb Code     0  __rtentry2.o(.ARM.Collect$$rtentry$$0000000D)
    __rt_exit                                0x0000029b   Thumb Code     0  rtexit.o(.ARM.Collect$$rtexit$$00000000)
    __rt_exit_ls                             0x0000029d   Thumb Code     0  rtexit2.o(.ARM.Collect$$rtexit$$00000003)
    __rt_exit_prels_1                        0x0000029d   Thumb Code     0  rtexit2.o(.ARM.Collect$$rtexit$$00000002)
    __rt_exit_exit                           0x000002a1   Thumb Code     0  rtexit2.o(.ARM.Collect$$rtexit$$00000004)
    _platform_post_lib_init                  0x000002a9   Thumb Code    24  rtx_conf_cm.o(.emb_text)
    rt_set_PSP                               0x000002c5   Thumb Code     6  hal_cm4.o(.emb_text)
    rt_get_PSP                               0x000002cb   Thumb Code     6  hal_cm4.o(.emb_text)
    os_set_env                               0x000002d1   Thumb Code    24  hal_cm4.o(.emb_text)
    _alloc_box                               0x000002ed   Thumb Code    28  hal_cm4.o(.emb_text)
    _free_box                                0x0000030d   Thumb Code    28  hal_cm4.o(.emb_text)
    SVC_Handler                              0x0000032d   Thumb Code   168  hal_cm4.o(.emb_text)
    PendSV_Handler                           0x000003e5   Thumb Code    96  hal_cm4.o(.emb_text)
    SysTick_Handler                          0x00000449   Thumb Code     8  hal_cm4.o(.emb_text)
    OS_Tick_Handler                          0x00000451   Thumb Code    12  hal_cm4.o(.emb_text)
    intToString                              0x0000045d   Thumb Code   266  utils.o(.text)
    __RL_RTX_VER                             0x00000482   Number         0  rt_system.o ABSOLUTE
    floatToString                            0x00000567   Thumb Code   234  utils.o(.text)
    getSystemTime                            0x00000651   Thumb Code    42  utils.o(.text)
    task_yield                               0x0000068d   Thumb Code    46  lab5.o(.text)
    dispatcher_run                           0x000006bb   Thumb Code    14  lab5.o(.text)
    factorial                                0x000006c9   Thumb Code    60  lab5.o(.text)
    Thread_A                                 0x00000705   Thumb Code    80  lab5.o(.text)
    Thread_B                                 0x00000755   Thumb Code   130  lab5.o(.text)
    Thread_C                                 0x000007d7   Thumb Code    98  lab5.o(.text)
    Thread_D                                 0x00000839   Thumb Code   208  lab5.o(.text)
    Thread_E                                 0x00000909   Thumb Code   108  lab5.o(.text)
    Thread_F                                 0x00000975   Thumb Code   150  lab5.o(.text)
    load_threads                             0x00000a0b   Thumb Code    88  lab5.o(.text)
    updateTasks                              0x00000a63   Thumb Code   462  lab5.o(.text)
    scheduler                                0x00000c31   Thumb Code    16  lab5.o(.text)
    dispatcher                               0x00000c41   Thumb Code   252  lab5.o(.text)
    main                                     0x00000d3d   Thumb Code   406  lab5.o(.text)
    left_shift_from_index                    0x00000f61   Thumb Code    52  queue.o(.text)
    left_shift                               0x00000f95   Thumb Code    22  queue.o(.text)
    get_element                              0x00000fab   Thumb Code    58  queue.o(.text)
    get_first_element                        0x00000fe5   Thumb Code    18  queue.o(.text)
    push_element                             0x00000ff7   Thumb Code    32  queue.o(.text)
    createTask                               0x00001017   Thumb Code   186  task.o(.text)
    resetTask                                0x000010d1   Thumb Code    72  task.o(.text)
    sort                                     0x00001119   Thumb Code    58  task.o(.text)
    os_idle_demon                            0x00001155   Thumb Code     4  rtx_conf_cm.o(.text)
    os_error                                 0x00001159   Thumb Code    32  rtx_conf_cm.o(.text)
    __user_perthread_libspace                0x00001179   Thumb Code    32  rtx_conf_cm.o(.text)
    _mutex_initialize                        0x00001199   Thumb Code    34  rtx_conf_cm.o(.text)
    _mutex_acquire                           0x000011bb   Thumb Code    22  rtx_conf_cm.o(.text)
    _mutex_release                           0x000011d1   Thumb Code    18  rtx_conf_cm.o(.text)
    Reset_Handler                            0x00001201   Thumb Code     8  startup_tm4c129.o(.text)
    NMI_Handler                              0x00001209   Thumb Code     2  startup_tm4c129.o(.text)
    HardFault_Handler                        0x0000120b   Thumb Code     2  startup_tm4c129.o(.text)
    MemManage_Handler                        0x0000120d   Thumb Code     2  startup_tm4c129.o(.text)
    BusFault_Handler                         0x0000120f   Thumb Code     2  startup_tm4c129.o(.text)
    UsageFault_Handler                       0x00001211   Thumb Code     2  startup_tm4c129.o(.text)
    DebugMon_Handler                         0x00001215   Thumb Code     2  startup_tm4c129.o(.text)
    GPIOA_Handler                            0x0000121b   Thumb Code     2  startup_tm4c129.o(.text)
    GPIOB_Handler                            0x0000121d   Thumb Code     2  startup_tm4c129.o(.text)
    GPIOC_Handler                            0x0000121f   Thumb Code     2  startup_tm4c129.o(.text)
    GPIOD_Handler                            0x00001221   Thumb Code     2  startup_tm4c129.o(.text)
    GPIOE_Handler                            0x00001223   Thumb Code     2  startup_tm4c129.o(.text)
    UART0_Handler                            0x00001225   Thumb Code     2  startup_tm4c129.o(.text)
    UART1_Handler                            0x00001227   Thumb Code     2  startup_tm4c129.o(.text)
    SSI0_Handler                             0x00001229   Thumb Code     2  startup_tm4c129.o(.text)
    I2C0_Handler                             0x0000122b   Thumb Code     2  startup_tm4c129.o(.text)
    PMW0_FAULT_Handler                       0x0000122d   Thumb Code     2  startup_tm4c129.o(.text)
    PWM0_0_Handler                           0x0000122f   Thumb Code     2  startup_tm4c129.o(.text)
    PWM0_1_Handler                           0x00001231   Thumb Code     2  startup_tm4c129.o(.text)
    PWM0_2_Handler                           0x00001233   Thumb Code     2  startup_tm4c129.o(.text)
    QEI0_Handler                             0x00001235   Thumb Code     2  startup_tm4c129.o(.text)
    ADC0SS0_Handler                          0x00001237   Thumb Code     2  startup_tm4c129.o(.text)
    ADC0SS1_Handler                          0x00001239   Thumb Code     2  startup_tm4c129.o(.text)
    ADC0SS2_Handler                          0x0000123b   Thumb Code     2  startup_tm4c129.o(.text)
    ADC0SS3_Handler                          0x0000123d   Thumb Code     2  startup_tm4c129.o(.text)
    WDT0_Handler                             0x0000123f   Thumb Code     2  startup_tm4c129.o(.text)
    TIMER0A_Handler                          0x00001241   Thumb Code     2  startup_tm4c129.o(.text)
    TIMER0B_Handler                          0x00001243   Thumb Code     2  startup_tm4c129.o(.text)
    TIMER1A_Handler                          0x00001245   Thumb Code     2  startup_tm4c129.o(.text)
    TIMER1B_Handler                          0x00001247   Thumb Code     2  startup_tm4c129.o(.text)
    TIMER2A_Handler                          0x00001249   Thumb Code     2  startup_tm4c129.o(.text)
    TIMER2B_Handler                          0x0000124b   Thumb Code     2  startup_tm4c129.o(.text)
    COMP0_Handler                            0x0000124d   Thumb Code     2  startup_tm4c129.o(.text)
    COMP1_Handler                            0x0000124f   Thumb Code     2  startup_tm4c129.o(.text)
    COMP2_Handler                            0x00001251   Thumb Code     2  startup_tm4c129.o(.text)
    SYSCTL_Handler                           0x00001253   Thumb Code     2  startup_tm4c129.o(.text)
    FLASH_Handler                            0x00001255   Thumb Code     2  startup_tm4c129.o(.text)
    GPIOF_Handler                            0x00001257   Thumb Code     2  startup_tm4c129.o(.text)
    GPIOG_Handler                            0x00001259   Thumb Code     2  startup_tm4c129.o(.text)
    GPIOH_Handler                            0x0000125b   Thumb Code     2  startup_tm4c129.o(.text)
    UART2_Handler                            0x0000125d   Thumb Code     2  startup_tm4c129.o(.text)
    SSI1_Handler                             0x0000125f   Thumb Code     2  startup_tm4c129.o(.text)
    TIMER3A_Handler                          0x00001261   Thumb Code     2  startup_tm4c129.o(.text)
    TIMER3B_Handler                          0x00001263   Thumb Code     2  startup_tm4c129.o(.text)
    I2C1_Handler                             0x00001265   Thumb Code     2  startup_tm4c129.o(.text)
    CAN0_Handler                             0x00001267   Thumb Code     2  startup_tm4c129.o(.text)
    CAN1_Handler                             0x00001269   Thumb Code     2  startup_tm4c129.o(.text)
    ETH_Handler                              0x0000126b   Thumb Code     2  startup_tm4c129.o(.text)
    HIB_Handler                              0x0000126d   Thumb Code     2  startup_tm4c129.o(.text)
    USB0_Handler                             0x0000126f   Thumb Code     2  startup_tm4c129.o(.text)
    PWM0_3_Handler                           0x00001271   Thumb Code     2  startup_tm4c129.o(.text)
    UDMA_Handler                             0x00001273   Thumb Code     2  startup_tm4c129.o(.text)
    UDMAERR_Handler                          0x00001275   Thumb Code     2  startup_tm4c129.o(.text)
    ADC1SS0_Handler                          0x00001277   Thumb Code     2  startup_tm4c129.o(.text)
    ADC1SS1_Handler                          0x00001279   Thumb Code     2  startup_tm4c129.o(.text)
    ADC1SS2_Handler                          0x0000127b   Thumb Code     2  startup_tm4c129.o(.text)
    ADC1SS3_Handler                          0x0000127d   Thumb Code     2  startup_tm4c129.o(.text)
    EBI0_Handler                             0x0000127f   Thumb Code     2  startup_tm4c129.o(.text)
    GPIOJ_Handler                            0x00001281   Thumb Code     2  startup_tm4c129.o(.text)
    GPIOK_Handler                            0x00001283   Thumb Code     2  startup_tm4c129.o(.text)
    GPIOL_Handler                            0x00001285   Thumb Code     2  startup_tm4c129.o(.text)
    SSI2_Handler                             0x00001287   Thumb Code     2  startup_tm4c129.o(.text)
    SSI3_Handler                             0x00001289   Thumb Code     2  startup_tm4c129.o(.text)
    UART3_Handler                            0x0000128b   Thumb Code     2  startup_tm4c129.o(.text)
    UART4_Handler                            0x0000128d   Thumb Code     2  startup_tm4c129.o(.text)
    UART5_Handler                            0x0000128f   Thumb Code     2  startup_tm4c129.o(.text)
    UART6_Handler                            0x00001291   Thumb Code     2  startup_tm4c129.o(.text)
    UART7_Handler                            0x00001293   Thumb Code     2  startup_tm4c129.o(.text)
    I2C2_Handler                             0x00001295   Thumb Code     2  startup_tm4c129.o(.text)
    I2C3_Handler                             0x00001297   Thumb Code     2  startup_tm4c129.o(.text)
    TIMER4A_Handler                          0x00001299   Thumb Code     2  startup_tm4c129.o(.text)
    TIMER4B_Handler                          0x0000129b   Thumb Code     2  startup_tm4c129.o(.text)
    TIMER5A_Handler                          0x0000129d   Thumb Code     2  startup_tm4c129.o(.text)
    TIMER5B_Handler                          0x0000129f   Thumb Code     2  startup_tm4c129.o(.text)
    WTIMER0A_Handler                         0x000012a1   Thumb Code     2  startup_tm4c129.o(.text)
    WTIMER0B_Handler                         0x000012a3   Thumb Code     2  startup_tm4c129.o(.text)
    WTIMER1A_Handler                         0x000012a5   Thumb Code     2  startup_tm4c129.o(.text)
    WTIMER1B_Handler                         0x000012a7   Thumb Code     2  startup_tm4c129.o(.text)
    WTIMER2A_Handler                         0x000012a9   Thumb Code     2  startup_tm4c129.o(.text)
    WTIMER2B_Handler                         0x000012ab   Thumb Code     2  startup_tm4c129.o(.text)
    WTIMER3A_Handler                         0x000012ad   Thumb Code     2  startup_tm4c129.o(.text)
    WTIMER3B_Handler                         0x000012af   Thumb Code     2  startup_tm4c129.o(.text)
    WTIMER4A_Handler                         0x000012b1   Thumb Code     2  startup_tm4c129.o(.text)
    WTIMER4B_Handler                         0x000012b3   Thumb Code     2  startup_tm4c129.o(.text)
    WTIMER5A_Handler                         0x000012b5   Thumb Code     2  startup_tm4c129.o(.text)
    WTIMER5B_Handler                         0x000012b7   Thumb Code     2  startup_tm4c129.o(.text)
    FPU_Handler                              0x000012b9   Thumb Code     2  startup_tm4c129.o(.text)
    I2C4_Handler                             0x000012bb   Thumb Code     2  startup_tm4c129.o(.text)
    I2C5_Handler                             0x000012bd   Thumb Code     2  startup_tm4c129.o(.text)
    GPIOM_Handler                            0x000012bf   Thumb Code     2  startup_tm4c129.o(.text)
    GPION_Handler                            0x000012c1   Thumb Code     2  startup_tm4c129.o(.text)
    TAMPER_Handler                           0x000012c3   Thumb Code     2  startup_tm4c129.o(.text)
    GPIOP0_Handler                           0x000012c5   Thumb Code     2  startup_tm4c129.o(.text)
    GPIOP1_Handler                           0x000012c7   Thumb Code     2  startup_tm4c129.o(.text)
    GPIOP2_Handler                           0x000012c9   Thumb Code     2  startup_tm4c129.o(.text)
    GPIOP3_Handler                           0x000012cb   Thumb Code     2  startup_tm4c129.o(.text)
    GPIOP4_Handler                           0x000012cd   Thumb Code     2  startup_tm4c129.o(.text)
    GPIOP5_Handler                           0x000012cf   Thumb Code     2  startup_tm4c129.o(.text)
    GPIOP6_Handler                           0x000012d1   Thumb Code     2  startup_tm4c129.o(.text)
    GPIOP7_Handler                           0x000012d3   Thumb Code     2  startup_tm4c129.o(.text)
    GPIOQ0_Handler                           0x000012d5   Thumb Code     2  startup_tm4c129.o(.text)
    GPIOQ1_Handler                           0x000012d7   Thumb Code     2  startup_tm4c129.o(.text)
    GPIOQ2_Handler                           0x000012d9   Thumb Code     2  startup_tm4c129.o(.text)
    GPIOQ3_Handler                           0x000012db   Thumb Code     2  startup_tm4c129.o(.text)
    GPIOQ4_Handler                           0x000012dd   Thumb Code     2  startup_tm4c129.o(.text)
    GPIOQ5_Handler                           0x000012df   Thumb Code     2  startup_tm4c129.o(.text)
    GPIOQ6_Handler                           0x000012e1   Thumb Code     2  startup_tm4c129.o(.text)
    GPIOQ7_Handler                           0x000012e3   Thumb Code     2  startup_tm4c129.o(.text)
    GPIOR_Handler                            0x000012e5   Thumb Code     2  startup_tm4c129.o(.text)
    GPIOS_Handler                            0x000012e7   Thumb Code     2  startup_tm4c129.o(.text)
    SHAMD5_Handler                           0x000012e9   Thumb Code     2  startup_tm4c129.o(.text)
    AES_Handler                              0x000012eb   Thumb Code     2  startup_tm4c129.o(.text)
    DES3DES_Handler                          0x000012ed   Thumb Code     2  startup_tm4c129.o(.text)
    LCDCONTROLLER_Handler                    0x000012ef   Thumb Code     2  startup_tm4c129.o(.text)
    TIMER6A_Handler                          0x000012f1   Thumb Code     2  startup_tm4c129.o(.text)
    TIMER6B_Handler                          0x000012f3   Thumb Code     2  startup_tm4c129.o(.text)
    TIMER7A_Handler                          0x000012f5   Thumb Code     2  startup_tm4c129.o(.text)
    TIMER7B_Handler                          0x000012f7   Thumb Code     2  startup_tm4c129.o(.text)
    I2C6_Handler                             0x000012f9   Thumb Code     2  startup_tm4c129.o(.text)
    I2C7_Handler                             0x000012fb   Thumb Code     2  startup_tm4c129.o(.text)
    HIMSCANKEYBOARD_Handler                  0x000012fd   Thumb Code     2  startup_tm4c129.o(.text)
    ONEWIRE_Handler                          0x000012ff   Thumb Code     2  startup_tm4c129.o(.text)
    HIMPS2_Handler                           0x00001301   Thumb Code     2  startup_tm4c129.o(.text)
    HIMLEDSEQUENCER_Handler                  0x00001303   Thumb Code     2  startup_tm4c129.o(.text)
    HIMCONSUMERIR_Handler                    0x00001305   Thumb Code     2  startup_tm4c129.o(.text)
    I2C8_Handler                             0x00001307   Thumb Code     2  startup_tm4c129.o(.text)
    I2C9_Handler                             0x00001309   Thumb Code     2  startup_tm4c129.o(.text)
    GPIOT_Handler                            0x0000130b   Thumb Code     2  startup_tm4c129.o(.text)
    __user_initial_stackheap                 0x0000130d   Thumb Code     0  startup_tm4c129.o(.text)
    SystemCoreClockUpdate                    0x00001331   Thumb Code     8  system_tm4c129.o(.text)
    SystemInit                               0x00001339   Thumb Code    20  system_tm4c129.o(.text)
    __user_libspace                          0x00001359   Thumb Code     8  libspace.o(.text)
    __user_perproc_libspace                  0x00001359   Thumb Code     0  libspace.o(.text)
    __aeabi_uldivmod                         0x00001361   Thumb Code     0  lludivv7m.o(.text)
    _ll_udiv                                 0x00001361   Thumb Code   238  lludivv7m.o(.text)
    __aeabi_ldivmod                          0x0000144f   Thumb Code     0  llsdiv.o(.text)
    _ll_sdiv                                 0x0000144f   Thumb Code    72  llsdiv.o(.text)
    exit                                     0x00001497   Thumb Code    18  exit.o(.text)
    strcpy                                   0x000014a9   Thumb Code    72  strcpy.o(.text)
    __aeabi_memcpy4                          0x000014f1   Thumb Code     0  rt_memcpy_w.o(.text)
    __aeabi_memcpy8                          0x000014f1   Thumb Code     0  rt_memcpy_w.o(.text)
    __rt_memcpy_w                            0x000014f1   Thumb Code   100  rt_memcpy_w.o(.text)
    _memcpy_lastbytes_aligned                0x00001539   Thumb Code     0  rt_memcpy_w.o(.text)
    __use_two_region_memory                  0x00001555   Thumb Code     2  heapauxi.o(.text)
    __rt_heap_escrow$2region                 0x00001557   Thumb Code     2  heapauxi.o(.text)
    __rt_heap_expand$2region                 0x00001559   Thumb Code     2  heapauxi.o(.text)
    __read_errno                             0x0000155b   Thumb Code    10  _rserrno.o(.text)
    __set_errno                              0x00001565   Thumb Code    12  _rserrno.o(.text)
    __aeabi_errno_addr                       0x00001571   Thumb Code     4  rt_errno_addr_twolibspace.o(.text)
    __errno$twolibspace                      0x00001571   Thumb Code     0  rt_errno_addr_twolibspace.o(.text)
    __rt_errno_addr$twolibspace              0x00001571   Thumb Code     0  rt_errno_addr_twolibspace.o(.text)
    _sys_exit                                0x00001575   Thumb Code     8  sys_exit.o(.text)
    __user_setup_stackheap                   0x00001581   Thumb Code    74  sys_stackheap_outer.o(.text)
    __I$use$semihosting                      0x000015cb   Thumb Code     0  use_no_semi.o(.text)
    __use_no_semihosting_swi                 0x000015cb   Thumb Code     2  use_no_semi.o(.text)
    SVC_Count                                0x000015cc   Data           4  svc_table.o(SVC_TABLE)
    __semihosting_library_function           0x000015cd   Thumb Code     0  indicate_semi.o(.text)
    SVC_Table                                0x000015d0   Data           0  svc_table.o(SVC_TABLE)
    __ARM_fpclassify                         0x000015d1   Thumb Code    48  fpclassify.o(i.__ARM_fpclassify)
    __hardfp_floor                           0x00001601   Thumb Code   252  floor.o(i.__hardfp_floor)
    __hardfp_pow                             0x00001719   Thumb Code  3072  pow.o(i.__hardfp_pow)
    __kernel_poly                            0x00002369   Thumb Code   248  poly.o(i.__kernel_poly)
    __mathlib_dbl_divzero                    0x00002461   Thumb Code    28  dunder.o(i.__mathlib_dbl_divzero)
    __mathlib_dbl_infnan2                    0x00002491   Thumb Code    20  dunder.o(i.__mathlib_dbl_infnan2)
    __mathlib_dbl_invalid                    0x000024a9   Thumb Code    24  dunder.o(i.__mathlib_dbl_invalid)
    __mathlib_dbl_overflow                   0x000024c9   Thumb Code    24  dunder.o(i.__mathlib_dbl_overflow)
    __mathlib_dbl_underflow                  0x000024e9   Thumb Code    24  dunder.o(i.__mathlib_dbl_underflow)
    _init_box                                0x00002509   Thumb Code    70  rt_membox.o(i._init_box)
    dbg_init                                 0x00002551   Thumb Code    34  hal_cm.o(i.dbg_init)
    dbg_task_notify                          0x00002581   Thumb Code    32  hal_cm.o(i.dbg_task_notify)
    dbg_task_switch                          0x000025a1   Thumb Code    16  hal_cm.o(i.dbg_task_switch)
    fabs                                     0x000025b1   Thumb Code    24  fabs.o(i.fabs)
    isrMessageGet                            0x000025c9   Thumb Code    42  rt_cmsis.o(i.isrMessageGet)
    isrMessagePut                            0x000025f3   Thumb Code    44  rt_cmsis.o(i.isrMessagePut)
    isrSignalSet                             0x0000261f   Thumb Code    36  rt_cmsis.o(i.isrSignalSet)
    isr_evt_set                              0x00002645   Thumb Code    34  rt_event.o(i.isr_evt_set)
    isr_mbx_receive                          0x0000266d   Thumb Code    86  rt_mailbox.o(i.isr_mbx_receive)
    isr_mbx_send                             0x000026c3   Thumb Code    14  rt_mailbox.o(i.isr_mbx_send)
    osKernelInitialize                       0x000026d1   Thumb Code    30  rt_cmsis.o(i.osKernelInitialize)
    osKernelStart                            0x000026f5   Thumb Code    98  rt_cmsis.o(i.osKernelStart)
    osKernelSysTick                          0x00002761   Thumb Code    18  rt_cmsis.o(i.osKernelSysTick)
    osMessageGet                             0x00002779   Thumb Code    18  rt_cmsis.o(i.osMessageGet)
    osMutexCreate                            0x00002791   Thumb Code    36  rt_cmsis.o(i.osMutexCreate)
    osMutexRelease                           0x000027bd   Thumb Code    18  rt_cmsis.o(i.osMutexRelease)
    osMutexWait                              0x000027d5   Thumb Code    18  rt_cmsis.o(i.osMutexWait)
    osSignalSet                              0x000027ed   Thumb Code    18  rt_cmsis.o(i.osSignalSet)
    osSignalWait                             0x00002805   Thumb Code    18  rt_cmsis.o(i.osSignalWait)
    osThreadCreate                           0x0000281d   Thumb Code    36  rt_cmsis.o(i.osThreadCreate)
    osThreadExit                             0x00002849   Thumb Code    14  rt_cmsis.o(i.osThreadExit)
    osThreadGetId                            0x00002861   Thumb Code    18  rt_cmsis.o(i.osThreadGetId)
    osThreadSetPriority                      0x00002879   Thumb Code    18  rt_cmsis.o(i.osThreadSetPriority)
    osThreadYield                            0x00002891   Thumb Code    18  rt_cmsis.o(i.osThreadYield)
    osTimerCall                              0x000028a9   Thumb Code     8  rt_cmsis.o(i.osTimerCall)
    osTimerCreate                            0x000028b5   Thumb Code    36  rt_cmsis.o(i.osTimerCreate)
    osTimerStart                             0x000028e1   Thumb Code    18  rt_cmsis.o(i.osTimerStart)
    osTimerStop                              0x000028f9   Thumb Code    18  rt_cmsis.o(i.osTimerStop)
    osTimerThread                            0x00002911   Thumb Code    38  rt_cmsis.o(i.osTimerThread)
    os_tick_init                             0x0000293d   Thumb Code    32  rt_system.o(i.os_tick_init)
    os_tick_irqack                           0x00002965   Thumb Code     2  rt_system.o(i.os_tick_irqack)
    os_tick_ovf                              0x00002969   Thumb Code    10  rt_system.o(i.os_tick_ovf)
    os_tick_val                              0x00002979   Thumb Code    14  rt_system.o(i.os_tick_val)
    rt_alloc_box                             0x0000298d   Thumb Code    26  rt_membox.o(i.rt_alloc_box)
    rt_alloc_mem                             0x000029a7   Thumb Code    62  rt_memory.o(i.rt_alloc_mem)
    rt_block                                 0x000029e5   Thumb Code    48  rt_task.o(i.rt_block)
    rt_chk_robin                             0x00002a1d   Thumb Code    60  rt_robin.o(i.rt_chk_robin)
    rt_dec_dly                               0x00002a65   Thumb Code   102  rt_list.o(i.rt_dec_dly)
    rt_dispatch                              0x00002ad5   Thumb Code    60  rt_task.o(i.rt_dispatch)
    rt_evt_psh                               0x00002b19   Thumb Code    76  rt_event.o(i.rt_evt_psh)
    rt_evt_set                               0x00002b69   Thumb Code    88  rt_event.o(i.rt_evt_set)
    rt_evt_wait                              0x00002bc5   Thumb Code    56  rt_event.o(i.rt_evt_wait)
    rt_free_box                              0x00002c01   Thumb Code    44  rt_membox.o(i.rt_free_box)
    rt_free_mem                              0x00002c2d   Thumb Code    40  rt_memory.o(i.rt_free_mem)
    rt_get_first                             0x00002c55   Thumb Code    40  rt_list.o(i.rt_get_first)
    rt_get_same_rdy_prio                     0x00002c7d   Thumb Code    26  rt_list.o(i.rt_get_same_rdy_prio)
    rt_init_mem                              0x00002cf1   Thumb Code    26  rt_memory.o(i.rt_init_mem)
    rt_init_robin                            0x00002d0d   Thumb Code    14  rt_robin.o(i.rt_init_robin)
    rt_init_stack                            0x00002d25   Thumb Code   118  hal_cm.o(i.rt_init_stack)
    rt_mbx_check                             0x00002da5   Thumb Code     8  rt_mailbox.o(i.rt_mbx_check)
    rt_mbx_init                              0x00002dad   Thumb Code    26  rt_mailbox.o(i.rt_mbx_init)
    rt_mbx_psh                               0x00002dc9   Thumb Code   236  rt_mailbox.o(i.rt_mbx_psh)
    rt_mbx_wait                              0x00002eb9   Thumb Code   174  rt_mailbox.o(i.rt_mbx_wait)
    rt_mut_init                              0x00002fb1   Thumb Code    16  rt_mutex.o(i.rt_mut_init)
    rt_mut_release                           0x00002fc1   Thumb Code   208  rt_mutex.o(i.rt_mut_release)
    rt_mut_wait                              0x00003099   Thumb Code   114  rt_mutex.o(i.rt_mut_wait)
    rt_pop_req                               0x00003111   Thumb Code   112  rt_system.o(i.rt_pop_req)
    rt_psh_req                               0x0000318d   Thumb Code    22  rt_system.o(i.rt_psh_req)
    rt_psq_enq                               0x000031ad   Thumb Code    88  rt_list.o(i.rt_psq_enq)
    rt_put_dly                               0x00003209   Thumb Code    68  rt_list.o(i.rt_put_dly)
    rt_put_prio                              0x00003251   Thumb Code    54  rt_list.o(i.rt_put_prio)
    rt_put_rdy_first                         0x00003289   Thumb Code    14  rt_list.o(i.rt_put_rdy_first)
    rt_resort_prio                           0x0000329d   Thumb Code    46  rt_list.o(i.rt_resort_prio)
    rt_ret_val                               0x000032e1   Thumb Code    12  hal_cm.o(i.rt_ret_val)
    rt_ret_val2                              0x000032ed   Thumb Code    16  hal_cm.o(i.rt_ret_val2)
    rt_rmv_dly                               0x000032fd   Thumb Code    40  rt_list.o(i.rt_rmv_dly)
    rt_rmv_list                              0x00003325   Thumb Code    44  rt_list.o(i.rt_rmv_list)
    rt_sem_psh                               0x00003355   Thumb Code    48  rt_semaphore.o(i.rt_sem_psh)
    rt_stk_check                             0x00003389   Thumb Code    28  rt_system.o(i.rt_stk_check)
    rt_switch_req                            0x000033ad   Thumb Code    30  rt_task.o(i.rt_switch_req)
    rt_sys_init                              0x000033d5   Thumb Code   138  rt_task.o(i.rt_sys_init)
    rt_sys_start                             0x000034a1   Thumb Code   110  rt_task.o(i.rt_sys_start)
    rt_systick                               0x00003519   Thumb Code    50  rt_system.o(i.rt_systick)
    rt_tsk_create                            0x000035dd   Thumb Code   118  rt_task.o(i.rt_tsk_create)
    rt_tsk_delete                            0x00003665   Thumb Code   352  rt_task.o(i.rt_tsk_delete)
    rt_tsk_pass                              0x000037e1   Thumb Code    38  rt_task.o(i.rt_tsk_pass)
    rt_tsk_prio                              0x00003811   Thumb Code   108  rt_task.o(i.rt_tsk_prio)
    rt_tsk_self                              0x0000388d   Thumb Code    12  rt_task.o(i.rt_tsk_self)
    sqrt                                     0x0000389d   Thumb Code   110  sqrt.o(i.sqrt)
    svcKernelInitialize                      0x0000390d   Thumb Code    80  rt_cmsis.o(i.svcKernelInitialize)
    svcKernelStart                           0x0000397d   Thumb Code    62  rt_cmsis.o(i.svcKernelStart)
    svcKernelSysTick                         0x000039c5   Thumb Code    46  rt_cmsis.o(i.svcKernelSysTick)
    svcMessageCreate                         0x000039fd   Thumb Code    36  rt_cmsis.o(i.svcMessageCreate)
    svcMessageGet                            0x00003a21   Thumb Code    58  rt_cmsis.o(i.svcMessageGet)
    svcMutexCreate                           0x00003a5b   Thumb Code    28  rt_cmsis.o(i.svcMutexCreate)
    svcMutexRelease                          0x00003a77   Thumb Code    34  rt_cmsis.o(i.svcMutexRelease)
    svcMutexWait                             0x00003a99   Thumb Code    58  rt_cmsis.o(i.svcMutexWait)
    svcSignalSet                             0x00003ad3   Thumb Code    36  rt_cmsis.o(i.svcSignalSet)
    svcSignalWait                            0x00003af9   Thumb Code    80  rt_cmsis.o(i.svcSignalWait)
    svcThreadCreate                          0x00003b4d   Thumb Code    96  rt_cmsis.o(i.svcThreadCreate)
    svcThreadGetId                           0x00003bb9   Thumb Code    22  rt_cmsis.o(i.svcThreadGetId)
    svcThreadSetPriority                     0x00003bd5   Thumb Code    46  rt_cmsis.o(i.svcThreadSetPriority)
    svcThreadTerminate                       0x00003c05   Thumb Code    50  rt_cmsis.o(i.svcThreadTerminate)
    svcThreadYield                           0x00003c3d   Thumb Code    10  rt_cmsis.o(i.svcThreadYield)
    svcTimerCall                             0x00003c47   Thumb Code    24  rt_cmsis.o(i.svcTimerCall)
    svcTimerCreate                           0x00003c61   Thumb Code    52  rt_cmsis.o(i.svcTimerCreate)
    svcTimerStart                            0x00003c99   Thumb Code    96  rt_cmsis.o(i.svcTimerStart)
    svcTimerStop                             0x00003cfd   Thumb Code    36  rt_cmsis.o(i.svcTimerStop)
    sysTimerTick                             0x00003d21   Thumb Code    84  rt_cmsis.o(i.sysTimerTick)
    __aeabi_dneg                             0x00003d7d   Thumb Code     0  basic.o(x$fpl$basic)
    _dneg                                    0x00003d7d   Thumb Code     6  basic.o(x$fpl$basic)
    __aeabi_fneg                             0x00003d83   Thumb Code     0  basic.o(x$fpl$basic)
    _fneg                                    0x00003d83   Thumb Code     6  basic.o(x$fpl$basic)
    _dabs                                    0x00003d89   Thumb Code     6  basic.o(x$fpl$basic)
    _fabs                                    0x00003d8f   Thumb Code     6  basic.o(x$fpl$basic)
    __aeabi_dadd                             0x00003d95   Thumb Code     0  daddsub_clz.o(x$fpl$dadd)
    _dadd                                    0x00003d95   Thumb Code   332  daddsub_clz.o(x$fpl$dadd)
    __fpl_dcheck_NaN1                        0x00003ee5   Thumb Code    10  dcheck1.o(x$fpl$dcheck1)
    __fpl_dcmp_Inf                           0x00003ef5   Thumb Code    24  dcmpi.o(x$fpl$dcmpinf)
    __aeabi_ddiv                             0x00003f0d   Thumb Code     0  ddiv.o(x$fpl$ddiv)
    _ddiv                                    0x00003f0d   Thumb Code   552  ddiv.o(x$fpl$ddiv)
    __aeabi_d2iz                             0x000041bd   Thumb Code     0  dfix.o(x$fpl$dfix)
    _dfix                                    0x000041bd   Thumb Code    94  dfix.o(x$fpl$dfix)
    __aeabi_i2d                              0x0000421b   Thumb Code     0  dflt_clz.o(x$fpl$dflt)
    _dflt                                    0x0000421b   Thumb Code    46  dflt_clz.o(x$fpl$dflt)
    __aeabi_ui2d                             0x00004249   Thumb Code     0  dflt_clz.o(x$fpl$dfltu)
    _dfltu                                   0x00004249   Thumb Code    38  dflt_clz.o(x$fpl$dfltu)
    __aeabi_cdcmple                          0x00004271   Thumb Code     0  dleqf.o(x$fpl$dleqf)
    _dcmple                                  0x00004271   Thumb Code   120  dleqf.o(x$fpl$dleqf)
    __fpl_dcmple_InfNaN                      0x000042d3   Thumb Code     0  dleqf.o(x$fpl$dleqf)
    __aeabi_dmul                             0x000042e9   Thumb Code     0  dmul.o(x$fpl$dmul)
    _dmul                                    0x000042e9   Thumb Code   332  dmul.o(x$fpl$dmul)
    __fpl_dnaninf                            0x0000443d   Thumb Code   156  dnaninf.o(x$fpl$dnaninf)
    __fpl_dretinf                            0x000044d9   Thumb Code    12  dretinf.o(x$fpl$dretinf)
    __aeabi_cdrcmple                         0x000044e5   Thumb Code     0  drleqf.o(x$fpl$drleqf)
    _drcmple                                 0x000044e5   Thumb Code   108  drleqf.o(x$fpl$drleqf)
    __aeabi_drsub                            0x00004551   Thumb Code     0  daddsub_clz.o(x$fpl$drsb)
    _drsb                                    0x00004551   Thumb Code    22  daddsub_clz.o(x$fpl$drsb)
    _dsqrt                                   0x00004569   Thumb Code   404  dsqrt_umaal.o(x$fpl$dsqrt)
    __aeabi_dsub                             0x00004701   Thumb Code     0  daddsub_clz.o(x$fpl$dsub)
    _dsub                                    0x00004701   Thumb Code   464  daddsub_clz.o(x$fpl$dsub)
    __fpl_fnaninf                            0x000048d5   Thumb Code   140  fnaninf.o(x$fpl$fnaninf)
    _fp_init                                 0x00004961   Thumb Code    10  fpinit.o(x$fpl$fpinit)
    __fplib_config_fpu_vfp                   0x00004969   Thumb Code     0  fpinit.o(x$fpl$fpinit)
    __fplib_config_pureend_doubles           0x00004969   Thumb Code     0  fpinit.o(x$fpl$fpinit)
    __aeabi_f2lz                             0x0000496d   Thumb Code     0  ffixll.o(x$fpl$llsfromf)
    _ll_sfrom_f                              0x0000496d   Thumb Code   134  ffixll.o(x$fpl$llsfromf)
    __fpl_return_NaN                         0x000049f3   Thumb Code   100  retnan.o(x$fpl$retnan)
    __ARM_scalbn                             0x00004a57   Thumb Code    92  scalbn.o(x$fpl$scalbn)
    __fpl_cmpreturn                          0x00004ab3   Thumb Code    48  trapv.o(x$fpl$trapveneer)
    __I$use$fp                               0x00004ae2   Number         0  usenofp.o(x$fpl$usenofp)
    os_thread_def_Thread_A                   0x00004ae4   Data          16  lab5.o(.constdata)
    os_thread_def_Thread_B                   0x00004af4   Data          16  lab5.o(.constdata)
    os_thread_def_Thread_C                   0x00004b04   Data          16  lab5.o(.constdata)
    os_thread_def_Thread_D                   0x00004b14   Data          16  lab5.o(.constdata)
    os_thread_def_Thread_E                   0x00004b24   Data          16  lab5.o(.constdata)
    os_thread_def_Thread_F                   0x00004b34   Data          16  lab5.o(.constdata)
    os_timer_def_timer                       0x00004b44   Data           8  lab5.o(.constdata)
    os_mutex_def_mutex_running_thread        0x00004b4c   Data           4  lab5.o(.constdata)
    os_maxtaskrun                            0x00004b50   Data           2  rtx_conf_cm.o(.constdata)
    os_stackinfo                             0x00004b54   Data           4  rtx_conf_cm.o(.constdata)
    os_rrobin                                0x00004b58   Data           4  rtx_conf_cm.o(.constdata)
    os_tickfreq                              0x00004b5c   Data           4  rtx_conf_cm.o(.constdata)
    os_tickus_i                              0x00004b60   Data           2  rtx_conf_cm.o(.constdata)
    os_tickus_f                              0x00004b62   Data           2  rtx_conf_cm.o(.constdata)
    os_trv                                   0x00004b64   Data           4  rtx_conf_cm.o(.constdata)
    os_flags                                 0x00004b68   Data           1  rtx_conf_cm.o(.constdata)
    CMSIS_RTOS_API_Version                   0x00004b6c   Data           4  rtx_conf_cm.o(.constdata)
    CMSIS_RTOS_RTX_Version                   0x00004b70   Data           4  rtx_conf_cm.o(.constdata)
    os_clockrate                             0x00004b74   Data           4  rtx_conf_cm.o(.constdata)
    os_timernum                              0x00004b78   Data           4  rtx_conf_cm.o(.constdata)
    mp_tcb_size                              0x00004b7c   Data           2  rtx_conf_cm.o(.constdata)
    mp_stk_size                              0x00004b80   Data           4  rtx_conf_cm.o(.constdata)
    os_stack_sz                              0x00004b84   Data           4  rtx_conf_cm.o(.constdata)
    os_fifo_size                             0x00004b88   Data           1  rtx_conf_cm.o(.constdata)
    os_thread_def_osTimerThread              0x00004b8c   Data          16  rtx_conf_cm.o(.constdata)
    os_messageQ_def_osTimerMessageQ          0x00004b9c   Data           8  rtx_conf_cm.o(.constdata)
    mp_tmr_size                              0x00004ba4   Data           2  rtx_conf_cm.o(.constdata)
    os_thread_def_main                       0x00004ba8   Data          16  rtx_conf_cm.o(.constdata)
    __mathlib_zero                           0x00004c40   Data           8  qnan.o(.constdata)
    Region$$Table$$Base                      0x00004c70   Number         0  anon$$obj.o(Region$$Table)
    Region$$Table$$Limit                     0x00004c90   Number         0  anon$$obj.o(Region$$Table)
    current_task                             0x20000008   Data           4  lab5.o(.data)
    timer_id                                 0x2000000c   Data           4  lab5.o(.data)
    mutex_running_thread_id                  0x20000010   Data           4  lab5.o(.data)
    osThreadId_osTimerThread                 0x20000014   Data           4  rtx_conf_cm.o(.data)
    osMessageQId_osTimerMessageQ             0x20000018   Data           4  rtx_conf_cm.o(.data)
    os_tmr                                   0x2000001c   Data           4  rtx_conf_cm.o(.data)
    m_tmr                                    0x20000020   Data           4  rtx_conf_cm.o(.data)
    SystemCoreClock                          0x20000028   Data           4  system_tm4c129.o(.data)
    os_initialized                           0x2000002c   Data           1  rt_cmsis.o(.data)
    os_running                               0x2000002d   Data           1  rt_cmsis.o(.data)
    os_timer_head                            0x20000030   Data           4  rt_cmsis.o(.data)
    os_tsk                                   0x20000034   Data           8  rt_task.o(.data)
    os_tick_irqn                             0x20000040   Data           4  rt_system.o(.data)
    os_time                                  0x20000044   Data           4  rt_time.o(.data)
    os_robin                                 0x20000048   Data           8  rt_robin.o(.data)
    dbg_msg                                  0x20000050   Data           1  hal_cm.o(.data)
    sContext                                 0x20000058   Data          44  lab5.o(.bss)
    task_A                                   0x20000088   Data         112  lab5.o(.bss)
    task_B                                   0x200000f8   Data         112  lab5.o(.bss)
    task_C                                   0x20000168   Data         112  lab5.o(.bss)
    task_D                                   0x200001d8   Data         112  lab5.o(.bss)
    task_E                                   0x20000248   Data         112  lab5.o(.bss)
    task_F                                   0x200002b8   Data         112  lab5.o(.bss)
    Dispatcher                               0x20000328   Data         112  lab5.o(.bss)
    os_timer_cb_timer                        0x20000398   Data          24  lab5.o(.bss)
    os_mutex_cb_mutex_running_thread         0x200003b0   Data          16  lab5.o(.bss)
    mp_tcb                                   0x200003c0   Data         480  rtx_conf_cm.o(.bss)
    mp_stk                                   0x200005a0   Data        6416  rtx_conf_cm.o(.bss)
    os_stack_mem                             0x20001eb0   Data        1032  rtx_conf_cm.o(.bss)
    os_fifo                                  0x200022b8   Data         132  rtx_conf_cm.o(.bss)
    os_active_TCB                            0x2000233c   Data          36  rtx_conf_cm.o(.bss)
    os_messageQ_q_osTimerMessageQ            0x20002360   Data          32  rtx_conf_cm.o(.bss)
    os_idle_TCB                              0x20002760   Data          52  rt_task.o(.bss)
    os_rdy                                   0x20002794   Data          24  rt_list.o(.bss)
    os_dly                                   0x200027ac   Data          24  rt_list.o(.bss)
    __libspace_start                         0x200027c4   Data          96  libspace.o(.bss)
    __temporary_stack_top$libspace           0x20002824   Data           0  libspace.o(.bss)



==============================================================================

Memory Map of the image

  Image Entry point : 0x00000201

  Load Region LR_IROM1 (Base: 0x00000000, Size: 0x00004ce4, Max: 0x00100000, ABSOLUTE)

    Execution Region ER_IROM1 (Exec base: 0x00000000, Load base: 0x00000000, Size: 0x00004c90, Max: 0x00100000, ABSOLUTE)

    Exec Addr    Load Addr    Size         Type   Attr      Idx    E Section Name        Object

    0x00000000   0x00000000   0x00000200   Data   RO          331    RESET               startup_tm4c129.o
    0x00000200   0x00000200   0x00000008   Code   RO         2098  * !!!main             c_w.l(__main.o)
    0x00000208   0x00000208   0x00000034   Code   RO         2380    !!!scatter          c_w.l(__scatter.o)
    0x0000023c   0x0000023c   0x0000001a   Code   RO         2382    !!handler_copy      c_w.l(__scatter_copy.o)
    0x00000256   0x00000256   0x00000002   PAD
    0x00000258   0x00000258   0x0000001c   Code   RO         2384    !!handler_zi        c_w.l(__scatter_zi.o)
    0x00000274   0x00000274   0x00000002   Code   RO         2262    .ARM.Collect$$libinit$$00000000  c_w.l(libinit.o)
    0x00000276   0x00000276   0x00000004   Code   RO         2275    .ARM.Collect$$libinit$$00000001  c_w.l(libinit2.o)
    0x0000027a   0x0000027a   0x00000000   Code   RO         2278    .ARM.Collect$$libinit$$00000004  c_w.l(libinit2.o)
    0x0000027a   0x0000027a   0x00000000   Code   RO         2281    .ARM.Collect$$libinit$$0000000A  c_w.l(libinit2.o)
    0x0000027a   0x0000027a   0x00000000   Code   RO         2283    .ARM.Collect$$libinit$$0000000C  c_w.l(libinit2.o)
    0x0000027a   0x0000027a   0x00000000   Code   RO         2285    .ARM.Collect$$libinit$$0000000E  c_w.l(libinit2.o)
    0x0000027a   0x0000027a   0x00000000   Code   RO         2288    .ARM.Collect$$libinit$$00000011  c_w.l(libinit2.o)
    0x0000027a   0x0000027a   0x00000000   Code   RO         2290    .ARM.Collect$$libinit$$00000013  c_w.l(libinit2.o)
    0x0000027a   0x0000027a   0x00000000   Code   RO         2292    .ARM.Collect$$libinit$$00000015  c_w.l(libinit2.o)
    0x0000027a   0x0000027a   0x00000000   Code   RO         2294    .ARM.Collect$$libinit$$00000017  c_w.l(libinit2.o)
    0x0000027a   0x0000027a   0x00000000   Code   RO         2296    .ARM.Collect$$libinit$$00000019  c_w.l(libinit2.o)
    0x0000027a   0x0000027a   0x00000000   Code   RO         2298    .ARM.Collect$$libinit$$0000001B  c_w.l(libinit2.o)
    0x0000027a   0x0000027a   0x00000000   Code   RO         2300    .ARM.Collect$$libinit$$0000001D  c_w.l(libinit2.o)
    0x0000027a   0x0000027a   0x00000000   Code   RO         2302    .ARM.Collect$$libinit$$0000001F  c_w.l(libinit2.o)
    0x0000027a   0x0000027a   0x00000000   Code   RO         2304    .ARM.Collect$$libinit$$00000021  c_w.l(libinit2.o)
    0x0000027a   0x0000027a   0x00000000   Code   RO         2306    .ARM.Collect$$libinit$$00000023  c_w.l(libinit2.o)
    0x0000027a   0x0000027a   0x00000000   Code   RO         2308    .ARM.Collect$$libinit$$00000025  c_w.l(libinit2.o)
    0x0000027a   0x0000027a   0x00000000   Code   RO         2312    .ARM.Collect$$libinit$$0000002C  c_w.l(libinit2.o)
    0x0000027a   0x0000027a   0x00000000   Code   RO         2314    .ARM.Collect$$libinit$$0000002E  c_w.l(libinit2.o)
    0x0000027a   0x0000027a   0x00000000   Code   RO         2316    .ARM.Collect$$libinit$$00000030  c_w.l(libinit2.o)
    0x0000027a   0x0000027a   0x00000000   Code   RO         2318    .ARM.Collect$$libinit$$00000032  c_w.l(libinit2.o)
    0x0000027a   0x0000027a   0x00000002   Code   RO         2319    .ARM.Collect$$libinit$$00000033  c_w.l(libinit2.o)
    0x0000027c   0x0000027c   0x00000002   Code   RO         2263    .ARM.Collect$$libshutdown$$00000000  c_w.l(libshutdown.o)
    0x0000027e   0x0000027e   0x00000000   Code   RO         2321    .ARM.Collect$$libshutdown$$00000002  c_w.l(libshutdown2.o)
    0x0000027e   0x0000027e   0x00000000   Code   RO         2323    .ARM.Collect$$libshutdown$$00000004  c_w.l(libshutdown2.o)
    0x0000027e   0x0000027e   0x00000000   Code   RO         2326    .ARM.Collect$$libshutdown$$00000007  c_w.l(libshutdown2.o)
    0x0000027e   0x0000027e   0x00000000   Code   RO         2329    .ARM.Collect$$libshutdown$$0000000A  c_w.l(libshutdown2.o)
    0x0000027e   0x0000027e   0x00000000   Code   RO         2331    .ARM.Collect$$libshutdown$$0000000C  c_w.l(libshutdown2.o)
    0x0000027e   0x0000027e   0x00000000   Code   RO         2334    .ARM.Collect$$libshutdown$$0000000F  c_w.l(libshutdown2.o)
    0x0000027e   0x0000027e   0x00000002   Code   RO         2335    .ARM.Collect$$libshutdown$$00000010  c_w.l(libshutdown2.o)
    0x00000280   0x00000280   0x00000000   Code   RO         2150    .ARM.Collect$$rtentry$$00000000  c_w.l(__rtentry.o)
    0x00000280   0x00000280   0x00000000   Code   RO         2214    .ARM.Collect$$rtentry$$00000002  c_w.l(__rtentry2.o)
    0x00000280   0x00000280   0x00000006   Code   RO         2226    .ARM.Collect$$rtentry$$00000004  c_w.l(__rtentry4.o)
    0x00000286   0x00000286   0x00000000   Code   RO         2216    .ARM.Collect$$rtentry$$00000009  c_w.l(__rtentry2.o)
    0x00000286   0x00000286   0x00000004   Code   RO         2217    .ARM.Collect$$rtentry$$0000000A  c_w.l(__rtentry2.o)
    0x0000028a   0x0000028a   0x00000008   Code   RO         2218    .ARM.Collect$$rtentry$$0000000B  c_w.l(__rtentry2.o)
    0x00000292   0x00000292   0x00000008   Code   RO         2220    .ARM.Collect$$rtentry$$0000000D  c_w.l(__rtentry2.o)
    0x0000029a   0x0000029a   0x00000002   Code   RO         2151    .ARM.Collect$$rtexit$$00000000  c_w.l(rtexit.o)
    0x0000029c   0x0000029c   0x00000000   Code   RO         2229    .ARM.Collect$$rtexit$$00000002  c_w.l(rtexit2.o)
    0x0000029c   0x0000029c   0x00000004   Code   RO         2230    .ARM.Collect$$rtexit$$00000003  c_w.l(rtexit2.o)
    0x000002a0   0x000002a0   0x00000006   Code   RO         2231    .ARM.Collect$$rtexit$$00000004  c_w.l(rtexit2.o)
    0x000002a6   0x000002a6   0x00000002   PAD
    0x000002a8   0x000002a8   0x0000001c   Code   RO          301    .emb_text           rtx_conf_cm.o
    0x000002c4   0x000002c4   0x00000198   Code   RO         2064    .emb_text           RTX_CM4.lib(hal_cm4.o)
    0x0000045c   0x0000045c   0x00000230   Code   RO          127    .text               utils.o
    0x0000068c   0x0000068c   0x000008d4   Code   RO          144    .text               lab5.o
    0x00000f60   0x00000f60   0x000000b6   Code   RO          180    .text               queue.o
    0x00001016   0x00001016   0x0000013c   Code   RO          195    .text               task.o
    0x00001152   0x00001152   0x00000002   PAD
    0x00001154   0x00001154   0x000000ac   Code   RO          302    .text               rtx_conf_cm.o
    0x00001200   0x00001200   0x00000130   Code   RO          332    .text               startup_tm4c129.o
    0x00001330   0x00001330   0x00000028   Code   RO          339    .text               system_tm4c129.o
    0x00001358   0x00001358   0x00000008   Code   RO         2079    .text               c_w.l(libspace.o)
    0x00001360   0x00001360   0x000000ee   Code   RO         2082    .text               c_w.l(lludivv7m.o)
    0x0000144e   0x0000144e   0x00000048   Code   RO         2084    .text               c_w.l(llsdiv.o)
    0x00001496   0x00001496   0x00000012   Code   RO         2086    .text               c_w.l(exit.o)
    0x000014a8   0x000014a8   0x00000048   Code   RO         2088    .text               c_w.l(strcpy.o)
    0x000014f0   0x000014f0   0x00000064   Code   RO         2094    .text               c_w.l(rt_memcpy_w.o)
    0x00001554   0x00001554   0x00000006   Code   RO         2096    .text               c_w.l(heapauxi.o)
    0x0000155a   0x0000155a   0x00000016   Code   RO         2157    .text               c_w.l(_rserrno.o)
    0x00001570   0x00001570   0x00000004   Code   RO         2242    .text               c_w.l(rt_errno_addr_twolibspace.o)
    0x00001574   0x00001574   0x0000000c   Code   RO         2248    .text               c_w.l(sys_exit.o)
    0x00001580   0x00001580   0x0000004a   Code   RO         2250    .text               c_w.l(sys_stackheap_outer.o)
    0x000015ca   0x000015ca   0x00000002   Code   RO         2266    .text               c_w.l(use_no_semi.o)
    0x000015cc   0x000015cc   0x00000000   Code   RO         2268    .text               c_w.l(indicate_semi.o)
    0x000015cc   0x000015cc   0x00000004   Code   RO         2074    SVC_TABLE           RTX_CM4.lib(svc_table.o)
    0x000015d0   0x000015d0   0x00000030   Code   RO         2196    i.__ARM_fpclassify  m_wm.l(fpclassify.o)
    0x00001600   0x00001600   0x00000118   Code   RO         2130    i.__hardfp_floor    m_wm.l(floor.o)
    0x00001718   0x00001718   0x00000c50   Code   RO         2136    i.__hardfp_pow      m_wm.l(pow.o)
    0x00002368   0x00002368   0x000000f8   Code   RO         2198    i.__kernel_poly     m_wm.l(poly.o)
    0x00002460   0x00002460   0x00000030   Code   RO         2176    i.__mathlib_dbl_divzero  m_wm.l(dunder.o)
    0x00002490   0x00002490   0x00000014   Code   RO         2178    i.__mathlib_dbl_infnan2  m_wm.l(dunder.o)
    0x000024a4   0x000024a4   0x00000004   PAD
    0x000024a8   0x000024a8   0x00000020   Code   RO         2179    i.__mathlib_dbl_invalid  m_wm.l(dunder.o)
    0x000024c8   0x000024c8   0x00000020   Code   RO         2180    i.__mathlib_dbl_overflow  m_wm.l(dunder.o)
    0x000024e8   0x000024e8   0x00000020   Code   RO         2182    i.__mathlib_dbl_underflow  m_wm.l(dunder.o)
    0x00002508   0x00002508   0x00000046   Code   RO         1958    i._init_box         RTX_CM4.lib(rt_membox.o)
    0x0000254e   0x0000254e   0x00000002   PAD
    0x00002550   0x00002550   0x00000030   Code   RO         2011    i.dbg_init          RTX_CM4.lib(hal_cm.o)
    0x00002580   0x00002580   0x00000020   Code   RO         2012    i.dbg_task_notify   RTX_CM4.lib(hal_cm.o)
    0x000025a0   0x000025a0   0x00000010   Code   RO         2013    i.dbg_task_switch   RTX_CM4.lib(hal_cm.o)
    0x000025b0   0x000025b0   0x00000018   Code   RO         2192    i.fabs              m_wm.l(fabs.o)
    0x000025c8   0x000025c8   0x0000002a   Code   RO          747    i.isrMessageGet     RTX_CM4.lib(rt_cmsis.o)
    0x000025f2   0x000025f2   0x0000002c   Code   RO          748    i.isrMessagePut     RTX_CM4.lib(rt_cmsis.o)
    0x0000261e   0x0000261e   0x00000024   Code   RO          750    i.isrSignalSet      RTX_CM4.lib(rt_cmsis.o)
    0x00002642   0x00002642   0x00000002   PAD
    0x00002644   0x00002644   0x00000028   Code   RO         1695    i.isr_evt_set       RTX_CM4.lib(rt_event.o)
    0x0000266c   0x0000266c   0x00000056   Code   RO         1813    i.isr_mbx_receive   RTX_CM4.lib(rt_mailbox.o)
    0x000026c2   0x000026c2   0x0000000e   Code   RO         1814    i.isr_mbx_send      RTX_CM4.lib(rt_mailbox.o)
    0x000026d0   0x000026d0   0x00000024   Code   RO          752    i.osKernelInitialize  RTX_CM4.lib(rt_cmsis.o)
    0x000026f4   0x000026f4   0x0000006c   Code   RO          754    i.osKernelStart     RTX_CM4.lib(rt_cmsis.o)
    0x00002760   0x00002760   0x00000018   Code   RO          755    i.osKernelSysTick   RTX_CM4.lib(rt_cmsis.o)
    0x00002778   0x00002778   0x00000018   Code   RO          763    i.osMessageGet      RTX_CM4.lib(rt_cmsis.o)
    0x00002790   0x00002790   0x0000002c   Code   RO          765    i.osMutexCreate     RTX_CM4.lib(rt_cmsis.o)
    0x000027bc   0x000027bc   0x00000018   Code   RO          767    i.osMutexRelease    RTX_CM4.lib(rt_cmsis.o)
    0x000027d4   0x000027d4   0x00000018   Code   RO          768    i.osMutexWait       RTX_CM4.lib(rt_cmsis.o)
    0x000027ec   0x000027ec   0x00000018   Code   RO          778    i.osSignalSet       RTX_CM4.lib(rt_cmsis.o)
    0x00002804   0x00002804   0x00000018   Code   RO          779    i.osSignalWait      RTX_CM4.lib(rt_cmsis.o)
    0x0000281c   0x0000281c   0x0000002c   Code   RO          780    i.osThreadCreate    RTX_CM4.lib(rt_cmsis.o)
    0x00002848   0x00002848   0x00000018   Code   RO          781    i.osThreadExit      RTX_CM4.lib(rt_cmsis.o)
    0x00002860   0x00002860   0x00000018   Code   RO          782    i.osThreadGetId     RTX_CM4.lib(rt_cmsis.o)
    0x00002878   0x00002878   0x00000018   Code   RO          784    i.osThreadSetPriority  RTX_CM4.lib(rt_cmsis.o)
    0x00002890   0x00002890   0x00000018   Code   RO          786    i.osThreadYield     RTX_CM4.lib(rt_cmsis.o)
    0x000028a8   0x000028a8   0x0000000c   Code   RO          787    i.osTimerCall       RTX_CM4.lib(rt_cmsis.o)
    0x000028b4   0x000028b4   0x0000002c   Code   RO          788    i.osTimerCreate     RTX_CM4.lib(rt_cmsis.o)
    0x000028e0   0x000028e0   0x00000018   Code   RO          790    i.osTimerStart      RTX_CM4.lib(rt_cmsis.o)
    0x000028f8   0x000028f8   0x00000018   Code   RO          791    i.osTimerStop       RTX_CM4.lib(rt_cmsis.o)
    0x00002910   0x00002910   0x0000002c   Code   RO          792    i.osTimerThread     RTX_CM4.lib(rt_cmsis.o)
    0x0000293c   0x0000293c   0x00000028   Code   RO         1605    i.os_tick_init      RTX_CM4.lib(rt_system.o)
    0x00002964   0x00002964   0x00000002   Code   RO         1606    i.os_tick_irqack    RTX_CM4.lib(rt_system.o)
    0x00002966   0x00002966   0x00000002   PAD
    0x00002968   0x00002968   0x00000010   Code   RO         1607    i.os_tick_ovf       RTX_CM4.lib(rt_system.o)
    0x00002978   0x00002978   0x00000014   Code   RO         1608    i.os_tick_val       RTX_CM4.lib(rt_system.o)
    0x0000298c   0x0000298c   0x0000001a   Code   RO         1959    i.rt_alloc_box      RTX_CM4.lib(rt_membox.o)
    0x000029a6   0x000029a6   0x0000003e   Code   RO         1987    i.rt_alloc_mem      RTX_CM4.lib(rt_memory.o)
    0x000029e4   0x000029e4   0x00000038   Code   RO         1366    i.rt_block          RTX_CM4.lib(rt_task.o)
    0x00002a1c   0x00002a1c   0x00000048   Code   RO         1936    i.rt_chk_robin      RTX_CM4.lib(rt_robin.o)
    0x00002a64   0x00002a64   0x00000070   Code   RO         1737    i.rt_dec_dly        RTX_CM4.lib(rt_list.o)
    0x00002ad4   0x00002ad4   0x00000044   Code   RO         1367    i.rt_dispatch       RTX_CM4.lib(rt_task.o)
    0x00002b18   0x00002b18   0x00000050   Code   RO         1698    i.rt_evt_psh        RTX_CM4.lib(rt_event.o)
    0x00002b68   0x00002b68   0x0000005c   Code   RO         1699    i.rt_evt_set        RTX_CM4.lib(rt_event.o)
    0x00002bc4   0x00002bc4   0x0000003c   Code   RO         1700    i.rt_evt_wait       RTX_CM4.lib(rt_event.o)
    0x00002c00   0x00002c00   0x0000002c   Code   RO         1960    i.rt_free_box       RTX_CM4.lib(rt_membox.o)
    0x00002c2c   0x00002c2c   0x00000028   Code   RO         1988    i.rt_free_mem       RTX_CM4.lib(rt_memory.o)
    0x00002c54   0x00002c54   0x00000028   Code   RO         1738    i.rt_get_first      RTX_CM4.lib(rt_list.o)
    0x00002c7c   0x00002c7c   0x00000024   Code   RO         1739    i.rt_get_same_rdy_prio  RTX_CM4.lib(rt_list.o)
    0x00002ca0   0x00002ca0   0x00000008   Code   RO          797    i.rt_id2obj         RTX_CM4.lib(rt_cmsis.o)
    0x00002ca8   0x00002ca8   0x00000048   Code   RO         1368    i.rt_init_context   RTX_CM4.lib(rt_task.o)
    0x00002cf0   0x00002cf0   0x0000001a   Code   RO         1989    i.rt_init_mem       RTX_CM4.lib(rt_memory.o)
    0x00002d0a   0x00002d0a   0x00000002   PAD
    0x00002d0c   0x00002d0c   0x00000018   Code   RO         1937    i.rt_init_robin     RTX_CM4.lib(rt_robin.o)
    0x00002d24   0x00002d24   0x00000080   Code   RO         2014    i.rt_init_stack     RTX_CM4.lib(hal_cm.o)
    0x00002da4   0x00002da4   0x00000008   Code   RO         1815    i.rt_mbx_check      RTX_CM4.lib(rt_mailbox.o)
    0x00002dac   0x00002dac   0x0000001a   Code   RO         1816    i.rt_mbx_init       RTX_CM4.lib(rt_mailbox.o)
    0x00002dc6   0x00002dc6   0x00000002   PAD
    0x00002dc8   0x00002dc8   0x000000f0   Code   RO         1817    i.rt_mbx_psh        RTX_CM4.lib(rt_mailbox.o)
    0x00002eb8   0x00002eb8   0x000000b4   Code   RO         1819    i.rt_mbx_wait       RTX_CM4.lib(rt_mailbox.o)
    0x00002f6c   0x00002f6c   0x00000044   Code   RO          798    i.rt_ms2tick        RTX_CM4.lib(rt_cmsis.o)
    0x00002fb0   0x00002fb0   0x00000010   Code   RO         1451    i.rt_mut_init       RTX_CM4.lib(rt_mutex.o)
    0x00002fc0   0x00002fc0   0x000000d8   Code   RO         1452    i.rt_mut_release    RTX_CM4.lib(rt_mutex.o)
    0x00003098   0x00003098   0x00000078   Code   RO         1453    i.rt_mut_wait       RTX_CM4.lib(rt_mutex.o)
    0x00003110   0x00003110   0x0000007c   Code   RO         1609    i.rt_pop_req        RTX_CM4.lib(rt_system.o)
    0x0000318c   0x0000318c   0x00000020   Code   RO         1610    i.rt_psh_req        RTX_CM4.lib(rt_system.o)
    0x000031ac   0x000031ac   0x0000005c   Code   RO         1740    i.rt_psq_enq        RTX_CM4.lib(rt_list.o)
    0x00003208   0x00003208   0x00000048   Code   RO         1741    i.rt_put_dly        RTX_CM4.lib(rt_list.o)
    0x00003250   0x00003250   0x00000036   Code   RO         1742    i.rt_put_prio       RTX_CM4.lib(rt_list.o)
    0x00003286   0x00003286   0x00000002   PAD
    0x00003288   0x00003288   0x00000014   Code   RO         1743    i.rt_put_rdy_first  RTX_CM4.lib(rt_list.o)
    0x0000329c   0x0000329c   0x00000034   Code   RO         1744    i.rt_resort_prio    RTX_CM4.lib(rt_list.o)
    0x000032d0   0x000032d0   0x00000010   Code   RO         2015    i.rt_ret_regs       RTX_CM4.lib(hal_cm.o)
    0x000032e0   0x000032e0   0x0000000c   Code   RO         2016    i.rt_ret_val        RTX_CM4.lib(hal_cm.o)
    0x000032ec   0x000032ec   0x00000010   Code   RO         2017    i.rt_ret_val2       RTX_CM4.lib(hal_cm.o)
    0x000032fc   0x000032fc   0x00000028   Code   RO         1745    i.rt_rmv_dly        RTX_CM4.lib(rt_list.o)
    0x00003324   0x00003324   0x00000030   Code   RO         1746    i.rt_rmv_list       RTX_CM4.lib(rt_list.o)
    0x00003354   0x00003354   0x00000034   Code   RO         1864    i.rt_sem_psh        RTX_CM4.lib(rt_semaphore.o)
    0x00003388   0x00003388   0x00000024   Code   RO         1612    i.rt_stk_check      RTX_CM4.lib(rt_system.o)
    0x000033ac   0x000033ac   0x00000028   Code   RO         1369    i.rt_switch_req     RTX_CM4.lib(rt_task.o)
    0x000033d4   0x000033d4   0x000000cc   Code   RO         1370    i.rt_sys_init       RTX_CM4.lib(rt_task.o)
    0x000034a0   0x000034a0   0x00000078   Code   RO         1371    i.rt_sys_start      RTX_CM4.lib(rt_task.o)
    0x00003518   0x00003518   0x00000040   Code   RO         1614    i.rt_systick        RTX_CM4.lib(rt_system.o)
    0x00003558   0x00003558   0x00000012   Code   RO          799    i.rt_tid2ptcb       RTX_CM4.lib(rt_cmsis.o)
    0x0000356a   0x0000356a   0x00000002   PAD
    0x0000356c   0x0000356c   0x00000034   Code   RO          800    i.rt_timer_insert   RTX_CM4.lib(rt_cmsis.o)
    0x000035a0   0x000035a0   0x0000003c   Code   RO          801    i.rt_timer_remove   RTX_CM4.lib(rt_cmsis.o)
    0x000035dc   0x000035dc   0x00000088   Code   RO         1372    i.rt_tsk_create     RTX_CM4.lib(rt_task.o)
    0x00003664   0x00003664   0x0000017c   Code   RO         1373    i.rt_tsk_delete     RTX_CM4.lib(rt_task.o)
    0x000037e0   0x000037e0   0x00000030   Code   RO         1374    i.rt_tsk_pass       RTX_CM4.lib(rt_task.o)
    0x00003810   0x00003810   0x0000007c   Code   RO         1375    i.rt_tsk_prio       RTX_CM4.lib(rt_task.o)
    0x0000388c   0x0000388c   0x00000010   Code   RO         1376    i.rt_tsk_self       RTX_CM4.lib(rt_task.o)
    0x0000389c   0x0000389c   0x0000006e   Code   RO         2203    i.sqrt              m_wm.l(sqrt.o)
    0x0000390a   0x0000390a   0x00000002   PAD
    0x0000390c   0x0000390c   0x00000070   Code   RO          803    i.svcKernelInitialize  RTX_CM4.lib(rt_cmsis.o)
    0x0000397c   0x0000397c   0x00000048   Code   RO          805    i.svcKernelStart    RTX_CM4.lib(rt_cmsis.o)
    0x000039c4   0x000039c4   0x00000038   Code   RO          806    i.svcKernelSysTick  RTX_CM4.lib(rt_cmsis.o)
    0x000039fc   0x000039fc   0x00000024   Code   RO          808    i.svcMessageCreate  RTX_CM4.lib(rt_cmsis.o)
    0x00003a20   0x00003a20   0x0000003a   Code   RO          809    i.svcMessageGet     RTX_CM4.lib(rt_cmsis.o)
    0x00003a5a   0x00003a5a   0x0000001c   Code   RO          811    i.svcMutexCreate    RTX_CM4.lib(rt_cmsis.o)
    0x00003a76   0x00003a76   0x00000022   Code   RO          813    i.svcMutexRelease   RTX_CM4.lib(rt_cmsis.o)
    0x00003a98   0x00003a98   0x0000003a   Code   RO          814    i.svcMutexWait      RTX_CM4.lib(rt_cmsis.o)
    0x00003ad2   0x00003ad2   0x00000024   Code   RO          821    i.svcSignalSet      RTX_CM4.lib(rt_cmsis.o)
    0x00003af6   0x00003af6   0x00000002   PAD
    0x00003af8   0x00003af8   0x00000054   Code   RO          822    i.svcSignalWait     RTX_CM4.lib(rt_cmsis.o)
    0x00003b4c   0x00003b4c   0x0000006c   Code   RO          823    i.svcThreadCreate   RTX_CM4.lib(rt_cmsis.o)
    0x00003bb8   0x00003bb8   0x0000001c   Code   RO          824    i.svcThreadGetId    RTX_CM4.lib(rt_cmsis.o)
    0x00003bd4   0x00003bd4   0x0000002e   Code   RO          826    i.svcThreadSetPriority  RTX_CM4.lib(rt_cmsis.o)
    0x00003c02   0x00003c02   0x00000002   PAD
    0x00003c04   0x00003c04   0x00000038   Code   RO          827    i.svcThreadTerminate  RTX_CM4.lib(rt_cmsis.o)
    0x00003c3c   0x00003c3c   0x0000000a   Code   RO          828    i.svcThreadYield    RTX_CM4.lib(rt_cmsis.o)
    0x00003c46   0x00003c46   0x00000018   Code   RO          829    i.svcTimerCall      RTX_CM4.lib(rt_cmsis.o)
    0x00003c5e   0x00003c5e   0x00000002   PAD
    0x00003c60   0x00003c60   0x00000038   Code   RO          830    i.svcTimerCreate    RTX_CM4.lib(rt_cmsis.o)
    0x00003c98   0x00003c98   0x00000064   Code   RO          832    i.svcTimerStart     RTX_CM4.lib(rt_cmsis.o)
    0x00003cfc   0x00003cfc   0x00000024   Code   RO          833    i.svcTimerStop      RTX_CM4.lib(rt_cmsis.o)
    0x00003d20   0x00003d20   0x0000005c   Code   RO          838    i.sysTimerTick      RTX_CM4.lib(rt_cmsis.o)
    0x00003d7c   0x00003d7c   0x00000018   Code   RO         2159    x$fpl$basic         fz_wm.l(basic.o)
    0x00003d94   0x00003d94   0x00000150   Code   RO         2102    x$fpl$dadd          fz_wm.l(daddsub_clz.o)
    0x00003ee4   0x00003ee4   0x00000010   Code   RO         2244    x$fpl$dcheck1       fz_wm.l(dcheck1.o)
    0x00003ef4   0x00003ef4   0x00000018   Code   RO         2161    x$fpl$dcmpinf       fz_wm.l(dcmpi.o)
    0x00003f0c   0x00003f0c   0x000002b0   Code   RO         2109    x$fpl$ddiv          fz_wm.l(ddiv.o)
    0x000041bc   0x000041bc   0x0000005e   Code   RO         2112    x$fpl$dfix          fz_wm.l(dfix.o)
    0x0000421a   0x0000421a   0x0000002e   Code   RO         2117    x$fpl$dflt          fz_wm.l(dflt_clz.o)
    0x00004248   0x00004248   0x00000026   Code   RO         2116    x$fpl$dfltu         fz_wm.l(dflt_clz.o)
    0x0000426e   0x0000426e   0x00000002   PAD
    0x00004270   0x00004270   0x00000078   Code   RO         2122    x$fpl$dleqf         fz_wm.l(dleqf.o)
    0x000042e8   0x000042e8   0x00000154   Code   RO         2124    x$fpl$dmul          fz_wm.l(dmul.o)
    0x0000443c   0x0000443c   0x0000009c   Code   RO         2163    x$fpl$dnaninf       fz_wm.l(dnaninf.o)
    0x000044d8   0x000044d8   0x0000000c   Code   RO         2165    x$fpl$dretinf       fz_wm.l(dretinf.o)
    0x000044e4   0x000044e4   0x0000006c   Code   RO         2167    x$fpl$drleqf        fz_wm.l(drleqf.o)
    0x00004550   0x00004550   0x00000016   Code   RO         2103    x$fpl$drsb          fz_wm.l(daddsub_clz.o)
    0x00004566   0x00004566   0x00000002   PAD
    0x00004568   0x00004568   0x00000198   Code   RO         2246    x$fpl$dsqrt         fz_wm.l(dsqrt_umaal.o)
    0x00004700   0x00004700   0x000001d4   Code   RO         2104    x$fpl$dsub          fz_wm.l(daddsub_clz.o)
    0x000048d4   0x000048d4   0x0000008c   Code   RO         2169    x$fpl$fnaninf       fz_wm.l(fnaninf.o)
    0x00004960   0x00004960   0x0000000a   Code   RO         2344    x$fpl$fpinit        fz_wm.l(fpinit.o)
    0x0000496a   0x0000496a   0x00000002   PAD
    0x0000496c   0x0000496c   0x00000086   Code   RO         2126    x$fpl$llsfromf      fz_wm.l(ffixll.o)
    0x000049f2   0x000049f2   0x00000064   Code   RO         2264    x$fpl$retnan        fz_wm.l(retnan.o)
    0x00004a56   0x00004a56   0x0000005c   Code   RO         2173    x$fpl$scalbn        fz_wm.l(scalbn.o)
    0x00004ab2   0x00004ab2   0x00000030   Code   RO         2336    x$fpl$trapveneer    fz_wm.l(trapv.o)
    0x00004ae2   0x00004ae2   0x00000000   Code   RO         2175    x$fpl$usenofp       fz_wm.l(usenofp.o)
    0x00004ae2   0x00004ae2   0x00000002   PAD
    0x00004ae4   0x00004ae4   0x0000006c   Data   RO          146    .constdata          lab5.o
    0x00004b50   0x00004b50   0x00000068   Data   RO          304    .constdata          rtx_conf_cm.o
    0x00004bb8   0x00004bb8   0x00000088   Data   RO         2139    .constdata          m_wm.l(pow.o)
    0x00004c40   0x00004c40   0x00000008   Data   RO         2200    .constdata          m_wm.l(qnan.o)
    0x00004c48   0x00004c48   0x00000025   Data   RO          128    .conststring        utils.o
    0x00004c6d   0x00004c6d   0x00000003   PAD
    0x00004c70   0x00004c70   0x00000020   Data   RO         2378    Region$$Table       anon$$obj.o


    Execution Region RW_IRAM1 (Exec base: 0x20000000, Load base: 0x00004c90, Size: 0x0000ba28, Max: 0x00040000, ABSOLUTE)

    Exec Addr    Load Addr    Size         Type   Attr      Idx    E Section Name        Object

    0x20000000   0x00004c90   0x00000008   Data   RW          129    .data               utils.o
    0x20000008   0x00004c98   0x0000000c   Data   RW          147    .data               lab5.o
    0x20000014   0x00004ca4   0x00000014   Data   RW          305    .data               rtx_conf_cm.o
    0x20000028   0x00004cb8   0x00000004   Data   RW          340    .data               system_tm4c129.o
    0x2000002c   0x00004cbc   0x00000008   Data   RW          841    .data               RTX_CM4.lib(rt_cmsis.o)
    0x20000034   0x00004cc4   0x00000008   Data   RW         1378    .data               RTX_CM4.lib(rt_task.o)
    0x2000003c   0x00004ccc   0x00000008   Data   RW         1617    .data               RTX_CM4.lib(rt_system.o)
    0x20000044   0x00004cd4   0x00000004   Data   RW         1907    .data               RTX_CM4.lib(rt_time.o)
    0x20000048   0x00004cd8   0x00000008   Data   RW         1938    .data               RTX_CM4.lib(rt_robin.o)
    0x20000050   0x00004ce0   0x00000001   Data   RW         2018    .data               RTX_CM4.lib(hal_cm.o)
    0x20000051   0x00004ce1   0x00000007   PAD
    0x20000058        -       0x00000368   Zero   RW          145    .bss                lab5.o
    0x200003c0        -       0x000023a0   Zero   RW          303    .bss                rtx_conf_cm.o
    0x20002760        -       0x00000034   Zero   RW         1377    .bss                RTX_CM4.lib(rt_task.o)
    0x20002794        -       0x00000030   Zero   RW         1747    .bss                RTX_CM4.lib(rt_list.o)
    0x200027c4        -       0x00000060   Zero   RW         2080    .bss                c_w.l(libspace.o)
    0x20002824   0x00004ce1   0x00000004   PAD
    0x20002828        -       0x00009000   Zero   RW          330    HEAP                startup_tm4c129.o
    0x2000b828        -       0x00000200   Zero   RW          329    STACK               startup_tm4c129.o


==============================================================================

Image component sizes


      Code (inc. data)   RO Data    RW Data    ZI Data      Debug   Object Name

      2260        224        108         12        872       6391   lab5.o
       182          0          0          0          0       1874   queue.o
       200         36        104         20       9120       8961   rtx_conf_cm.o
       304         26        512          0      37376       6020   startup_tm4c129.o
        40         12          0          4          0        861   system_tm4c129.o
       316          0          0          0          0       1888   task.o
         0          0          0          0          0        720   terminal.o
         0          0          0          0          0      33650   uart_functions.o
       560         18         37          8          0       1862   utils.o

    ----------------------------------------------------------------------
      3864        316        796         44      47368      62227   Object Totals
         0          0         32          0          0          0   (incl. Generated)
         2          0          3          0          0          0   (incl. Padding)

    ----------------------------------------------------------------------

      Code (inc. data)   RO Data    RW Data    ZI Data      Debug   Library Member Name

       268         24          0          1          0       4524   hal_cm.o
       408         34          0          0          0        824   hal_cm4.o
      2078        240          0          8          0      51725   rt_cmsis.o
       272         18          0          0          0       2842   rt_event.o
       566         44          0          0         48       9272   rt_list.o
       554         10          0          0          0       4237   rt_mailbox.o
       140          0          0          0          0       2069   rt_membox.o
       128          0          0          0          0       2451   rt_memory.o
       352         14          0          0          0       2249   rt_mutex.o
        96         22          0          8          0       1254   rt_robin.o
        52          4          0          0          0        621   rt_semaphore.o
       334         64          0          8          0       7475   rt_system.o
      1264        184          0          8         52      10675   rt_task.o
         0          0          0          4          0        214   rt_time.o
         4          4          0          0          0        208   svc_table.o
         8          0          0          0          0         68   __main.o
         0          0          0          0          0          0   __rtentry.o
        20          0          0          0          0          0   __rtentry2.o
         6          0          0          0          0          0   __rtentry4.o
        52          8          0          0          0          0   __scatter.o
        26          0          0          0          0          0   __scatter_copy.o
        28          0          0          0          0          0   __scatter_zi.o
        22          0          0          0          0        100   _rserrno.o
        18          0          0          0          0         80   exit.o
         6          0          0          0          0        152   heapauxi.o
         0          0          0          0          0          0   indicate_semi.o
         2          0          0          0          0          0   libinit.o
         6          0          0          0          0          0   libinit2.o
         2          0          0          0          0          0   libshutdown.o
         2          0          0          0          0          0   libshutdown2.o
         8          4          0          0         96         68   libspace.o
        72          0          0          0          0         76   llsdiv.o
       238          0          0          0          0        100   lludivv7m.o
         4          0          0          0          0         68   rt_errno_addr_twolibspace.o
       100          0          0          0          0         80   rt_memcpy_w.o
         2          0          0          0          0          0   rtexit.o
        10          0          0          0          0          0   rtexit2.o
        72          0          0          0          0         80   strcpy.o
        12          4          0          0          0         68   sys_exit.o
        74          0          0          0          0         80   sys_stackheap_outer.o
         2          0          0          0          0         68   use_no_semi.o
        24          0          0          0          0        164   basic.o
       826         16          0          0          0        492   daddsub_clz.o
        16          4          0          0          0        116   dcheck1.o
        24          0          0          0          0        116   dcmpi.o
       688        140          0          0          0        256   ddiv.o
        94          4          0          0          0        140   dfix.o
        84          0          0          0          0        232   dflt_clz.o
       120          4          0          0          0        140   dleqf.o
       340         12          0          0          0        152   dmul.o
       156          4          0          0          0        140   dnaninf.o
        12          0          0          0          0        116   dretinf.o
       108          0          0          0          0        128   drleqf.o
       408         56          0          0          0        168   dsqrt_umaal.o
       134          4          0          0          0        132   ffixll.o
       140          4          0          0          0        132   fnaninf.o
        10          0          0          0          0        116   fpinit.o
       100          0          0          0          0        116   retnan.o
        92          0          0          0          0        116   scalbn.o
        48          0          0          0          0        116   trapv.o
         0          0          0          0          0          0   usenofp.o
       164         44          0          0          0        620   dunder.o
        24          0          0          0          0        124   fabs.o
       280         28          0          0          0        156   floor.o
        48          0          0          0          0        124   fpclassify.o
       248          0          0          0          0        152   poly.o
      3152        296        136          0          0        352   pow.o
         0          0          8          0          0          0   qnan.o
       110          0          0          0          0        148   sqrt.o

    ----------------------------------------------------------------------
     14796       1294        144         40        204     106492   Library Totals
        38          0          0          3          8          0   (incl. Padding)

    ----------------------------------------------------------------------

      Code (inc. data)   RO Data    RW Data    ZI Data      Debug   Library Name

      6516        662          0         37        100     100640   RTX_CM4.lib
       792         16          0          0         96       1088   c_w.l
      3424        248          0          0          0       3088   fz_wm.l
      4026        368        144          0          0       1676   m_wm.l

    ----------------------------------------------------------------------
     14796       1294        144         40        204     106492   Library Totals

    ----------------------------------------------------------------------

==============================================================================


      Code (inc. data)   RO Data    RW Data    ZI Data      Debug   

     18660       1610        940         84      47572     154351   Grand Totals
     18660       1610        940         84      47572     154351   ELF Image Totals
     18660       1610        940         84          0          0   ROM Totals

==============================================================================

    Total RO  Size (Code + RO Data)                19600 (  19.14kB)
    Total RW  Size (RW Data + ZI Data)             47656 (  46.54kB)
    Total ROM Size (Code + RO Data + RW Data)      19684 (  19.22kB)

==============================================================================

