Component: ARM Compiler 5.06 update 5 (build 528) Tool: armlink [4d35e2]

==============================================================================

Section Cross References

    comunication.o(.text) refers to strlen.o(.text) for strlen
    comunication.o(.text) refers to uart_functions.o(.text) for sendUART
    terminal.o(.text) refers to utils.o(.text) for intToString
    terminal.o(.text) refers to strcpy.o(.text) for strcpy
    terminal.o(.text) refers to strcat.o(.text) for strcat
    terminal.o(.text) refers to comunication.o(.text) for sendString
    utils.o(.text) refers to llsdiv.o(.text) for __aeabi_ldivmod
    utils.o(.text) refers to ffixll.o(x$fpl$llsfromf) for __aeabi_f2lz
    utils.o(.text) refers to utils.o(.data) for pAscii
    utils.o(.data) refers to utils.o(.conststring) for .conststring
    lab5.o(.text) refers to d2f.o(x$fpl$d2f) for __aeabi_d2f
    lab5.o(.text) refers to utils.o(.text) for floatToString
    lab5.o(.text) refers to comunication.o(.text) for sendString
    lab5.o(.text) refers to uart_functions.o(.text) for sendUART
    lab5.o(.text) refers to dflt_clz.o(x$fpl$dflt) for __aeabi_i2d
    lab5.o(.text) refers to dmul.o(x$fpl$dmul) for __aeabi_dmul
    lab5.o(.text) refers to daddsub_clz.o(x$fpl$dadd) for __aeabi_dadd
    lab5.o(.text) refers to pow.o(i.__hardfp_pow) for __hardfp_pow
    lab5.o(.text) refers to ddiv.o(x$fpl$ddiv) for __aeabi_ddiv
    lab5.o(.text) refers to rt_cmsis.o(i.osKernelSysTick) for osKernelSysTick
    lab5.o(.text) refers to dflt_clz.o(x$fpl$dfltu) for __aeabi_ui2d
    lab5.o(.text) refers to daddsub_clz.o(x$fpl$dsub) for __aeabi_dsub
    lab5.o(.text) refers to rt_cmsis.o(i.osDelay) for osDelay
    lab5.o(.text) refers to cfaf128x128x16.o(.text) for cfaf128x128x16Init
    lab5.o(.text) refers to rt_cmsis.o(i.osKernelInitialize) for osKernelInitialize
    lab5.o(.text) refers to rt_cmsis.o(i.osThreadCreate) for osThreadCreate
    lab5.o(.text) refers to rt_cmsis.o(i.osKernelStart) for osKernelStart
    lab5.o(.text) refers to lab5.o(.bss) for buffer
    lab5.o(.text) refers to lab5.o(.data) for initTime
    lab5.o(.text) refers to lab5.o(.constdata) for os_thread_def_Thread_F
    lab5.o(.constdata) refers to lab5.o(.text) for Thread_A
    cfaf128x128x16.o(.text) refers to cfaf128x128x16.o(.data) for _orientation
    cfaf128x128x16.o(.text) refers to sysctl.o(i.SysCtlClockFreqSet) for SysCtlClockFreqSet
    cfaf128x128x16.o(.constdata) refers to cfaf128x128x16.o(.text) for cfaf128x128x16PixelDraw
    rtx_conf_cm.o(.emb_text) refers to rt_cmsis.o(i.osKernelInitialize) for osKernelInitialize
    rtx_conf_cm.o(.emb_text) refers to rt_cmsis.o(i.osThreadCreate) for osThreadCreate
    rtx_conf_cm.o(.emb_text) refers to rt_cmsis.o(i.osKernelStart) for osKernelStart
    rtx_conf_cm.o(.emb_text) refers to exit.o(.text) for exit
    rtx_conf_cm.o(.emb_text) refers to rtx_conf_cm.o(.constdata) for os_thread_def_main
    rtx_conf_cm.o(.text) refers to rt_task.o(i.rt_tsk_self) for rt_tsk_self
    rtx_conf_cm.o(.text) refers to rt_mutex.o(i.rt_mut_init) for rt_mut_init
    rtx_conf_cm.o(.text) refers to rt_cmsis.o(.data) for os_running
    rtx_conf_cm.o(.text) refers to rtx_conf_cm.o(.bss) for .bss
    rtx_conf_cm.o(.text) refers to libspace.o(.bss) for __libspace_start
    rtx_conf_cm.o(.text) refers to rtx_conf_cm.o(.data) for .data
    rtx_conf_cm.o(.text) refers to rt_mutex.o(i.rt_mut_wait) for rt_mut_wait
    rtx_conf_cm.o(.text) refers to rt_mutex.o(i.rt_mut_release) for rt_mut_release
    rtx_conf_cm.o(.constdata) refers to rt_cmsis.o(i.osTimerThread) for osTimerThread
    rtx_conf_cm.o(.constdata) refers to rtx_conf_cm.o(.bss) for os_messageQ_q_osTimerMessageQ
    rtx_conf_cm.o(.constdata) refers to lab5.o(.text) for main
    startup_tm4c129.o(STACK) refers (Special) to heapauxi.o(.text) for __use_two_region_memory
    startup_tm4c129.o(HEAP) refers (Special) to heapauxi.o(.text) for __use_two_region_memory
    startup_tm4c129.o(RESET) refers (Special) to heapauxi.o(.text) for __use_two_region_memory
    startup_tm4c129.o(RESET) refers to startup_tm4c129.o(STACK) for __initial_sp
    startup_tm4c129.o(RESET) refers to startup_tm4c129.o(.text) for Reset_Handler
    startup_tm4c129.o(RESET) refers to hal_cm4.o(.emb_text) for SVC_Handler
    startup_tm4c129.o(.text) refers (Special) to heapauxi.o(.text) for __use_two_region_memory
    startup_tm4c129.o(.text) refers to system_tm4c129.o(.text) for SystemInit
    startup_tm4c129.o(.text) refers to __main.o(!!!main) for __main
    startup_tm4c129.o(.text) refers to startup_tm4c129.o(HEAP) for Heap_Mem
    startup_tm4c129.o(.text) refers to startup_tm4c129.o(STACK) for Stack_Mem
    system_tm4c129.o(.text) refers to system_tm4c129.o(.data) for SystemCoreClock
    sysctl.o(i.SysCtlClockFreqSet) refers to sysctl.o(.constdata) for .constdata
    sysctl.o(i.SysCtlClockGet) refers to sysctl.o(.constdata) for .constdata
    sysctl.o(i.SysCtlClockSet) refers to sysctl.o(.emb_text) for SysCtlDelay
    sysctl.o(i.SysCtlDeepSleep) refers to cpu.o(.emb_text) for CPUwfi
    sysctl.o(i.SysCtlIntRegister) refers to interrupt.o(i.IntRegister) for IntRegister
    sysctl.o(i.SysCtlIntRegister) refers to interrupt.o(i.IntEnable) for IntEnable
    sysctl.o(i.SysCtlIntUnregister) refers to interrupt.o(i.IntDisable) for IntDisable
    sysctl.o(i.SysCtlIntUnregister) refers to interrupt.o(i.IntUnregister) for IntUnregister
    sysctl.o(i.SysCtlSleep) refers to cpu.o(.emb_text) for CPUwfi
    sysctl.o(i.SysCtlVCOGet) refers to sysctl.o(.constdata) for .constdata
    rt_cmsis.o(i.isrMessageGet) refers to rt_mailbox.o(i.isr_mbx_receive) for isr_mbx_receive
    rt_cmsis.o(i.isrMessagePut) refers to rt_mailbox.o(i.rt_mbx_check) for rt_mbx_check
    rt_cmsis.o(i.isrMessagePut) refers to rt_mailbox.o(i.isr_mbx_send) for isr_mbx_send
    rt_cmsis.o(i.isrSemaphoreRelease) refers to rt_cmsis.o(i.rt_id2obj) for rt_id2obj
    rt_cmsis.o(i.isrSemaphoreRelease) refers to rt_semaphore.o(i.isr_sem_send) for isr_sem_send
    rt_cmsis.o(i.isrSignalSet) refers to rt_cmsis.o(i.rt_tid2ptcb) for rt_tid2ptcb
    rt_cmsis.o(i.isrSignalSet) refers to rt_event.o(i.isr_evt_set) for isr_evt_set
    rt_cmsis.o(i.osDelay) refers to rt_cmsis.o(i.svcDelay) for svcDelay
    rt_cmsis.o(i.osKernelInitialize) refers to rt_cmsis.o(i.svcKernelInitialize) for svcKernelInitialize
    rt_cmsis.o(i.osKernelRunning) refers to rt_cmsis.o(i.svcKernelRunning) for svcKernelRunning
    rt_cmsis.o(i.osKernelRunning) refers to rt_cmsis.o(.data) for .data
    rt_cmsis.o(i.osKernelStart) refers to rtx_conf_cm.o(.constdata) for os_flags
    rt_cmsis.o(i.osKernelStart) refers to rt_cmsis.o(i.svcKernelStart) for svcKernelStart
    rt_cmsis.o(i.osKernelSysTick) refers to rt_cmsis.o(i.svcKernelSysTick) for svcKernelSysTick
    rt_cmsis.o(i.osMailAlloc) refers to rt_cmsis.o(i.sysMailAlloc) for sysMailAlloc
    rt_cmsis.o(i.osMailCAlloc) refers to rt_cmsis.o(i.sysMailAlloc) for sysMailAlloc
    rt_cmsis.o(i.osMailCAlloc) refers to rt_cmsis.o(i.rt_clr_box) for rt_clr_box
    rt_cmsis.o(i.osMailCreate) refers to rt_cmsis.o(i.svcMailCreate) for svcMailCreate
    rt_cmsis.o(i.osMailCreate) refers to rt_cmsis.o(.data) for .data
    rt_cmsis.o(i.osMailFree) refers to rt_cmsis.o(i.sysMailFree) for sysMailFree
    rt_cmsis.o(i.osMailGet) refers to rt_cmsis.o(i.osMessageGet) for osMessageGet
    rt_cmsis.o(i.osMailPut) refers to rt_cmsis.o(i.osMessagePut) for osMessagePut
    rt_cmsis.o(i.osMessageCreate) refers to rt_cmsis.o(i.svcMessageCreate) for svcMessageCreate
    rt_cmsis.o(i.osMessageCreate) refers to rt_cmsis.o(.data) for .data
    rt_cmsis.o(i.osMessageGet) refers to rt_cmsis.o(i.isrMessageGet) for isrMessageGet
    rt_cmsis.o(i.osMessageGet) refers to rt_cmsis.o(i.svcMessageGet) for svcMessageGet
    rt_cmsis.o(i.osMessagePut) refers to rt_cmsis.o(i.isrMessagePut) for isrMessagePut
    rt_cmsis.o(i.osMessagePut) refers to rt_cmsis.o(i.svcMessagePut) for svcMessagePut
    rt_cmsis.o(i.osMutexCreate) refers to rt_cmsis.o(i.svcMutexCreate) for svcMutexCreate
    rt_cmsis.o(i.osMutexCreate) refers to rt_cmsis.o(.data) for .data
    rt_cmsis.o(i.osMutexDelete) refers to rt_cmsis.o(i.svcMutexDelete) for svcMutexDelete
    rt_cmsis.o(i.osMutexRelease) refers to rt_cmsis.o(i.svcMutexRelease) for svcMutexRelease
    rt_cmsis.o(i.osMutexWait) refers to rt_cmsis.o(i.svcMutexWait) for svcMutexWait
    rt_cmsis.o(i.osPoolAlloc) refers to rt_cmsis.o(i.sysPoolAlloc) for sysPoolAlloc
    rt_cmsis.o(i.osPoolCAlloc) refers to rt_cmsis.o(i.rt_clr_box) for rt_clr_box
    rt_cmsis.o(i.osPoolCAlloc) refers to rt_cmsis.o(i.sysPoolAlloc) for sysPoolAlloc
    rt_cmsis.o(i.osPoolCreate) refers to rt_cmsis.o(i.svcPoolCreate) for svcPoolCreate
    rt_cmsis.o(i.osPoolCreate) refers to rt_cmsis.o(.data) for .data
    rt_cmsis.o(i.osPoolFree) refers to rt_cmsis.o(i.sysPoolFree) for sysPoolFree
    rt_cmsis.o(i.osSemaphoreCreate) refers to rt_cmsis.o(i.svcSemaphoreCreate) for svcSemaphoreCreate
    rt_cmsis.o(i.osSemaphoreCreate) refers to rt_cmsis.o(.data) for .data
    rt_cmsis.o(i.osSemaphoreDelete) refers to rt_cmsis.o(i.svcSemaphoreDelete) for svcSemaphoreDelete
    rt_cmsis.o(i.osSemaphoreRelease) refers to rt_cmsis.o(i.isrSemaphoreRelease) for isrSemaphoreRelease
    rt_cmsis.o(i.osSemaphoreRelease) refers to rt_cmsis.o(i.svcSemaphoreRelease) for svcSemaphoreRelease
    rt_cmsis.o(i.osSemaphoreWait) refers to rt_cmsis.o(i.svcSemaphoreWait) for svcSemaphoreWait
    rt_cmsis.o(i.osSignalClear) refers to rt_cmsis.o(i.svcSignalClear) for svcSignalClear
    rt_cmsis.o(i.osSignalSet) refers to rt_cmsis.o(i.isrSignalSet) for isrSignalSet
    rt_cmsis.o(i.osSignalSet) refers to rt_cmsis.o(i.svcSignalSet) for svcSignalSet
    rt_cmsis.o(i.osSignalWait) refers to rt_cmsis.o(i.svcSignalWait) for svcSignalWait
    rt_cmsis.o(i.osThreadCreate) refers to rt_cmsis.o(i.svcThreadCreate) for svcThreadCreate
    rt_cmsis.o(i.osThreadCreate) refers to rt_cmsis.o(.data) for .data
    rt_cmsis.o(i.osThreadExit) refers to rt_cmsis.o(i.svcThreadGetId) for svcThreadGetId
    rt_cmsis.o(i.osThreadExit) refers to rt_cmsis.o(i.svcThreadTerminate) for svcThreadTerminate
    rt_cmsis.o(i.osThreadGetId) refers to rt_cmsis.o(i.svcThreadGetId) for svcThreadGetId
    rt_cmsis.o(i.osThreadGetPriority) refers to rt_cmsis.o(i.svcThreadGetPriority) for svcThreadGetPriority
    rt_cmsis.o(i.osThreadSetPriority) refers to rt_cmsis.o(i.svcThreadSetPriority) for svcThreadSetPriority
    rt_cmsis.o(i.osThreadTerminate) refers to rt_cmsis.o(i.svcThreadTerminate) for svcThreadTerminate
    rt_cmsis.o(i.osThreadYield) refers to rt_cmsis.o(i.svcThreadYield) for svcThreadYield
    rt_cmsis.o(i.osTimerCall) refers to rt_cmsis.o(i.svcTimerCall) for svcTimerCall
    rt_cmsis.o(i.osTimerCreate) refers to rt_cmsis.o(i.svcTimerCreate) for svcTimerCreate
    rt_cmsis.o(i.osTimerCreate) refers to rt_cmsis.o(.data) for .data
    rt_cmsis.o(i.osTimerDelete) refers to rt_cmsis.o(i.svcTimerDelete) for svcTimerDelete
    rt_cmsis.o(i.osTimerStart) refers to rt_cmsis.o(i.svcTimerStart) for svcTimerStart
    rt_cmsis.o(i.osTimerStop) refers to rt_cmsis.o(i.svcTimerStop) for svcTimerStop
    rt_cmsis.o(i.osTimerThread) refers to rt_cmsis.o(i.osMessageGet) for osMessageGet
    rt_cmsis.o(i.osTimerThread) refers to rt_cmsis.o(i.osTimerCall) for osTimerCall
    rt_cmsis.o(i.osTimerThread) refers to rtx_conf_cm.o(.data) for osMessageQId_osTimerMessageQ
    rt_cmsis.o(i.os_resume) refers to rt_system.o(i.rt_resume) for rt_resume
    rt_cmsis.o(i.os_suspend) refers to rt_system.o(i.rt_suspend) for rt_suspend
    rt_cmsis.o(i.rt_ms2tick) refers to rtx_conf_cm.o(.constdata) for os_clockrate
    rt_cmsis.o(i.rt_timer_insert) refers to rt_cmsis.o(.data) for .data
    rt_cmsis.o(i.rt_timer_remove) refers to rt_cmsis.o(.data) for .data
    rt_cmsis.o(i.svcDelay) refers to rt_cmsis.o(i.rt_ms2tick) for rt_ms2tick
    rt_cmsis.o(i.svcDelay) refers to rt_time.o(i.rt_dly_wait) for rt_dly_wait
    rt_cmsis.o(i.svcKernelInitialize) refers to rt_memory.o(i.rt_init_mem) for rt_init_mem
    rt_cmsis.o(i.svcKernelInitialize) refers to rt_task.o(i.rt_sys_init) for rt_sys_init
    rt_cmsis.o(i.svcKernelInitialize) refers to rt_cmsis.o(i.svcMessageCreate) for svcMessageCreate
    rt_cmsis.o(i.svcKernelInitialize) refers to rt_cmsis.o(i.svcThreadCreate) for svcThreadCreate
    rt_cmsis.o(i.svcKernelInitialize) refers to rt_cmsis.o(.data) for .data
    rt_cmsis.o(i.svcKernelInitialize) refers to rtx_conf_cm.o(.bss) for os_stack_mem
    rt_cmsis.o(i.svcKernelInitialize) refers to rtx_conf_cm.o(.constdata) for os_stack_sz
    rt_cmsis.o(i.svcKernelInitialize) refers to rt_task.o(.data) for os_tsk
    rt_cmsis.o(i.svcKernelInitialize) refers to rtx_conf_cm.o(.data) for osMessageQId_osTimerMessageQ
    rt_cmsis.o(i.svcKernelRunning) refers to rt_cmsis.o(.data) for .data
    rt_cmsis.o(i.svcKernelStart) refers to rt_task.o(i.rt_tsk_prio) for rt_tsk_prio
    rt_cmsis.o(i.svcKernelStart) refers to rt_task.o(i.rt_sys_start) for rt_sys_start
    rt_cmsis.o(i.svcKernelStart) refers to rt_cmsis.o(.data) for .data
    rt_cmsis.o(i.svcKernelStart) refers to rt_task.o(.data) for os_tsk
    rt_cmsis.o(i.svcKernelSysTick) refers to rt_system.o(i.os_tick_val) for os_tick_val
    rt_cmsis.o(i.svcKernelSysTick) refers to rt_system.o(i.os_tick_ovf) for os_tick_ovf
    rt_cmsis.o(i.svcKernelSysTick) refers to rtx_conf_cm.o(.constdata) for os_trv
    rt_cmsis.o(i.svcKernelSysTick) refers to rt_time.o(.data) for os_time
    rt_cmsis.o(i.svcMailCreate) refers to rt_membox.o(i._init_box) for _init_box
    rt_cmsis.o(i.svcMailCreate) refers to rt_mailbox.o(i.rt_mbx_init) for rt_mbx_init
    rt_cmsis.o(i.svcMessageCreate) refers to rt_mailbox.o(i.rt_mbx_init) for rt_mbx_init
    rt_cmsis.o(i.svcMessageGet) refers to rt_cmsis.o(i.rt_ms2tick) for rt_ms2tick
    rt_cmsis.o(i.svcMessageGet) refers to rt_mailbox.o(i.rt_mbx_wait) for rt_mbx_wait
    rt_cmsis.o(i.svcMessagePut) refers to rt_cmsis.o(i.rt_ms2tick) for rt_ms2tick
    rt_cmsis.o(i.svcMessagePut) refers to rt_mailbox.o(i.rt_mbx_send) for rt_mbx_send
    rt_cmsis.o(i.svcMutexCreate) refers to rt_mutex.o(i.rt_mut_init) for rt_mut_init
    rt_cmsis.o(i.svcMutexDelete) refers to rt_cmsis.o(i.rt_id2obj) for rt_id2obj
    rt_cmsis.o(i.svcMutexDelete) refers to rt_mutex.o(i.rt_mut_delete) for rt_mut_delete
    rt_cmsis.o(i.svcMutexRelease) refers to rt_cmsis.o(i.rt_id2obj) for rt_id2obj
    rt_cmsis.o(i.svcMutexRelease) refers to rt_mutex.o(i.rt_mut_release) for rt_mut_release
    rt_cmsis.o(i.svcMutexWait) refers to rt_cmsis.o(i.rt_id2obj) for rt_id2obj
    rt_cmsis.o(i.svcMutexWait) refers to rt_cmsis.o(i.rt_ms2tick) for rt_ms2tick
    rt_cmsis.o(i.svcMutexWait) refers to rt_mutex.o(i.rt_mut_wait) for rt_mut_wait
    rt_cmsis.o(i.svcPoolCreate) refers to rt_membox.o(i._init_box) for _init_box
    rt_cmsis.o(i.svcSemaphoreCreate) refers to rt_semaphore.o(i.rt_sem_init) for rt_sem_init
    rt_cmsis.o(i.svcSemaphoreDelete) refers to rt_cmsis.o(i.rt_id2obj) for rt_id2obj
    rt_cmsis.o(i.svcSemaphoreDelete) refers to rt_semaphore.o(i.rt_sem_delete) for rt_sem_delete
    rt_cmsis.o(i.svcSemaphoreRelease) refers to rt_cmsis.o(i.rt_id2obj) for rt_id2obj
    rt_cmsis.o(i.svcSemaphoreRelease) refers to rt_semaphore.o(i.rt_sem_send) for rt_sem_send
    rt_cmsis.o(i.svcSemaphoreWait) refers to rt_cmsis.o(i.rt_id2obj) for rt_id2obj
    rt_cmsis.o(i.svcSemaphoreWait) refers to rt_cmsis.o(i.rt_ms2tick) for rt_ms2tick
    rt_cmsis.o(i.svcSemaphoreWait) refers to rt_semaphore.o(i.rt_sem_wait) for rt_sem_wait
    rt_cmsis.o(i.svcSignalClear) refers to rt_cmsis.o(i.rt_tid2ptcb) for rt_tid2ptcb
    rt_cmsis.o(i.svcSignalClear) refers to rt_event.o(i.rt_evt_clr) for rt_evt_clr
    rt_cmsis.o(i.svcSignalSet) refers to rt_cmsis.o(i.rt_tid2ptcb) for rt_tid2ptcb
    rt_cmsis.o(i.svcSignalSet) refers to rt_event.o(i.rt_evt_set) for rt_evt_set
    rt_cmsis.o(i.svcSignalWait) refers to rt_cmsis.o(i.rt_ms2tick) for rt_ms2tick
    rt_cmsis.o(i.svcSignalWait) refers to rt_event.o(i.rt_evt_wait) for rt_evt_wait
    rt_cmsis.o(i.svcSignalWait) refers to rt_task.o(.data) for os_tsk
    rt_cmsis.o(i.svcThreadCreate) refers to rt_memory.o(i.rt_alloc_mem) for rt_alloc_mem
    rt_cmsis.o(i.svcThreadCreate) refers to rt_task.o(i.rt_tsk_create) for rt_tsk_create
    rt_cmsis.o(i.svcThreadCreate) refers to rt_memory.o(i.rt_free_mem) for rt_free_mem
    rt_cmsis.o(i.svcThreadCreate) refers to rtx_conf_cm.o(.bss) for os_stack_mem
    rt_cmsis.o(i.svcThreadCreate) refers to rt_cmsis.o(i.osThreadExit) for osThreadExit
    rt_cmsis.o(i.svcThreadGetId) refers to rt_task.o(i.rt_tsk_self) for rt_tsk_self
    rt_cmsis.o(i.svcThreadGetId) refers to rtx_conf_cm.o(.bss) for os_active_TCB
    rt_cmsis.o(i.svcThreadGetPriority) refers to rt_cmsis.o(i.rt_tid2ptcb) for rt_tid2ptcb
    rt_cmsis.o(i.svcThreadSetPriority) refers to rt_cmsis.o(i.rt_tid2ptcb) for rt_tid2ptcb
    rt_cmsis.o(i.svcThreadSetPriority) refers to rt_task.o(i.rt_tsk_prio) for rt_tsk_prio
    rt_cmsis.o(i.svcThreadTerminate) refers to rt_cmsis.o(i.rt_tid2ptcb) for rt_tid2ptcb
    rt_cmsis.o(i.svcThreadTerminate) refers to rt_task.o(i.rt_tsk_delete) for rt_tsk_delete
    rt_cmsis.o(i.svcThreadTerminate) refers to rt_memory.o(i.rt_free_mem) for rt_free_mem
    rt_cmsis.o(i.svcThreadTerminate) refers to rtx_conf_cm.o(.bss) for os_stack_mem
    rt_cmsis.o(i.svcThreadYield) refers to rt_task.o(i.rt_tsk_pass) for rt_tsk_pass
    rt_cmsis.o(i.svcTimerCall) refers to rt_cmsis.o(i.rt_id2obj) for rt_id2obj
    rt_cmsis.o(i.svcTimerCreate) refers to rtx_conf_cm.o(.data) for osThreadId_osTimerThread
    rt_cmsis.o(i.svcTimerDelete) refers to rt_cmsis.o(i.rt_id2obj) for rt_id2obj
    rt_cmsis.o(i.svcTimerDelete) refers to rt_cmsis.o(i.rt_timer_remove) for rt_timer_remove
    rt_cmsis.o(i.svcTimerStart) refers to rt_cmsis.o(i.rt_id2obj) for rt_id2obj
    rt_cmsis.o(i.svcTimerStart) refers to lludivv7m.o(.text) for __aeabi_uldivmod
    rt_cmsis.o(i.svcTimerStart) refers to rt_cmsis.o(i.rt_timer_remove) for rt_timer_remove
    rt_cmsis.o(i.svcTimerStart) refers to rt_cmsis.o(i.rt_timer_insert) for rt_timer_insert
    rt_cmsis.o(i.svcTimerStart) refers to rtx_conf_cm.o(.constdata) for os_clockrate
    rt_cmsis.o(i.svcTimerStop) refers to rt_cmsis.o(i.rt_id2obj) for rt_id2obj
    rt_cmsis.o(i.svcTimerStop) refers to rt_cmsis.o(i.rt_timer_remove) for rt_timer_remove
    rt_cmsis.o(i.sysMailAlloc) refers to rt_membox.o(i.rt_alloc_box) for rt_alloc_box
    rt_cmsis.o(i.sysMailAlloc) refers to rt_list.o(i.rt_put_prio) for rt_put_prio
    rt_cmsis.o(i.sysMailAlloc) refers to rt_cmsis.o(i.rt_ms2tick) for rt_ms2tick
    rt_cmsis.o(i.sysMailAlloc) refers to rt_task.o(i.rt_block) for rt_block
    rt_cmsis.o(i.sysMailAlloc) refers to rt_task.o(.data) for os_tsk
    rt_cmsis.o(i.sysMailFree) refers to rt_membox.o(i.rt_free_box) for rt_free_box
    rt_cmsis.o(i.sysMailFree) refers to rt_list.o(i.rt_psq_enq) for rt_psq_enq
    rt_cmsis.o(i.sysMailFree) refers to rt_system.o(i.rt_psh_req) for rt_psh_req
    rt_cmsis.o(i.sysMailFree) refers to rt_membox.o(i.rt_alloc_box) for rt_alloc_box
    rt_cmsis.o(i.sysMailFree) refers to rt_list.o(i.rt_get_first) for rt_get_first
    rt_cmsis.o(i.sysMailFree) refers to hal_cm.o(i.rt_ret_val) for rt_ret_val
    rt_cmsis.o(i.sysMailFree) refers to rt_list.o(i.rt_rmv_dly) for rt_rmv_dly
    rt_cmsis.o(i.sysMailFree) refers to rt_task.o(i.rt_dispatch) for rt_dispatch
    rt_cmsis.o(i.sysPoolAlloc) refers to rt_membox.o(i.rt_alloc_box) for rt_alloc_box
    rt_cmsis.o(i.sysPoolFree) refers to rt_membox.o(i.rt_free_box) for rt_free_box
    rt_cmsis.o(i.sysTimerTick) refers to rt_cmsis.o(i.isrMessagePut) for isrMessagePut
    rt_cmsis.o(i.sysTimerTick) refers to rtx_conf_cm.o(.text) for os_error
    rt_cmsis.o(i.sysTimerTick) refers to rt_cmsis.o(i.rt_timer_insert) for rt_timer_insert
    rt_cmsis.o(i.sysTimerTick) refers to rt_cmsis.o(.data) for .data
    rt_cmsis.o(i.sysTimerTick) refers to rtx_conf_cm.o(.data) for osMessageQId_osTimerMessageQ
    rt_cmsis.o(i.sysUserTimerUpdate) refers to rt_cmsis.o(i.sysTimerTick) for sysTimerTick
    rt_cmsis.o(i.sysUserTimerUpdate) refers to rt_cmsis.o(.data) for .data
    rt_cmsis.o(i.sysUserTimerWakeupTime) refers to rt_cmsis.o(.data) for .data
    rt_task.o(i.rt_block) refers to rt_list.o(i.rt_put_dly) for rt_put_dly
    rt_task.o(i.rt_block) refers to rt_list.o(i.rt_get_first) for rt_get_first
    rt_task.o(i.rt_block) refers to rt_task.o(i.rt_switch_req) for rt_switch_req
    rt_task.o(i.rt_block) refers to rt_task.o(.data) for .data
    rt_task.o(i.rt_block) refers to rt_list.o(.bss) for os_rdy
    rt_task.o(i.rt_dispatch) refers to rt_list.o(i.rt_put_rdy_first) for rt_put_rdy_first
    rt_task.o(i.rt_dispatch) refers to rt_task.o(i.rt_switch_req) for rt_switch_req
    rt_task.o(i.rt_dispatch) refers to rt_list.o(i.rt_get_first) for rt_get_first
    rt_task.o(i.rt_dispatch) refers to rt_list.o(i.rt_put_prio) for rt_put_prio
    rt_task.o(i.rt_dispatch) refers to rt_task.o(.data) for .data
    rt_task.o(i.rt_dispatch) refers to rt_list.o(.bss) for os_rdy
    rt_task.o(i.rt_init_context) refers to rt_membox.o(i.rt_alloc_box) for rt_alloc_box
    rt_task.o(i.rt_init_context) refers to hal_cm.o(i.rt_init_stack) for rt_init_stack
    rt_task.o(i.rt_init_context) refers to rtx_conf_cm.o(.bss) for mp_stk
    rt_task.o(i.rt_switch_req) refers to hal_cm.o(i.dbg_task_switch) for dbg_task_switch
    rt_task.o(i.rt_switch_req) refers to rt_task.o(.data) for .data
    rt_task.o(i.rt_switch_req) refers to hal_cm.o(.data) for dbg_msg
    rt_task.o(i.rt_sys_init) refers to hal_cm.o(i.dbg_init) for dbg_init
    rt_task.o(i.rt_sys_init) refers to rt_membox.o(i._init_box) for _init_box
    rt_task.o(i.rt_sys_init) refers to rt_task.o(i.rt_init_context) for rt_init_context
    rt_task.o(i.rt_sys_init) refers to rt_robin.o(i.rt_init_robin) for rt_init_robin
    rt_task.o(i.rt_sys_init) refers to rtx_conf_cm.o(.bss) for os_active_TCB
    rt_task.o(i.rt_sys_init) refers to rtx_conf_cm.o(.constdata) for os_maxtaskrun
    rt_task.o(i.rt_sys_init) refers to rtx_conf_cm.o(.data) for m_tmr
    rt_task.o(i.rt_sys_init) refers to rt_task.o(.bss) for .bss
    rt_task.o(i.rt_sys_init) refers to rtx_conf_cm.o(.text) for os_idle_demon
    rt_task.o(i.rt_sys_init) refers to rt_list.o(.bss) for os_rdy
    rt_task.o(i.rt_sys_init) refers to rt_task.o(.data) for .data
    rt_task.o(i.rt_sys_start) refers to rt_system.o(i.os_tick_init) for os_tick_init
    rt_task.o(i.rt_sys_start) refers to rt_system.o(.data) for os_tick_irqn
    rt_task.o(i.rt_tsk_create) refers to rt_membox.o(i.rt_alloc_box) for rt_alloc_box
    rt_task.o(i.rt_tsk_create) refers to rt_task.o(i.rt_init_context) for rt_init_context
    rt_task.o(i.rt_tsk_create) refers to hal_cm.o(i.dbg_task_notify) for dbg_task_notify
    rt_task.o(i.rt_tsk_create) refers to rt_task.o(i.rt_dispatch) for rt_dispatch
    rt_task.o(i.rt_tsk_create) refers to rtx_conf_cm.o(.bss) for mp_tcb
    rt_task.o(i.rt_tsk_create) refers to rtx_conf_cm.o(.constdata) for os_maxtaskrun
    rt_task.o(i.rt_tsk_create) refers to hal_cm.o(.data) for dbg_msg
    rt_task.o(i.rt_tsk_delete) refers to hal_cm4.o(.emb_text) for rt_get_PSP
    rt_task.o(i.rt_tsk_delete) refers to rt_system.o(i.rt_stk_check) for rt_stk_check
    rt_task.o(i.rt_tsk_delete) refers to rt_list.o(i.rt_get_first) for rt_get_first
    rt_task.o(i.rt_tsk_delete) refers to hal_cm.o(i.rt_ret_val) for rt_ret_val
    rt_task.o(i.rt_tsk_delete) refers to rt_list.o(i.rt_rmv_dly) for rt_rmv_dly
    rt_task.o(i.rt_tsk_delete) refers to rt_list.o(i.rt_put_prio) for rt_put_prio
    rt_task.o(i.rt_tsk_delete) refers to rt_membox.o(i.rt_free_box) for rt_free_box
    rt_task.o(i.rt_tsk_delete) refers to hal_cm.o(i.dbg_task_notify) for dbg_task_notify
    rt_task.o(i.rt_tsk_delete) refers to rt_list.o(i.rt_rmv_list) for rt_rmv_list
    rt_task.o(i.rt_tsk_delete) refers to rt_task.o(i.rt_dispatch) for rt_dispatch
    rt_task.o(i.rt_tsk_delete) refers to hal_cm.o(.data) for dbg_msg
    rt_task.o(i.rt_tsk_delete) refers to rtx_conf_cm.o(.bss) for os_active_TCB
    rt_task.o(i.rt_tsk_delete) refers to rt_task.o(.data) for .data
    rt_task.o(i.rt_tsk_delete) refers to rt_list.o(.bss) for os_rdy
    rt_task.o(i.rt_tsk_delete) refers to rtx_conf_cm.o(.constdata) for os_maxtaskrun
    rt_task.o(i.rt_tsk_pass) refers to rt_list.o(i.rt_get_same_rdy_prio) for rt_get_same_rdy_prio
    rt_task.o(i.rt_tsk_pass) refers to rt_list.o(i.rt_put_prio) for rt_put_prio
    rt_task.o(i.rt_tsk_pass) refers to rt_task.o(i.rt_switch_req) for rt_switch_req
    rt_task.o(i.rt_tsk_pass) refers to rt_task.o(.data) for .data
    rt_task.o(i.rt_tsk_pass) refers to rt_list.o(.bss) for os_rdy
    rt_task.o(i.rt_tsk_prio) refers to rt_list.o(i.rt_put_prio) for rt_put_prio
    rt_task.o(i.rt_tsk_prio) refers to rt_list.o(i.rt_resort_prio) for rt_resort_prio
    rt_task.o(i.rt_tsk_prio) refers to rt_list.o(i.rt_get_first) for rt_get_first
    rt_task.o(i.rt_tsk_prio) refers to rt_task.o(i.rt_dispatch) for rt_dispatch
    rt_task.o(i.rt_tsk_prio) refers to rt_task.o(.data) for .data
    rt_task.o(i.rt_tsk_prio) refers to rtx_conf_cm.o(.constdata) for os_maxtaskrun
    rt_task.o(i.rt_tsk_prio) refers to rtx_conf_cm.o(.bss) for os_active_TCB
    rt_task.o(i.rt_tsk_prio) refers to rt_list.o(.bss) for os_rdy
    rt_task.o(i.rt_tsk_self) refers to rt_task.o(.data) for .data
    rt_mutex.o(i.rt_mut_delete) refers to rt_list.o(i.rt_resort_prio) for rt_resort_prio
    rt_mutex.o(i.rt_mut_delete) refers to rt_list.o(i.rt_get_first) for rt_get_first
    rt_mutex.o(i.rt_mut_delete) refers to hal_cm.o(i.rt_ret_val) for rt_ret_val
    rt_mutex.o(i.rt_mut_delete) refers to rt_list.o(i.rt_rmv_dly) for rt_rmv_dly
    rt_mutex.o(i.rt_mut_delete) refers to rt_list.o(i.rt_put_prio) for rt_put_prio
    rt_mutex.o(i.rt_mut_delete) refers to rt_task.o(i.rt_dispatch) for rt_dispatch
    rt_mutex.o(i.rt_mut_delete) refers to rt_task.o(.data) for os_tsk
    rt_mutex.o(i.rt_mut_delete) refers to rt_list.o(.bss) for os_rdy
    rt_mutex.o(i.rt_mut_release) refers to rt_list.o(i.rt_get_first) for rt_get_first
    rt_mutex.o(i.rt_mut_release) refers to hal_cm.o(i.rt_ret_val) for rt_ret_val
    rt_mutex.o(i.rt_mut_release) refers to rt_list.o(i.rt_rmv_dly) for rt_rmv_dly
    rt_mutex.o(i.rt_mut_release) refers to rt_list.o(i.rt_put_prio) for rt_put_prio
    rt_mutex.o(i.rt_mut_release) refers to rt_task.o(i.rt_dispatch) for rt_dispatch
    rt_mutex.o(i.rt_mut_release) refers to rt_task.o(.data) for os_tsk
    rt_mutex.o(i.rt_mut_release) refers to rt_list.o(.bss) for os_rdy
    rt_mutex.o(i.rt_mut_wait) refers to rt_list.o(i.rt_resort_prio) for rt_resort_prio
    rt_mutex.o(i.rt_mut_wait) refers to rt_list.o(i.rt_put_prio) for rt_put_prio
    rt_mutex.o(i.rt_mut_wait) refers to rt_task.o(i.rt_block) for rt_block
    rt_mutex.o(i.rt_mut_wait) refers to rt_task.o(.data) for os_tsk
    interrupt.o(i.IntDisable) refers to interrupt.o(.constdata) for .constdata
    interrupt.o(i.IntEnable) refers to interrupt.o(.constdata) for .constdata
    interrupt.o(i.IntIsEnabled) refers to interrupt.o(.constdata) for .constdata
    interrupt.o(i.IntMasterDisable) refers to cpu.o(.emb_text) for CPUcpsid
    interrupt.o(i.IntMasterEnable) refers to cpu.o(.emb_text) for CPUcpsie
    interrupt.o(i.IntPendClear) refers to interrupt.o(.constdata) for .constdata
    interrupt.o(i.IntPendSet) refers to interrupt.o(.constdata) for .constdata
    interrupt.o(i.IntPriorityGet) refers to interrupt.o(.constdata) for .constdata
    interrupt.o(i.IntPriorityGroupingGet) refers to interrupt.o(.constdata) for .constdata
    interrupt.o(i.IntPriorityGroupingSet) refers to interrupt.o(.constdata) for .constdata
    interrupt.o(i.IntPriorityMaskGet) refers to cpu.o(.emb_text) for CPUbasepriGet
    interrupt.o(i.IntPriorityMaskSet) refers to cpu.o(.emb_text) for CPUbasepriSet
    interrupt.o(i.IntPrioritySet) refers to interrupt.o(.constdata) for .constdata
    interrupt.o(i.IntRegister) refers to interrupt.o(vtable) for vtable
    interrupt.o(i.IntUnregister) refers to interrupt.o(i._IntDefaultHandler) for _IntDefaultHandler
    interrupt.o(i.IntUnregister) refers to interrupt.o(vtable) for vtable
    rt_system.o(i.os_tick_init) refers to rtx_conf_cm.o(.constdata) for os_trv
    rt_system.o(i.os_tick_val) refers to rtx_conf_cm.o(.constdata) for os_trv
    rt_system.o(i.rt_pop_req) refers to rt_list.o(i.rt_put_rdy_first) for rt_put_rdy_first
    rt_system.o(i.rt_pop_req) refers to rt_semaphore.o(i.rt_sem_psh) for rt_sem_psh
    rt_system.o(i.rt_pop_req) refers to rt_list.o(i.rt_get_first) for rt_get_first
    rt_system.o(i.rt_pop_req) refers to rt_task.o(i.rt_switch_req) for rt_switch_req
    rt_system.o(i.rt_pop_req) refers to rt_event.o(i.rt_evt_psh) for rt_evt_psh
    rt_system.o(i.rt_pop_req) refers to rt_mailbox.o(i.rt_mbx_psh) for rt_mbx_psh
    rt_system.o(i.rt_pop_req) refers to rt_task.o(.data) for os_tsk
    rt_system.o(i.rt_pop_req) refers to rtx_conf_cm.o(.bss) for os_fifo
    rt_system.o(i.rt_pop_req) refers to rt_list.o(.bss) for os_rdy
    rt_system.o(i.rt_psh_req) refers to rt_system.o(.data) for .data
    rt_system.o(i.rt_resume) refers to rt_list.o(i.rt_put_rdy_first) for rt_put_rdy_first
    rt_system.o(i.rt_resume) refers to rt_list.o(i.rt_dec_dly) for rt_dec_dly
    rt_system.o(i.rt_resume) refers to rt_cmsis.o(i.sysUserTimerUpdate) for sysUserTimerUpdate
    rt_system.o(i.rt_resume) refers to rt_list.o(i.rt_get_first) for rt_get_first
    rt_system.o(i.rt_resume) refers to rt_task.o(i.rt_switch_req) for rt_switch_req
    rt_system.o(i.rt_resume) refers to rt_system.o(i.rt_tsk_unlock) for rt_tsk_unlock
    rt_system.o(i.rt_resume) refers to rt_task.o(.data) for os_tsk
    rt_system.o(i.rt_resume) refers to rt_robin.o(.data) for os_robin
    rt_system.o(i.rt_resume) refers to rt_list.o(.bss) for os_dly
    rt_system.o(i.rt_resume) refers to rt_time.o(.data) for os_time
    rt_system.o(i.rt_stk_check) refers to rtx_conf_cm.o(.text) for os_error
    rt_system.o(i.rt_stk_check) refers to rt_task.o(.data) for os_tsk
    rt_system.o(i.rt_suspend) refers to rt_system.o(i.rt_tsk_lock) for rt_tsk_lock
    rt_system.o(i.rt_suspend) refers to rt_cmsis.o(i.sysUserTimerWakeupTime) for sysUserTimerWakeupTime
    rt_system.o(i.rt_suspend) refers to rt_list.o(.bss) for os_dly
    rt_system.o(i.rt_systick) refers to rt_list.o(i.rt_put_rdy_first) for rt_put_rdy_first
    rt_system.o(i.rt_systick) refers to rt_robin.o(i.rt_chk_robin) for rt_chk_robin
    rt_system.o(i.rt_systick) refers to rt_list.o(i.rt_dec_dly) for rt_dec_dly
    rt_system.o(i.rt_systick) refers to rt_cmsis.o(i.sysTimerTick) for sysTimerTick
    rt_system.o(i.rt_systick) refers to rt_list.o(i.rt_get_first) for rt_get_first
    rt_system.o(i.rt_systick) refers to rt_task.o(i.rt_switch_req) for rt_switch_req
    rt_system.o(i.rt_systick) refers to rt_task.o(.data) for os_tsk
    rt_system.o(i.rt_systick) refers to rt_time.o(.data) for os_time
    rt_system.o(i.rt_systick) refers to rt_list.o(.bss) for os_rdy
    rt_system.o(i.rt_tsk_lock) refers to rt_system.o(.data) for .data
    rt_system.o(i.rt_tsk_unlock) refers to rt_system.o(.data) for .data
    rt_event.o(i.isr_evt_set) refers to rt_list.o(i.rt_psq_enq) for rt_psq_enq
    rt_event.o(i.isr_evt_set) refers to rt_system.o(i.rt_psh_req) for rt_psh_req
    rt_event.o(i.isr_evt_set) refers to rtx_conf_cm.o(.bss) for os_active_TCB
    rt_event.o(i.rt_evt_clr) refers to rtx_conf_cm.o(.bss) for os_active_TCB
    rt_event.o(i.rt_evt_get) refers to rt_task.o(.data) for os_tsk
    rt_event.o(i.rt_evt_psh) refers to rt_list.o(i.rt_rmv_dly) for rt_rmv_dly
    rt_event.o(i.rt_evt_psh) refers to hal_cm.o(i.rt_ret_val2) for rt_ret_val2
    rt_event.o(i.rt_evt_psh) refers to rt_list.o(i.rt_put_prio) for rt_put_prio
    rt_event.o(i.rt_evt_psh) refers to rt_list.o(.bss) for os_rdy
    rt_event.o(i.rt_evt_set) refers to rt_list.o(i.rt_rmv_dly) for rt_rmv_dly
    rt_event.o(i.rt_evt_set) refers to hal_cm.o(i.rt_ret_val2) for rt_ret_val2
    rt_event.o(i.rt_evt_set) refers to rt_task.o(i.rt_dispatch) for rt_dispatch
    rt_event.o(i.rt_evt_set) refers to rtx_conf_cm.o(.bss) for os_active_TCB
    rt_event.o(i.rt_evt_wait) refers to rt_task.o(i.rt_block) for rt_block
    rt_event.o(i.rt_evt_wait) refers to rt_task.o(.data) for os_tsk
    rt_list.o(i.rt_dec_dly) refers to rt_list.o(i.rt_put_prio) for rt_put_prio
    rt_list.o(i.rt_dec_dly) refers to rt_list.o(.bss) for .bss
    rt_list.o(i.rt_dec_dly) refers to rt_time.o(.data) for os_time
    rt_list.o(i.rt_get_same_rdy_prio) refers to rt_list.o(.bss) for .bss
    rt_list.o(i.rt_get_same_rdy_prio) refers to rt_task.o(.data) for os_tsk
    rt_list.o(i.rt_psq_enq) refers to rtx_conf_cm.o(.text) for os_error
    rt_list.o(i.rt_psq_enq) refers to rtx_conf_cm.o(.bss) for os_fifo
    rt_list.o(i.rt_put_dly) refers to rt_list.o(.bss) for .bss
    rt_list.o(i.rt_put_rdy_first) refers to rt_list.o(.bss) for .bss
    rt_list.o(i.rt_resort_prio) refers to rt_list.o(i.rt_rmv_list) for rt_rmv_list
    rt_list.o(i.rt_resort_prio) refers to rt_list.o(i.rt_put_prio) for rt_put_prio
    rt_list.o(i.rt_resort_prio) refers to rt_list.o(.bss) for .bss
    rt_list.o(i.rt_rmv_list) refers to rt_list.o(.bss) for .bss
    rt_mailbox.o(i.isr_mbx_receive) refers to rt_list.o(i.rt_psq_enq) for rt_psq_enq
    rt_mailbox.o(i.isr_mbx_receive) refers to rt_system.o(i.rt_psh_req) for rt_psh_req
    rt_mailbox.o(i.isr_mbx_send) refers to rt_list.o(i.rt_psq_enq) for rt_psq_enq
    rt_mailbox.o(i.isr_mbx_send) refers to rt_system.o(i.rt_psh_req) for rt_psh_req
    rt_mailbox.o(i.rt_mbx_psh) refers to rt_membox.o(i.rt_alloc_box) for rt_alloc_box
    rt_mailbox.o(i.rt_mbx_psh) refers to rt_list.o(i.rt_get_first) for rt_get_first
    rt_mailbox.o(i.rt_mbx_psh) refers to hal_cm.o(i.rt_ret_val) for rt_ret_val
    rt_mailbox.o(i.rt_mbx_psh) refers to rt_list.o(i.rt_rmv_dly) for rt_rmv_dly
    rt_mailbox.o(i.rt_mbx_psh) refers to rt_list.o(i.rt_put_prio) for rt_put_prio
    rt_mailbox.o(i.rt_mbx_psh) refers to hal_cm.o(i.rt_ret_val2) for rt_ret_val2
    rt_mailbox.o(i.rt_mbx_psh) refers to rtx_conf_cm.o(.text) for os_error
    rt_mailbox.o(i.rt_mbx_psh) refers to rt_list.o(.bss) for os_rdy
    rt_mailbox.o(i.rt_mbx_send) refers to rt_list.o(i.rt_put_prio) for rt_put_prio
    rt_mailbox.o(i.rt_mbx_send) refers to rt_list.o(i.rt_get_first) for rt_get_first
    rt_mailbox.o(i.rt_mbx_send) refers to hal_cm.o(i.rt_ret_val2) for rt_ret_val2
    rt_mailbox.o(i.rt_mbx_send) refers to rt_list.o(i.rt_rmv_dly) for rt_rmv_dly
    rt_mailbox.o(i.rt_mbx_send) refers to rt_task.o(i.rt_dispatch) for rt_dispatch
    rt_mailbox.o(i.rt_mbx_send) refers to rt_task.o(i.rt_block) for rt_block
    rt_mailbox.o(i.rt_mbx_send) refers to rt_task.o(.data) for os_tsk
    rt_mailbox.o(i.rt_mbx_wait) refers to rt_list.o(i.rt_get_first) for rt_get_first
    rt_mailbox.o(i.rt_mbx_wait) refers to hal_cm.o(i.rt_ret_val) for rt_ret_val
    rt_mailbox.o(i.rt_mbx_wait) refers to rt_list.o(i.rt_rmv_dly) for rt_rmv_dly
    rt_mailbox.o(i.rt_mbx_wait) refers to rt_task.o(i.rt_dispatch) for rt_dispatch
    rt_mailbox.o(i.rt_mbx_wait) refers to rt_list.o(i.rt_put_prio) for rt_put_prio
    rt_mailbox.o(i.rt_mbx_wait) refers to rt_task.o(i.rt_block) for rt_block
    rt_mailbox.o(i.rt_mbx_wait) refers to rt_task.o(.data) for os_tsk
    rt_semaphore.o(i.isr_sem_send) refers to rt_list.o(i.rt_psq_enq) for rt_psq_enq
    rt_semaphore.o(i.isr_sem_send) refers to rt_system.o(i.rt_psh_req) for rt_psh_req
    rt_semaphore.o(i.rt_sem_delete) refers to rt_list.o(i.rt_get_first) for rt_get_first
    rt_semaphore.o(i.rt_sem_delete) refers to hal_cm.o(i.rt_ret_val) for rt_ret_val
    rt_semaphore.o(i.rt_sem_delete) refers to rt_list.o(i.rt_rmv_dly) for rt_rmv_dly
    rt_semaphore.o(i.rt_sem_delete) refers to rt_list.o(i.rt_put_prio) for rt_put_prio
    rt_semaphore.o(i.rt_sem_delete) refers to rt_task.o(i.rt_dispatch) for rt_dispatch
    rt_semaphore.o(i.rt_sem_delete) refers to rt_list.o(.bss) for os_rdy
    rt_semaphore.o(i.rt_sem_delete) refers to rt_task.o(.data) for os_tsk
    rt_semaphore.o(i.rt_sem_psh) refers to rt_list.o(i.rt_get_first) for rt_get_first
    rt_semaphore.o(i.rt_sem_psh) refers to rt_list.o(i.rt_rmv_dly) for rt_rmv_dly
    rt_semaphore.o(i.rt_sem_psh) refers to hal_cm.o(i.rt_ret_val) for rt_ret_val
    rt_semaphore.o(i.rt_sem_psh) refers to rt_list.o(i.rt_put_prio) for rt_put_prio
    rt_semaphore.o(i.rt_sem_psh) refers to rt_list.o(.bss) for os_rdy
    rt_semaphore.o(i.rt_sem_send) refers to rt_list.o(i.rt_get_first) for rt_get_first
    rt_semaphore.o(i.rt_sem_send) refers to hal_cm.o(i.rt_ret_val) for rt_ret_val
    rt_semaphore.o(i.rt_sem_send) refers to rt_list.o(i.rt_rmv_dly) for rt_rmv_dly
    rt_semaphore.o(i.rt_sem_send) refers to rt_task.o(i.rt_dispatch) for rt_dispatch
    rt_semaphore.o(i.rt_sem_wait) refers to rt_list.o(i.rt_put_prio) for rt_put_prio
    rt_semaphore.o(i.rt_sem_wait) refers to rt_task.o(i.rt_block) for rt_block
    rt_semaphore.o(i.rt_sem_wait) refers to rt_task.o(.data) for os_tsk
    rt_time.o(i.rt_dly_wait) refers to rt_task.o(i.rt_block) for rt_block
    rt_time.o(i.rt_itv_set) refers to rt_task.o(.data) for os_tsk
    rt_time.o(i.rt_itv_set) refers to rt_time.o(.data) for .data
    rt_time.o(i.rt_itv_wait) refers to rt_task.o(i.rt_block) for rt_block
    rt_time.o(i.rt_itv_wait) refers to rt_task.o(.data) for os_tsk
    rt_time.o(i.rt_itv_wait) refers to rt_time.o(.data) for .data
    rt_time.o(i.rt_time_get) refers to rt_time.o(.data) for .data
    rt_robin.o(i.rt_chk_robin) refers to rt_list.o(i.rt_get_first) for rt_get_first
    rt_robin.o(i.rt_chk_robin) refers to rt_list.o(i.rt_put_prio) for rt_put_prio
    rt_robin.o(i.rt_chk_robin) refers to rt_robin.o(.data) for .data
    rt_robin.o(i.rt_chk_robin) refers to rt_list.o(.bss) for os_rdy
    rt_robin.o(i.rt_chk_robin) refers to rt_time.o(.data) for os_time
    rt_robin.o(i.rt_init_robin) refers to rt_robin.o(.data) for .data
    rt_robin.o(i.rt_init_robin) refers to rtx_conf_cm.o(.constdata) for os_rrobin
    rt_membox.o(i._calloc_box) refers to hal_cm4.o(.emb_text) for _alloc_box
    hal_cm.o(i.dbg_init) refers to hal_cm.o(.data) for .data
    hal_cm.o(i.rt_init_stack) refers to rtx_conf_cm.o(.constdata) for os_stackinfo
    hal_cm.o(i.rt_ret_val) refers to hal_cm.o(i.rt_ret_regs) for rt_ret_regs
    hal_cm.o(i.rt_ret_val2) refers to hal_cm.o(i.rt_ret_regs) for rt_ret_regs
    hal_cm4.o(.emb_text) refers to rtx_conf_cm.o(.constdata) for os_flags
    hal_cm4.o(.emb_text) refers to rt_membox.o(i.rt_alloc_box) for rt_alloc_box
    hal_cm4.o(.emb_text) refers to rt_membox.o(i.rt_free_box) for rt_free_box
    hal_cm4.o(.emb_text) refers to rt_system.o(i.rt_stk_check) for rt_stk_check
    hal_cm4.o(.emb_text) refers to rt_task.o(.data) for os_tsk
    hal_cm4.o(.emb_text) refers to svc_table.o(SVC_TABLE) for SVC_Count
    hal_cm4.o(.emb_text) refers to rt_system.o(i.rt_pop_req) for rt_pop_req
    hal_cm4.o(.emb_text) refers to rt_system.o(i.rt_systick) for rt_systick
    hal_cm4.o(.emb_text) refers to rt_system.o(i.os_tick_irqack) for os_tick_irqack
    libspace.o(.text) refers to libspace.o(.bss) for __libspace_start
    llsdiv.o(.text) refers to lludivv7m.o(.text) for __aeabi_uldivmod
    exit.o(.text) refers to rtexit.o(.ARM.Collect$$rtexit$$00000000) for __rt_exit
    __main.o(!!!main) refers to __rtentry.o(.ARM.Collect$$rtentry$$00000000) for __rt_entry
    d2f.o(x$fpl$d2f) refers (Special) to usenofp.o(x$fpl$usenofp) for __I$use$fp
    d2f.o(x$fpl$d2f) refers to fretinf.o(x$fpl$fretinf) for __fpl_fretinf
    d2f.o(x$fpl$d2f) refers to dnaninf.o(x$fpl$dnaninf) for __fpl_dnaninf
    daddsub_clz.o(x$fpl$dadd) refers (Special) to usenofp.o(x$fpl$usenofp) for __I$use$fp
    daddsub_clz.o(x$fpl$dadd) refers to daddsub_clz.o(x$fpl$dsub) for _dsub1
    daddsub_clz.o(x$fpl$dadd) refers to dretinf.o(x$fpl$dretinf) for __fpl_dretinf
    daddsub_clz.o(x$fpl$dadd) refers to dnaninf.o(x$fpl$dnaninf) for __fpl_dnaninf
    daddsub_clz.o(x$fpl$drsb) refers (Special) to usenofp.o(x$fpl$usenofp) for __I$use$fp
    daddsub_clz.o(x$fpl$drsb) refers to daddsub_clz.o(x$fpl$dadd) for _dadd1
    daddsub_clz.o(x$fpl$drsb) refers to daddsub_clz.o(x$fpl$dsub) for _dsub1
    daddsub_clz.o(x$fpl$dsub) refers (Special) to usenofp.o(x$fpl$usenofp) for __I$use$fp
    daddsub_clz.o(x$fpl$dsub) refers to daddsub_clz.o(x$fpl$dadd) for _dadd1
    daddsub_clz.o(x$fpl$dsub) refers to dnaninf.o(x$fpl$dnaninf) for __fpl_dnaninf
    ddiv.o(x$fpl$drdiv) refers (Special) to usenofp.o(x$fpl$usenofp) for __I$use$fp
    ddiv.o(x$fpl$drdiv) refers to ddiv.o(x$fpl$ddiv) for ddiv_entry
    ddiv.o(x$fpl$ddiv) refers (Special) to usenofp.o(x$fpl$usenofp) for __I$use$fp
    ddiv.o(x$fpl$ddiv) refers to dretinf.o(x$fpl$dretinf) for __fpl_dretinf
    ddiv.o(x$fpl$ddiv) refers to dnaninf.o(x$fpl$dnaninf) for __fpl_dnaninf
    dflt_clz.o(x$fpl$dfltu) refers (Special) to usenofp.o(x$fpl$usenofp) for __I$use$fp
    dflt_clz.o(x$fpl$dflt) refers (Special) to usenofp.o(x$fpl$usenofp) for __I$use$fp
    dflt_clz.o(x$fpl$dfltn) refers (Special) to usenofp.o(x$fpl$usenofp) for __I$use$fp
    dmul.o(x$fpl$dmul) refers (Special) to usenofp.o(x$fpl$usenofp) for __I$use$fp
    dmul.o(x$fpl$dmul) refers to dretinf.o(x$fpl$dretinf) for __fpl_dretinf
    dmul.o(x$fpl$dmul) refers to dnaninf.o(x$fpl$dnaninf) for __fpl_dnaninf
    ffixll.o(x$fpl$llsfromf) refers (Special) to usenofp.o(x$fpl$usenofp) for __I$use$fp
    ffixll.o(x$fpl$llsfromf) refers to fnaninf.o(x$fpl$fnaninf) for __fpl_fnaninf
    ffixll.o(x$fpl$llsfromfr) refers (Special) to usenofp.o(x$fpl$usenofp) for __I$use$fp
    ffixll.o(x$fpl$llsfromfr) refers to fnaninf.o(x$fpl$fnaninf) for __fpl_fnaninf
    pow.o(i.__hardfp_pow) refers (Special) to usenofp.o(x$fpl$usenofp) for __I$use$fp
    pow.o(i.__hardfp_pow) refers to dunder.o(i.__mathlib_dbl_infnan2) for __mathlib_dbl_infnan2
    pow.o(i.__hardfp_pow) refers to _rserrno.o(.text) for __set_errno
    pow.o(i.__hardfp_pow) refers to dunder.o(i.__mathlib_dbl_divzero) for __mathlib_dbl_divzero
    pow.o(i.__hardfp_pow) refers to basic.o(x$fpl$basic) for __aeabi_dneg
    pow.o(i.__hardfp_pow) refers to dunder.o(i.__mathlib_dbl_overflow) for __mathlib_dbl_overflow
    pow.o(i.__hardfp_pow) refers to ddiv.o(x$fpl$ddiv) for __aeabi_ddiv
    pow.o(i.__hardfp_pow) refers to sqrt.o(i.sqrt) for sqrt
    pow.o(i.__hardfp_pow) refers to fabs.o(i.fabs) for fabs
    pow.o(i.__hardfp_pow) refers to dflt_clz.o(x$fpl$dflt) for __aeabi_i2d
    pow.o(i.__hardfp_pow) refers to dunder.o(i.__mathlib_dbl_invalid) for __mathlib_dbl_invalid
    pow.o(i.__hardfp_pow) refers to dmul.o(x$fpl$dmul) for __aeabi_dmul
    pow.o(i.__hardfp_pow) refers to dunder.o(i.__mathlib_dbl_underflow) for __mathlib_dbl_underflow
    pow.o(i.__hardfp_pow) refers to daddsub_clz.o(x$fpl$dsub) for __aeabi_dsub
    pow.o(i.__hardfp_pow) refers to daddsub_clz.o(x$fpl$drsb) for __aeabi_drsub
    pow.o(i.__hardfp_pow) refers to qnan.o(.constdata) for __mathlib_zero
    pow.o(i.__hardfp_pow) refers to daddsub_clz.o(x$fpl$dadd) for __aeabi_dadd
    pow.o(i.__hardfp_pow) refers to poly.o(i.__kernel_poly) for __kernel_poly
    pow.o(i.__hardfp_pow) refers to pow.o(.constdata) for .constdata
    pow.o(i.__hardfp_pow) refers to drleqf.o(x$fpl$drleqf) for __aeabi_cdrcmple
    pow.o(i.__hardfp_pow) refers to scalbn.o(x$fpl$scalbn) for __ARM_scalbn
    pow.o(i.__hardfp_pow) refers to fpclassify.o(i.__ARM_fpclassify) for __ARM_fpclassify
    pow.o(i.__softfp_pow) refers (Special) to usenofp.o(x$fpl$usenofp) for __I$use$fp
    pow.o(i.__softfp_pow) refers to pow.o(i.__hardfp_pow) for __hardfp_pow
    pow.o(i.pow) refers (Special) to usenofp.o(x$fpl$usenofp) for __I$use$fp
    pow.o(i.pow) refers to pow.o(i.__hardfp_pow) for __hardfp_pow
    pow.o(.constdata) refers (Special) to usenofp.o(x$fpl$usenofp) for __I$use$fp
    pow_x.o(i.____hardfp_pow$lsc) refers (Special) to usenofp.o(x$fpl$usenofp) for __I$use$fp
    pow_x.o(i.____hardfp_pow$lsc) refers to dunder.o(i.__mathlib_dbl_infnan2) for __mathlib_dbl_infnan2
    pow_x.o(i.____hardfp_pow$lsc) refers to _rserrno.o(.text) for __set_errno
    pow_x.o(i.____hardfp_pow$lsc) refers to basic.o(x$fpl$basic) for __aeabi_dneg
    pow_x.o(i.____hardfp_pow$lsc) refers to ddiv.o(x$fpl$ddiv) for __aeabi_ddiv
    pow_x.o(i.____hardfp_pow$lsc) refers to sqrt.o(i.sqrt) for sqrt
    pow_x.o(i.____hardfp_pow$lsc) refers to fabs.o(i.fabs) for fabs
    pow_x.o(i.____hardfp_pow$lsc) refers to dflt_clz.o(x$fpl$dflt) for __aeabi_i2d
    pow_x.o(i.____hardfp_pow$lsc) refers to dmul.o(x$fpl$dmul) for __aeabi_dmul
    pow_x.o(i.____hardfp_pow$lsc) refers to daddsub_clz.o(x$fpl$dsub) for __aeabi_dsub
    pow_x.o(i.____hardfp_pow$lsc) refers to daddsub_clz.o(x$fpl$drsb) for __aeabi_drsub
    pow_x.o(i.____hardfp_pow$lsc) refers to qnan.o(.constdata) for __mathlib_zero
    pow_x.o(i.____hardfp_pow$lsc) refers to daddsub_clz.o(x$fpl$dadd) for __aeabi_dadd
    pow_x.o(i.____hardfp_pow$lsc) refers to poly.o(i.__kernel_poly) for __kernel_poly
    pow_x.o(i.____hardfp_pow$lsc) refers to pow_x.o(.constdata) for .constdata
    pow_x.o(i.____hardfp_pow$lsc) refers to drleqf.o(x$fpl$drleqf) for __aeabi_cdrcmple
    pow_x.o(i.____hardfp_pow$lsc) refers to scalbn.o(x$fpl$scalbn) for __ARM_scalbn
    pow_x.o(i.____softfp_pow$lsc) refers (Special) to usenofp.o(x$fpl$usenofp) for __I$use$fp
    pow_x.o(i.____softfp_pow$lsc) refers to pow_x.o(i.____hardfp_pow$lsc) for ____hardfp_pow$lsc
    pow_x.o(i.__pow$lsc) refers (Special) to usenofp.o(x$fpl$usenofp) for __I$use$fp
    pow_x.o(i.__pow$lsc) refers to pow_x.o(i.____hardfp_pow$lsc) for ____hardfp_pow$lsc
    pow_x.o(.constdata) refers (Special) to usenofp.o(x$fpl$usenofp) for __I$use$fp
    __rtentry.o(.ARM.Collect$$rtentry$$00000000) refers (Special) to __rtentry2.o(.ARM.Collect$$rtentry$$0000000A) for __rt_entry_li
    __rtentry.o(.ARM.Collect$$rtentry$$00000000) refers (Special) to __rtentry2.o(.ARM.Collect$$rtentry$$0000000D) for __rt_entry_main
    __rtentry.o(.ARM.Collect$$rtentry$$00000000) refers (Special) to __rtentry2.o(.ARM.Collect$$rtentry$$0000000B) for __rt_entry_postli_1
    __rtentry.o(.ARM.Collect$$rtentry$$00000000) refers (Special) to __rtentry2.o(.ARM.Collect$$rtentry$$00000009) for __rt_entry_postsh_1
    __rtentry.o(.ARM.Collect$$rtentry$$00000000) refers (Special) to __rtentry2.o(.ARM.Collect$$rtentry$$00000002) for __rt_entry_presh_1
    __rtentry.o(.ARM.Collect$$rtentry$$00000000) refers (Special) to __rtentry4.o(.ARM.Collect$$rtentry$$00000004) for __rt_entry_sh
    rtexit.o(.ARM.Collect$$rtexit$$00000000) refers (Special) to rtexit2.o(.ARM.Collect$$rtexit$$00000004) for __rt_exit_exit
    rtexit.o(.ARM.Collect$$rtexit$$00000000) refers (Special) to rtexit2.o(.ARM.Collect$$rtexit$$00000003) for __rt_exit_ls
    rtexit.o(.ARM.Collect$$rtexit$$00000000) refers (Special) to rtexit2.o(.ARM.Collect$$rtexit$$00000002) for __rt_exit_prels_1
    rtexit.o(.ARM.exidx) refers (Special) to rtexit2.o(.ARM.Collect$$rtexit$$00000004) for __rt_exit_exit
    rtexit.o(.ARM.exidx) refers (Special) to rtexit2.o(.ARM.Collect$$rtexit$$00000003) for __rt_exit_ls
    rtexit.o(.ARM.exidx) refers (Special) to rtexit2.o(.ARM.Collect$$rtexit$$00000002) for __rt_exit_prels_1
    rtexit.o(.ARM.exidx) refers to rtexit.o(.ARM.Collect$$rtexit$$00000000) for .ARM.Collect$$rtexit$$00000000
    aeabi_ldiv0_sigfpe.o(.text) refers to rt_div0.o(.text) for __rt_div0
    _rserrno.o(.text) refers to rt_errno_addr_twolibspace.o(.text) for __aeabi_errno_addr
    basic.o(x$fpl$basic) refers (Special) to usenofp.o(x$fpl$usenofp) for __I$use$fp
    dnaninf.o(x$fpl$dnaninf) refers (Special) to usenofp.o(x$fpl$usenofp) for __I$use$fp
    dretinf.o(x$fpl$dretinf) refers (Special) to usenofp.o(x$fpl$usenofp) for __I$use$fp
    drleqf.o(x$fpl$drleqf) refers (Special) to usenofp.o(x$fpl$usenofp) for __I$use$fp
    drleqf.o(x$fpl$drleqf) refers to dleqf.o(x$fpl$dleqf) for __fpl_dcmple_InfNaN
    fnaninf.o(x$fpl$fnaninf) refers (Special) to usenofp.o(x$fpl$usenofp) for __I$use$fp
    fretinf.o(x$fpl$fretinf) refers (Special) to usenofp.o(x$fpl$usenofp) for __I$use$fp
    scalbn.o(x$fpl$scalbn) refers (Special) to usenofp.o(x$fpl$usenofp) for __I$use$fp
    scalbn.o(x$fpl$scalbn) refers to dcheck1.o(x$fpl$dcheck1) for __fpl_dcheck_NaN1
    dunder.o(i.__mathlib_dbl_divzero) refers to ddiv.o(x$fpl$ddiv) for __aeabi_ddiv
    dunder.o(i.__mathlib_dbl_infnan) refers to daddsub_clz.o(x$fpl$dadd) for __aeabi_dadd
    dunder.o(i.__mathlib_dbl_infnan2) refers to daddsub_clz.o(x$fpl$dadd) for __aeabi_dadd
    dunder.o(i.__mathlib_dbl_invalid) refers to ddiv.o(x$fpl$ddiv) for __aeabi_ddiv
    dunder.o(i.__mathlib_dbl_overflow) refers to dmul.o(x$fpl$dmul) for __aeabi_dmul
    dunder.o(i.__mathlib_dbl_posinfnan) refers to dmul.o(x$fpl$dmul) for __aeabi_dmul
    dunder.o(i.__mathlib_dbl_underflow) refers to dmul.o(x$fpl$dmul) for __aeabi_dmul
    fabs.o(i.__hardfp_fabs) refers (Special) to usenofp.o(x$fpl$usenofp) for __I$use$fp
    fabs.o(i.__softfp_fabs) refers (Special) to usenofp.o(x$fpl$usenofp) for __I$use$fp
    fabs.o(i.fabs) refers (Special) to usenofp.o(x$fpl$usenofp) for __I$use$fp
    fpclassify.o(i.__ARM_fpclassify) refers (Special) to usenofp.o(x$fpl$usenofp) for __I$use$fp
    poly.o(i.__kernel_poly) refers (Special) to usenofp.o(x$fpl$usenofp) for __I$use$fp
    poly.o(i.__kernel_poly) refers to dmul.o(x$fpl$dmul) for __aeabi_dmul
    poly.o(i.__kernel_poly) refers to daddsub_clz.o(x$fpl$dadd) for __aeabi_dadd
    qnan.o(.constdata) refers (Special) to usenofp.o(x$fpl$usenofp) for __I$use$fp
    sqrt.o(i.__hardfp_sqrt) refers (Special) to usenofp.o(x$fpl$usenofp) for __I$use$fp
    sqrt.o(i.__hardfp_sqrt) refers to dsqrt_umaal.o(x$fpl$dsqrt) for _dsqrt
    sqrt.o(i.__hardfp_sqrt) refers to _rserrno.o(.text) for __set_errno
    sqrt.o(i.__softfp_sqrt) refers (Special) to usenofp.o(x$fpl$usenofp) for __I$use$fp
    sqrt.o(i.__softfp_sqrt) refers to dsqrt_umaal.o(x$fpl$dsqrt) for _dsqrt
    sqrt.o(i.__softfp_sqrt) refers to _rserrno.o(.text) for __set_errno
    sqrt.o(i.sqrt) refers (Special) to usenofp.o(x$fpl$usenofp) for __I$use$fp
    sqrt.o(i.sqrt) refers to dsqrt_umaal.o(x$fpl$dsqrt) for _dsqrt
    sqrt.o(i.sqrt) refers to _rserrno.o(.text) for __set_errno
    sqrt_x.o(i.____hardfp_sqrt$lsc) refers (Special) to usenofp.o(x$fpl$usenofp) for __I$use$fp
    sqrt_x.o(i.____hardfp_sqrt$lsc) refers to dleqf.o(x$fpl$dleqf) for __aeabi_cdcmple
    sqrt_x.o(i.____hardfp_sqrt$lsc) refers to _rserrno.o(.text) for __set_errno
    sqrt_x.o(i.____hardfp_sqrt$lsc) refers to dsqrt_umaal.o(x$fpl$dsqrt) for _dsqrt
    sqrt_x.o(i.____softfp_sqrt$lsc) refers (Special) to usenofp.o(x$fpl$usenofp) for __I$use$fp
    sqrt_x.o(i.____softfp_sqrt$lsc) refers to dleqf.o(x$fpl$dleqf) for __aeabi_cdcmple
    sqrt_x.o(i.____softfp_sqrt$lsc) refers to _rserrno.o(.text) for __set_errno
    sqrt_x.o(i.____softfp_sqrt$lsc) refers to dsqrt_umaal.o(x$fpl$dsqrt) for _dsqrt
    sqrt_x.o(i.__sqrt$lsc) refers (Special) to usenofp.o(x$fpl$usenofp) for __I$use$fp
    sqrt_x.o(i.__sqrt$lsc) refers to dleqf.o(x$fpl$dleqf) for __aeabi_cdcmple
    sqrt_x.o(i.__sqrt$lsc) refers to _rserrno.o(.text) for __set_errno
    sqrt_x.o(i.__sqrt$lsc) refers to dsqrt_umaal.o(x$fpl$dsqrt) for _dsqrt
    __rtentry2.o(.ARM.Collect$$rtentry$$00000008) refers to boardinit2.o(.text) for _platform_post_stackheap_init
    __rtentry2.o(.ARM.Collect$$rtentry$$0000000A) refers to libinit.o(.ARM.Collect$$libinit$$00000000) for __rt_lib_init
    __rtentry2.o(.ARM.Collect$$rtentry$$0000000B) refers to rtx_conf_cm.o(.emb_text) for _platform_post_lib_init
    __rtentry2.o(.ARM.Collect$$rtentry$$0000000D) refers to lab5.o(.text) for main
    __rtentry2.o(.ARM.Collect$$rtentry$$0000000D) refers to exit.o(.text) for exit
    __rtentry2.o(.ARM.exidx) refers to __rtentry2.o(.ARM.Collect$$rtentry$$00000001) for .ARM.Collect$$rtentry$$00000001
    __rtentry2.o(.ARM.exidx) refers to __rtentry2.o(.ARM.Collect$$rtentry$$00000008) for .ARM.Collect$$rtentry$$00000008
    __rtentry2.o(.ARM.exidx) refers to __rtentry2.o(.ARM.Collect$$rtentry$$0000000A) for .ARM.Collect$$rtentry$$0000000A
    __rtentry2.o(.ARM.exidx) refers to __rtentry2.o(.ARM.Collect$$rtentry$$0000000B) for .ARM.Collect$$rtentry$$0000000B
    __rtentry2.o(.ARM.exidx) refers to __rtentry2.o(.ARM.Collect$$rtentry$$0000000D) for .ARM.Collect$$rtentry$$0000000D
    __rtentry4.o(.ARM.Collect$$rtentry$$00000004) refers to sys_stackheap_outer.o(.text) for __user_setup_stackheap
    __rtentry4.o(.ARM.exidx) refers to __rtentry4.o(.ARM.Collect$$rtentry$$00000004) for .ARM.Collect$$rtentry$$00000004
    rtexit2.o(.ARM.Collect$$rtexit$$00000003) refers to libshutdown.o(.ARM.Collect$$libshutdown$$00000000) for __rt_lib_shutdown
    rtexit2.o(.ARM.Collect$$rtexit$$00000004) refers to sys_exit.o(.text) for _sys_exit
    rtexit2.o(.ARM.exidx) refers to rtexit2.o(.ARM.Collect$$rtexit$$00000001) for .ARM.Collect$$rtexit$$00000001
    rtexit2.o(.ARM.exidx) refers to rtexit2.o(.ARM.Collect$$rtexit$$00000003) for .ARM.Collect$$rtexit$$00000003
    rtexit2.o(.ARM.exidx) refers to rtexit2.o(.ARM.Collect$$rtexit$$00000004) for .ARM.Collect$$rtexit$$00000004
    rt_div0.o(.text) refers to defsig_fpe_outer.o(.text) for __rt_SIGFPE
    rt_errno_addr.o(.text) refers to rt_errno_addr.o(.bss) for __aeabi_errno_addr_data
    rt_errno_addr_intlibspace.o(.text) refers to libspace.o(.bss) for __libspace_start
    rt_errno_addr_twolibspace.o(.text) refers to rtx_conf_cm.o(.text) for __user_perthread_libspace
    dcheck1.o(x$fpl$dcheck1) refers (Special) to usenofp.o(x$fpl$usenofp) for __I$use$fp
    dcheck1.o(x$fpl$dcheck1) refers to retnan.o(x$fpl$retnan) for __fpl_return_NaN
    dleqf.o(x$fpl$dleqf) refers (Special) to usenofp.o(x$fpl$usenofp) for __I$use$fp
    dleqf.o(x$fpl$dleqf) refers to dnaninf.o(x$fpl$dnaninf) for __fpl_dnaninf
    dleqf.o(x$fpl$dleqf) refers to dcmpi.o(x$fpl$dcmpinf) for __fpl_dcmp_Inf
    dsqrt_umaal.o(x$fpl$dsqrt) refers (Special) to usenofp.o(x$fpl$usenofp) for __I$use$fp
    dsqrt_umaal.o(x$fpl$dsqrt) refers to dnaninf.o(x$fpl$dnaninf) for __fpl_dnaninf
    sys_exit.o(.text) refers (Special) to use_no_semi.o(.text) for __I$use$semihosting
    sys_exit.o(.text) refers (Special) to indicate_semi.o(.text) for __semihosting_library_function
    sys_stackheap_outer.o(.text) refers to libspace.o(.text) for __user_perproc_libspace
    sys_stackheap_outer.o(.text) refers to startup_tm4c129.o(.text) for __user_initial_stackheap
    defsig_fpe_outer.o(.text) refers to defsig_fpe_inner.o(.text) for __rt_SIGFPE_inner
    defsig_fpe_outer.o(.text) refers to defsig_exit.o(.text) for __sig_exit
    defsig_fpe_formal.o(.text) refers to rt_raise.o(.text) for __rt_raise
    libinit.o(.ARM.Collect$$libinit$$00000000) refers (Special) to libinit2.o(.ARM.Collect$$libinit$$0000002E) for __rt_lib_init_alloca_1
    libinit.o(.ARM.Collect$$libinit$$00000000) refers (Special) to libinit2.o(.ARM.Collect$$libinit$$0000002C) for __rt_lib_init_argv_1
    libinit.o(.ARM.Collect$$libinit$$00000000) refers (Special) to libinit2.o(.ARM.Collect$$libinit$$0000001B) for __rt_lib_init_atexit_1
    libinit.o(.ARM.Collect$$libinit$$00000000) refers (Special) to libinit2.o(.ARM.Collect$$libinit$$00000021) for __rt_lib_init_clock_1
    libinit.o(.ARM.Collect$$libinit$$00000000) refers (Special) to libinit2.o(.ARM.Collect$$libinit$$00000032) for __rt_lib_init_cpp_1
    libinit.o(.ARM.Collect$$libinit$$00000000) refers (Special) to libinit2.o(.ARM.Collect$$libinit$$00000030) for __rt_lib_init_exceptions_1
    libinit.o(.ARM.Collect$$libinit$$00000000) refers (Special) to libinit2.o(.ARM.Collect$$libinit$$00000001) for __rt_lib_init_fp_1
    libinit.o(.ARM.Collect$$libinit$$00000000) refers (Special) to libinit2.o(.ARM.Collect$$libinit$$0000001F) for __rt_lib_init_fp_trap_1
    libinit.o(.ARM.Collect$$libinit$$00000000) refers (Special) to libinit2.o(.ARM.Collect$$libinit$$00000023) for __rt_lib_init_getenv_1
    libinit.o(.ARM.Collect$$libinit$$00000000) refers (Special) to libinit2.o(.ARM.Collect$$libinit$$0000000A) for __rt_lib_init_heap_1
    libinit.o(.ARM.Collect$$libinit$$00000000) refers (Special) to libinit2.o(.ARM.Collect$$libinit$$00000011) for __rt_lib_init_lc_collate_1
    libinit.o(.ARM.Collect$$libinit$$00000000) refers (Special) to libinit2.o(.ARM.Collect$$libinit$$00000013) for __rt_lib_init_lc_ctype_1
    libinit.o(.ARM.Collect$$libinit$$00000000) refers (Special) to libinit2.o(.ARM.Collect$$libinit$$00000015) for __rt_lib_init_lc_monetary_1
    libinit.o(.ARM.Collect$$libinit$$00000000) refers (Special) to libinit2.o(.ARM.Collect$$libinit$$00000017) for __rt_lib_init_lc_numeric_1
    libinit.o(.ARM.Collect$$libinit$$00000000) refers (Special) to libinit2.o(.ARM.Collect$$libinit$$00000019) for __rt_lib_init_lc_time_1
    libinit.o(.ARM.Collect$$libinit$$00000000) refers (Special) to libinit2.o(.ARM.Collect$$libinit$$00000004) for __rt_lib_init_preinit_1
    libinit.o(.ARM.Collect$$libinit$$00000000) refers (Special) to libinit2.o(.ARM.Collect$$libinit$$0000000E) for __rt_lib_init_rand_1
    libinit.o(.ARM.Collect$$libinit$$00000000) refers (Special) to libinit2.o(.ARM.Collect$$libinit$$00000033) for __rt_lib_init_return
    libinit.o(.ARM.Collect$$libinit$$00000000) refers (Special) to libinit2.o(.ARM.Collect$$libinit$$0000001D) for __rt_lib_init_signal_1
    libinit.o(.ARM.Collect$$libinit$$00000000) refers (Special) to libinit2.o(.ARM.Collect$$libinit$$00000025) for __rt_lib_init_stdio_1
    libinit.o(.ARM.Collect$$libinit$$00000000) refers (Special) to libinit2.o(.ARM.Collect$$libinit$$0000000C) for __rt_lib_init_user_alloc_1
    libshutdown.o(.ARM.Collect$$libshutdown$$00000000) refers (Special) to libshutdown2.o(.ARM.Collect$$libshutdown$$00000002) for __rt_lib_shutdown_cpp_1
    libshutdown.o(.ARM.Collect$$libshutdown$$00000000) refers (Special) to libshutdown2.o(.ARM.Collect$$libshutdown$$00000007) for __rt_lib_shutdown_fp_trap_1
    libshutdown.o(.ARM.Collect$$libshutdown$$00000000) refers (Special) to libshutdown2.o(.ARM.Collect$$libshutdown$$0000000F) for __rt_lib_shutdown_heap_1
    libshutdown.o(.ARM.Collect$$libshutdown$$00000000) refers (Special) to libshutdown2.o(.ARM.Collect$$libshutdown$$00000010) for __rt_lib_shutdown_return
    libshutdown.o(.ARM.Collect$$libshutdown$$00000000) refers (Special) to libshutdown2.o(.ARM.Collect$$libshutdown$$0000000A) for __rt_lib_shutdown_signal_1
    libshutdown.o(.ARM.Collect$$libshutdown$$00000000) refers (Special) to libshutdown2.o(.ARM.Collect$$libshutdown$$00000004) for __rt_lib_shutdown_stdio_1
    libshutdown.o(.ARM.Collect$$libshutdown$$00000000) refers (Special) to libshutdown2.o(.ARM.Collect$$libshutdown$$0000000C) for __rt_lib_shutdown_user_alloc_1
    dcmpi.o(x$fpl$dcmpinf) refers (Special) to usenofp.o(x$fpl$usenofp) for __I$use$fp
    retnan.o(x$fpl$retnan) refers (Special) to usenofp.o(x$fpl$usenofp) for __I$use$fp
    retnan.o(x$fpl$retnan) refers to trapv.o(x$fpl$trapveneer) for __fpl_cmpreturn
    rt_raise.o(.text) refers to __raise.o(.text) for __raise
    rt_raise.o(.text) refers to sys_exit.o(.text) for _sys_exit
    defsig_exit.o(.text) refers to sys_exit.o(.text) for _sys_exit
    defsig_fpe_inner.o(.text) refers to defsig_general.o(.text) for __default_signal_display
    libinit2.o(.ARM.Collect$$libinit$$00000001) refers to fpinit.o(x$fpl$fpinit) for _fp_init
    libinit2.o(.ARM.Collect$$libinit$$00000010) refers to libinit2.o(.ARM.Collect$$libinit$$0000000F) for .ARM.Collect$$libinit$$0000000F
    libinit2.o(.ARM.Collect$$libinit$$00000012) refers to libinit2.o(.ARM.Collect$$libinit$$0000000F) for .ARM.Collect$$libinit$$0000000F
    libinit2.o(.ARM.Collect$$libinit$$00000014) refers to libinit2.o(.ARM.Collect$$libinit$$0000000F) for .ARM.Collect$$libinit$$0000000F
    libinit2.o(.ARM.Collect$$libinit$$00000016) refers to libinit2.o(.ARM.Collect$$libinit$$0000000F) for .ARM.Collect$$libinit$$0000000F
    libinit2.o(.ARM.Collect$$libinit$$00000018) refers to libinit2.o(.ARM.Collect$$libinit$$0000000F) for .ARM.Collect$$libinit$$0000000F
    libinit2.o(.ARM.Collect$$libinit$$00000026) refers to argv_veneer.o(.emb_text) for __ARM_argv_veneer
    libinit2.o(.ARM.Collect$$libinit$$00000027) refers to argv_veneer.o(.emb_text) for __ARM_argv_veneer
    trapv.o(x$fpl$trapveneer) refers (Special) to usenofp.o(x$fpl$usenofp) for __I$use$fp
    __raise.o(.text) refers to defsig.o(CL$$defsig) for __default_signal_handler
    defsig_general.o(.text) refers to sys_wrch.o(.text) for _ttywrch
    argv_veneer.o(.emb_text) refers to no_argv.o(.text) for __ARM_get_argv
    sys_wrch.o(.text) refers (Special) to use_no_semi.o(.text) for __I$use$semihosting
    sys_wrch.o(.text) refers (Special) to indicate_semi.o(.text) for __semihosting_library_function
    defsig.o(CL$$defsig) refers to defsig_fpe_inner.o(.text) for __rt_SIGFPE_inner
    defsig.o(CL$$defsig) refers to defsig_rtmem_inner.o(.text) for __rt_SIGRTMEM_inner
    _get_argv_nomalloc.o(.text) refers (Special) to hrguard.o(.text) for __heap_region$guard
    _get_argv_nomalloc.o(.text) refers to defsig_rtmem_outer.o(.text) for __rt_SIGRTMEM
    _get_argv_nomalloc.o(.text) refers to sys_command.o(.text) for _sys_command_string
    sys_command.o(.text) refers (Special) to use_no_semi.o(.text) for __I$use$semihosting
    sys_command.o(.text) refers (Special) to indicate_semi.o(.text) for __semihosting_library_function
    defsig_abrt_inner.o(.text) refers to defsig_general.o(.text) for __default_signal_display
    defsig_rtred_inner.o(.text) refers to defsig_general.o(.text) for __default_signal_display
    defsig_rtmem_inner.o(.text) refers to defsig_general.o(.text) for __default_signal_display
    defsig_rtmem_outer.o(.text) refers to defsig_rtmem_inner.o(.text) for __rt_SIGRTMEM_inner
    defsig_rtmem_outer.o(.text) refers to defsig_exit.o(.text) for __sig_exit
    defsig_rtmem_formal.o(.text) refers to rt_raise.o(.text) for __rt_raise
    defsig_stak_inner.o(.text) refers to defsig_general.o(.text) for __default_signal_display
    defsig_pvfn_inner.o(.text) refers to defsig_general.o(.text) for __default_signal_display
    defsig_cppl_inner.o(.text) refers to defsig_general.o(.text) for __default_signal_display
    defsig_segv_inner.o(.text) refers to defsig_general.o(.text) for __default_signal_display
    defsig_other.o(.text) refers to defsig_general.o(.text) for __default_signal_display


==============================================================================

Removing Unused input sections from the image.

    Removing uart_functions.o(.rev16_text), (4 bytes).
    Removing uart_functions.o(.revsh_text), (4 bytes).
    Removing uart_functions.o(.rrx_text), (6 bytes).
    Removing uart_functions.o(.data), (1 bytes).
    Removing comunication.o(.rev16_text), (4 bytes).
    Removing comunication.o(.revsh_text), (4 bytes).
    Removing comunication.o(.rrx_text), (6 bytes).
    Removing terminal.o(.rev16_text), (4 bytes).
    Removing terminal.o(.revsh_text), (4 bytes).
    Removing terminal.o(.rrx_text), (6 bytes).
    Removing terminal.o(.text), (392 bytes).
    Removing lab5.o(.rev16_text), (4 bytes).
    Removing lab5.o(.revsh_text), (4 bytes).
    Removing lab5.o(.rrx_text), (6 bytes).
    Removing cfaf128x128x16.o(.constdata), (64 bytes).
    Removing system_tm4c129.o(.rev16_text), (4 bytes).
    Removing system_tm4c129.o(.revsh_text), (4 bytes).
    Removing system_tm4c129.o(.rrx_text), (6 bytes).
    Removing sysctl.o(.emb_text), (6 bytes).
    Removing sysctl.o(i.SysCtlAltClkConfig), (12 bytes).
    Removing sysctl.o(i.SysCtlClockGet), (340 bytes).
    Removing sysctl.o(i.SysCtlClockOutConfig), (20 bytes).
    Removing sysctl.o(i.SysCtlClockSet), (288 bytes).
    Removing sysctl.o(i.SysCtlDeepSleep), (32 bytes).
    Removing sysctl.o(i.SysCtlDeepSleepClockConfigSet), (112 bytes).
    Removing sysctl.o(i.SysCtlDeepSleepClockSet), (12 bytes).
    Removing sysctl.o(i.SysCtlDeepSleepPowerSet), (12 bytes).
    Removing sysctl.o(i.SysCtlFlashSectorSizeGet), (56 bytes).
    Removing sysctl.o(i.SysCtlFlashSizeGet), (56 bytes).
    Removing sysctl.o(i.SysCtlGPIOAHBDisable), (28 bytes).
    Removing sysctl.o(i.SysCtlGPIOAHBEnable), (24 bytes).
    Removing sysctl.o(i.SysCtlIntClear), (12 bytes).
    Removing sysctl.o(i.SysCtlIntDisable), (16 bytes).
    Removing sysctl.o(i.SysCtlIntEnable), (16 bytes).
    Removing sysctl.o(i.SysCtlIntRegister), (20 bytes).
    Removing sysctl.o(i.SysCtlIntStatus), (16 bytes).
    Removing sysctl.o(i.SysCtlIntUnregister), (18 bytes).
    Removing sysctl.o(i.SysCtlLDODeepSleepGet), (12 bytes).
    Removing sysctl.o(i.SysCtlLDODeepSleepSet), (12 bytes).
    Removing sysctl.o(i.SysCtlLDOSleepGet), (12 bytes).
    Removing sysctl.o(i.SysCtlLDOSleepSet), (12 bytes).
    Removing sysctl.o(i.SysCtlMOSCConfigSet), (12 bytes).
    Removing sysctl.o(i.SysCtlNMIClear), (16 bytes).
    Removing sysctl.o(i.SysCtlNMIStatus), (12 bytes).
    Removing sysctl.o(i.SysCtlPIOSCCalibrate), (76 bytes).
    Removing sysctl.o(i.SysCtlPWMClockGet), (24 bytes).
    Removing sysctl.o(i.SysCtlPWMClockSet), (20 bytes).
    Removing sysctl.o(i.SysCtlPeripheralClockGating), (68 bytes).
    Removing sysctl.o(i.SysCtlPeripheralDeepSleepDisable), (40 bytes).
    Removing sysctl.o(i.SysCtlPeripheralDeepSleepEnable), (40 bytes).
    Removing sysctl.o(i.SysCtlPeripheralDisable), (40 bytes).
    Removing sysctl.o(i.SysCtlPeripheralEnable), (40 bytes).
    Removing sysctl.o(i.SysCtlPeripheralPowerOff), (40 bytes).
    Removing sysctl.o(i.SysCtlPeripheralPowerOn), (40 bytes).
    Removing sysctl.o(i.SysCtlPeripheralPresent), (44 bytes).
    Removing sysctl.o(i.SysCtlPeripheralReady), (44 bytes).
    Removing sysctl.o(i.SysCtlPeripheralReset), (60 bytes).
    Removing sysctl.o(i.SysCtlPeripheralSleepDisable), (40 bytes).
    Removing sysctl.o(i.SysCtlPeripheralSleepEnable), (40 bytes).
    Removing sysctl.o(i.SysCtlReset), (16 bytes).
    Removing sysctl.o(i.SysCtlResetBehaviorGet), (12 bytes).
    Removing sysctl.o(i.SysCtlResetBehaviorSet), (12 bytes).
    Removing sysctl.o(i.SysCtlResetCauseClear), (16 bytes).
    Removing sysctl.o(i.SysCtlResetCauseGet), (12 bytes).
    Removing sysctl.o(i.SysCtlSRAMSizeGet), (16 bytes).
    Removing sysctl.o(i.SysCtlSleep), (4 bytes).
    Removing sysctl.o(i.SysCtlSleepPowerSet), (12 bytes).
    Removing sysctl.o(i.SysCtlUSBPLLDisable), (16 bytes).
    Removing sysctl.o(i.SysCtlUSBPLLEnable), (16 bytes).
    Removing sysctl.o(i.SysCtlVCOGet), (120 bytes).
    Removing sysctl.o(i.SysCtlVoltageEventClear), (16 bytes).
    Removing sysctl.o(i.SysCtlVoltageEventConfig), (12 bytes).
    Removing sysctl.o(i.SysCtlVoltageEventStatus), (12 bytes).
    Removing rt_cmsis.o(.rev16_text), (4 bytes).
    Removing rt_cmsis.o(.revsh_text), (4 bytes).
    Removing rt_cmsis.o(.rrx_text), (6 bytes).
    Removing rt_cmsis.o(i.isrSemaphoreRelease), (40 bytes).
    Removing rt_cmsis.o(i.isrSignalSet), (36 bytes).
    Removing rt_cmsis.o(i.osKernelRunning), (36 bytes).
    Removing rt_cmsis.o(i.osMailAlloc), (28 bytes).
    Removing rt_cmsis.o(i.osMailCAlloc), (48 bytes).
    Removing rt_cmsis.o(i.osMailCreate), (44 bytes).
    Removing rt_cmsis.o(i.osMailFree), (28 bytes).
    Removing rt_cmsis.o(i.osMailGet), (22 bytes).
    Removing rt_cmsis.o(i.osMailPut), (20 bytes).
    Removing rt_cmsis.o(i.osMessageCreate), (44 bytes).
    Removing rt_cmsis.o(i.osMessagePut), (24 bytes).
    Removing rt_cmsis.o(i.osMutexCreate), (44 bytes).
    Removing rt_cmsis.o(i.osMutexDelete), (24 bytes).
    Removing rt_cmsis.o(i.osMutexRelease), (24 bytes).
    Removing rt_cmsis.o(i.osMutexWait), (24 bytes).
    Removing rt_cmsis.o(i.osPoolAlloc), (32 bytes).
    Removing rt_cmsis.o(i.osPoolCAlloc), (52 bytes).
    Removing rt_cmsis.o(i.osPoolCreate), (44 bytes).
    Removing rt_cmsis.o(i.osPoolFree), (32 bytes).
    Removing rt_cmsis.o(i.osSemaphoreCreate), (44 bytes).
    Removing rt_cmsis.o(i.osSemaphoreDelete), (24 bytes).
    Removing rt_cmsis.o(i.osSemaphoreRelease), (24 bytes).
    Removing rt_cmsis.o(i.osSemaphoreWait), (24 bytes).
    Removing rt_cmsis.o(i.osSignalClear), (24 bytes).
    Removing rt_cmsis.o(i.osSignalSet), (24 bytes).
    Removing rt_cmsis.o(i.osSignalWait), (24 bytes).
    Removing rt_cmsis.o(i.osThreadGetId), (24 bytes).
    Removing rt_cmsis.o(i.osThreadGetPriority), (24 bytes).
    Removing rt_cmsis.o(i.osThreadSetPriority), (24 bytes).
    Removing rt_cmsis.o(i.osThreadTerminate), (24 bytes).
    Removing rt_cmsis.o(i.osThreadYield), (24 bytes).
    Removing rt_cmsis.o(i.osTimerCreate), (44 bytes).
    Removing rt_cmsis.o(i.osTimerDelete), (24 bytes).
    Removing rt_cmsis.o(i.osTimerStart), (24 bytes).
    Removing rt_cmsis.o(i.osTimerStop), (24 bytes).
    Removing rt_cmsis.o(i.osWait), (4 bytes).
    Removing rt_cmsis.o(i.os_resume), (12 bytes).
    Removing rt_cmsis.o(i.os_suspend), (12 bytes).
    Removing rt_cmsis.o(i.rt_clr_box), (24 bytes).
    Removing rt_cmsis.o(i.rt_timer_remove), (60 bytes).
    Removing rt_cmsis.o(i.svcKernelRunning), (12 bytes).
    Removing rt_cmsis.o(i.svcMailCreate), (66 bytes).
    Removing rt_cmsis.o(i.svcMessagePut), (54 bytes).
    Removing rt_cmsis.o(i.svcMutexCreate), (28 bytes).
    Removing rt_cmsis.o(i.svcMutexDelete), (26 bytes).
    Removing rt_cmsis.o(i.svcMutexRelease), (34 bytes).
    Removing rt_cmsis.o(i.svcMutexWait), (58 bytes).
    Removing rt_cmsis.o(i.svcPoolCreate), (40 bytes).
    Removing rt_cmsis.o(i.svcSemaphoreCreate), (36 bytes).
    Removing rt_cmsis.o(i.svcSemaphoreDelete), (26 bytes).
    Removing rt_cmsis.o(i.svcSemaphoreRelease), (40 bytes).
    Removing rt_cmsis.o(i.svcSemaphoreWait), (50 bytes).
    Removing rt_cmsis.o(i.svcSignalClear), (36 bytes).
    Removing rt_cmsis.o(i.svcSignalSet), (36 bytes).
    Removing rt_cmsis.o(i.svcSignalWait), (84 bytes).
    Removing rt_cmsis.o(i.svcThreadGetPriority), (18 bytes).
    Removing rt_cmsis.o(i.svcThreadSetPriority), (46 bytes).
    Removing rt_cmsis.o(i.svcThreadYield), (10 bytes).
    Removing rt_cmsis.o(i.svcTimerCreate), (56 bytes).
    Removing rt_cmsis.o(i.svcTimerDelete), (40 bytes).
    Removing rt_cmsis.o(i.svcTimerStart), (100 bytes).
    Removing rt_cmsis.o(i.svcTimerStop), (36 bytes).
    Removing rt_cmsis.o(i.sysMailAlloc), (88 bytes).
    Removing rt_cmsis.o(i.sysMailFree), (96 bytes).
    Removing rt_cmsis.o(i.sysPoolAlloc), (10 bytes).
    Removing rt_cmsis.o(i.sysPoolFree), (20 bytes).
    Removing rt_cmsis.o(i.sysUserTimerUpdate), (48 bytes).
    Removing rt_cmsis.o(i.sysUserTimerWakeupTime), (20 bytes).
    Removing rt_task.o(i.rt_tsk_pass), (48 bytes).
    Removing rt_mutex.o(i.rt_mut_delete), (176 bytes).
    Removing cpu.o(.emb_text), (38 bytes).
    Removing interrupt.o(i.IntDisable), (100 bytes).
    Removing interrupt.o(i.IntEnable), (100 bytes).
    Removing interrupt.o(i.IntIsEnabled), (96 bytes).
    Removing interrupt.o(i.IntMasterDisable), (14 bytes).
    Removing interrupt.o(i.IntMasterEnable), (14 bytes).
    Removing interrupt.o(i.IntPendClear), (68 bytes).
    Removing interrupt.o(i.IntPendSet), (84 bytes).
    Removing interrupt.o(i.IntPriorityGet), (28 bytes).
    Removing interrupt.o(i.IntPriorityGroupingGet), (36 bytes).
    Removing interrupt.o(i.IntPriorityGroupingSet), (28 bytes).
    Removing interrupt.o(i.IntPriorityMaskGet), (4 bytes).
    Removing interrupt.o(i.IntPriorityMaskSet), (4 bytes).
    Removing interrupt.o(i.IntPrioritySet), (40 bytes).
    Removing interrupt.o(i.IntRegister), (52 bytes).
    Removing interrupt.o(i.IntTrigger), (12 bytes).
    Removing interrupt.o(i.IntUnregister), (20 bytes).
    Removing interrupt.o(i._IntDefaultHandler), (2 bytes).
    Removing interrupt.o(.constdata), (268 bytes).
    Removing interrupt.o(vtable), (620 bytes).
    Removing rt_system.o(.emb_text), (0 bytes).
    Removing rt_system.o(i.rt_resume), (136 bytes).
    Removing rt_system.o(i.rt_suspend), (36 bytes).
    Removing rt_system.o(i.rt_tsk_lock), (80 bytes).
    Removing rt_system.o(i.rt_tsk_unlock), (80 bytes).
    Removing rt_event.o(i.isr_evt_set), (40 bytes).
    Removing rt_event.o(i.rt_evt_clr), (28 bytes).
    Removing rt_event.o(i.rt_evt_get), (12 bytes).
    Removing rt_event.o(i.rt_evt_set), (92 bytes).
    Removing rt_event.o(i.rt_evt_wait), (60 bytes).
    Removing rt_list.o(i.rt_get_same_rdy_prio), (36 bytes).
    Removing rt_mailbox.o(i.rt_mbx_send), (152 bytes).
    Removing rt_semaphore.o(i.isr_sem_send), (16 bytes).
    Removing rt_semaphore.o(i.rt_sem_delete), (92 bytes).
    Removing rt_semaphore.o(i.rt_sem_init), (12 bytes).
    Removing rt_semaphore.o(i.rt_sem_send), (42 bytes).
    Removing rt_semaphore.o(i.rt_sem_wait), (64 bytes).
    Removing rt_time.o(i.rt_itv_set), (24 bytes).
    Removing rt_time.o(i.rt_itv_wait), (40 bytes).
    Removing rt_time.o(i.rt_time_get), (12 bytes).
    Removing rt_membox.o(i._calloc_box), (30 bytes).

187 unused section(s) (total 8005 bytes) removed from the image.

==============================================================================

Image Symbol Table

    Local Symbols

    Symbol Name                              Value     Ov Type        Size  Object(Section)

    RESET                                    0x00000000   Section      512  startup_tm4c129.o(RESET)
    ../clib/angel/boardlib.s                 0x00000000   Number         0  boardshut.o ABSOLUTE
    ../clib/angel/boardlib.s                 0x00000000   Number         0  boardinit2.o ABSOLUTE
    ../clib/angel/boardlib.s                 0x00000000   Number         0  boardinit1.o ABSOLUTE
    ../clib/angel/handlers.s                 0x00000000   Number         0  __scatter_copy.o ABSOLUTE
    ../clib/angel/handlers.s                 0x00000000   Number         0  __scatter_zi.o ABSOLUTE
    ../clib/angel/kernel.s                   0x00000000   Number         0  __rtentry4.o ABSOLUTE
    ../clib/angel/kernel.s                   0x00000000   Number         0  rtexit2.o ABSOLUTE
    ../clib/angel/kernel.s                   0x00000000   Number         0  rtexit.o ABSOLUTE
    ../clib/angel/kernel.s                   0x00000000   Number         0  __rtentry.o ABSOLUTE
    ../clib/angel/kernel.s                   0x00000000   Number         0  __rtentry2.o ABSOLUTE
    ../clib/angel/rt.s                       0x00000000   Number         0  rt_div0.o ABSOLUTE
    ../clib/angel/rt.s                       0x00000000   Number         0  rt_errno_addr_twolibspace.o ABSOLUTE
    ../clib/angel/rt.s                       0x00000000   Number         0  rt_errno_addr_intlibspace.o ABSOLUTE
    ../clib/angel/rt.s                       0x00000000   Number         0  rt_errno_addr.o ABSOLUTE
    ../clib/angel/rt.s                       0x00000000   Number         0  rt_raise.o ABSOLUTE
    ../clib/angel/rt.s                       0x00000000   Number         0  aeabi_ldiv0.o ABSOLUTE
    ../clib/angel/rt.s                       0x00000000   Number         0  aeabi_ldiv0_sigfpe.o ABSOLUTE
    ../clib/angel/scatter.s                  0x00000000   Number         0  __scatter.o ABSOLUTE
    ../clib/angel/startup.s                  0x00000000   Number         0  __main.o ABSOLUTE
    ../clib/angel/sys.s                      0x00000000   Number         0  use_no_semi.o ABSOLUTE
    ../clib/angel/sys.s                      0x00000000   Number         0  indicate_semi.o ABSOLUTE
    ../clib/angel/sys.s                      0x00000000   Number         0  sys_stackheap_outer.o ABSOLUTE
    ../clib/angel/sys.s                      0x00000000   Number         0  libspace.o ABSOLUTE
    ../clib/angel/sysapp.c                   0x00000000   Number         0  sys_command.o ABSOLUTE
    ../clib/angel/sysapp.c                   0x00000000   Number         0  sys_exit.o ABSOLUTE
    ../clib/angel/sysapp.c                   0x00000000   Number         0  sys_wrch.o ABSOLUTE
    ../clib/armsys.c                         0x00000000   Number         0  _get_argv_nomalloc.o ABSOLUTE
    ../clib/armsys.c                         0x00000000   Number         0  no_argv.o ABSOLUTE
    ../clib/armsys.c                         0x00000000   Number         0  argv_veneer.o ABSOLUTE
    ../clib/armsys.c                         0x00000000   Number         0  argv_veneer.o ABSOLUTE
    ../clib/fenv.c                           0x00000000   Number         0  _rserrno.o ABSOLUTE
    ../clib/heapalloc.c                      0x00000000   Number         0  hrguard.o ABSOLUTE
    ../clib/heapaux.c                        0x00000000   Number         0  heapauxi.o ABSOLUTE
    ../clib/libinit.s                        0x00000000   Number         0  libshutdown.o ABSOLUTE
    ../clib/libinit.s                        0x00000000   Number         0  libinit2.o ABSOLUTE
    ../clib/libinit.s                        0x00000000   Number         0  libinit.o ABSOLUTE
    ../clib/libinit.s                        0x00000000   Number         0  libshutdown2.o ABSOLUTE
    ../clib/longlong.s                       0x00000000   Number         0  lludivv7m.o ABSOLUTE
    ../clib/longlong.s                       0x00000000   Number         0  llsdiv.o ABSOLUTE
    ../clib/signal.c                         0x00000000   Number         0  defsig_rtmem_outer.o ABSOLUTE
    ../clib/signal.c                         0x00000000   Number         0  defsig_fpe_formal.o ABSOLUTE
    ../clib/signal.c                         0x00000000   Number         0  defsig_fpe_outer.o ABSOLUTE
    ../clib/signal.c                         0x00000000   Number         0  defsig_abrt_inner.o ABSOLUTE
    ../clib/signal.c                         0x00000000   Number         0  defsig_segv_inner.o ABSOLUTE
    ../clib/signal.c                         0x00000000   Number         0  defsig_rtmem_inner.o ABSOLUTE
    ../clib/signal.c                         0x00000000   Number         0  defsig_other.o ABSOLUTE
    ../clib/signal.c                         0x00000000   Number         0  defsig_stak_inner.o ABSOLUTE
    ../clib/signal.c                         0x00000000   Number         0  defsig_rtmem_formal.o ABSOLUTE
    ../clib/signal.c                         0x00000000   Number         0  defsig_general.o ABSOLUTE
    ../clib/signal.c                         0x00000000   Number         0  __raise.o ABSOLUTE
    ../clib/signal.c                         0x00000000   Number         0  defsig_exit.o ABSOLUTE
    ../clib/signal.c                         0x00000000   Number         0  defsig_rtred_inner.o ABSOLUTE
    ../clib/signal.c                         0x00000000   Number         0  defsig_fpe_inner.o ABSOLUTE
    ../clib/signal.c                         0x00000000   Number         0  defsig_cppl_inner.o ABSOLUTE
    ../clib/signal.c                         0x00000000   Number         0  defsig_pvfn_inner.o ABSOLUTE
    ../clib/signal.s                         0x00000000   Number         0  defsig.o ABSOLUTE
    ../clib/stdlib.c                         0x00000000   Number         0  exit.o ABSOLUTE
    ../clib/string.c                         0x00000000   Number         0  strlen.o ABSOLUTE
    ../clib/string.c                         0x00000000   Number         0  strcpy.o ABSOLUTE
    ../clib/string.c                         0x00000000   Number         0  strcat.o ABSOLUTE
    ../fplib/basic.s                         0x00000000   Number         0  basic.o ABSOLUTE
    ../fplib/d2f.s                           0x00000000   Number         0  d2f.o ABSOLUTE
    ../fplib/daddsub.s                       0x00000000   Number         0  daddsub_clz.o ABSOLUTE
    ../fplib/dcheck1.s                       0x00000000   Number         0  dcheck1.o ABSOLUTE
    ../fplib/dcmpi.s                         0x00000000   Number         0  dcmpi.o ABSOLUTE
    ../fplib/ddiv.s                          0x00000000   Number         0  ddiv.o ABSOLUTE
    ../fplib/dflt.s                          0x00000000   Number         0  dflt_clz.o ABSOLUTE
    ../fplib/dleqf.s                         0x00000000   Number         0  dleqf.o ABSOLUTE
    ../fplib/dmul.s                          0x00000000   Number         0  dmul.o ABSOLUTE
    ../fplib/dnaninf.s                       0x00000000   Number         0  dnaninf.o ABSOLUTE
    ../fplib/dretinf.s                       0x00000000   Number         0  dretinf.o ABSOLUTE
    ../fplib/drleqf.s                        0x00000000   Number         0  drleqf.o ABSOLUTE
    ../fplib/dsqrt.s                         0x00000000   Number         0  dsqrt_umaal.o ABSOLUTE
    ../fplib/ffixll.s                        0x00000000   Number         0  ffixll.o ABSOLUTE
    ../fplib/fnaninf.s                       0x00000000   Number         0  fnaninf.o ABSOLUTE
    ../fplib/fpinit.s                        0x00000000   Number         0  fpinit.o ABSOLUTE
    ../fplib/fretinf.s                       0x00000000   Number         0  fretinf.o ABSOLUTE
    ../fplib/retnan.s                        0x00000000   Number         0  retnan.o ABSOLUTE
    ../fplib/scalbn.s                        0x00000000   Number         0  scalbn.o ABSOLUTE
    ../fplib/trapv.s                         0x00000000   Number         0  trapv.o ABSOLUTE
    ../fplib/usenofp.s                       0x00000000   Number         0  usenofp.o ABSOLUTE
    ../mathlib/dunder.c                      0x00000000   Number         0  dunder.o ABSOLUTE
    ../mathlib/fabs.c                        0x00000000   Number         0  fabs.o ABSOLUTE
    ../mathlib/fpclassify.c                  0x00000000   Number         0  fpclassify.o ABSOLUTE
    ../mathlib/poly.c                        0x00000000   Number         0  poly.o ABSOLUTE
    ../mathlib/pow.c                         0x00000000   Number         0  pow.o ABSOLUTE
    ../mathlib/pow.c                         0x00000000   Number         0  pow_x.o ABSOLUTE
    ../mathlib/qnan.c                        0x00000000   Number         0  qnan.o ABSOLUTE
    ../mathlib/sqrt.c                        0x00000000   Number         0  sqrt_x.o ABSOLUTE
    ../mathlib/sqrt.c                        0x00000000   Number         0  sqrt.o ABSOLUTE
    ..\HAL_CM.c                              0x00000000   Number         0  hal_cm.o ABSOLUTE
    ..\\rt_CMSIS.c                           0x00000000   Number         0  rt_cmsis.o ABSOLUTE
    ..\\rt_System.c                          0x00000000   Number         0  rt_system.o ABSOLUTE
    ..\rt_CMSIS.c                            0x00000000   Number         0  rt_cmsis.o ABSOLUTE
    ..\rt_Event.c                            0x00000000   Number         0  rt_event.o ABSOLUTE
    ..\rt_List.c                             0x00000000   Number         0  rt_list.o ABSOLUTE
    ..\rt_Mailbox.c                          0x00000000   Number         0  rt_mailbox.o ABSOLUTE
    ..\rt_MemBox.c                           0x00000000   Number         0  rt_membox.o ABSOLUTE
    ..\rt_Memory.c                           0x00000000   Number         0  rt_memory.o ABSOLUTE
    ..\rt_Mutex.c                            0x00000000   Number         0  rt_mutex.o ABSOLUTE
    ..\rt_Robin.c                            0x00000000   Number         0  rt_robin.o ABSOLUTE
    ..\rt_Semaphore.c                        0x00000000   Number         0  rt_semaphore.o ABSOLUTE
    ..\rt_System.c                           0x00000000   Number         0  rt_system.o ABSOLUTE
    ..\rt_Task.c                             0x00000000   Number         0  rt_task.o ABSOLUTE
    ..\rt_Time.c                             0x00000000   Number         0  rt_time.o ABSOLUTE
    Comunication.c                           0x00000000   Number         0  comunication.o ABSOLUTE
    Comunication.c                           0x00000000   Number         0  comunication.o ABSOLUTE
    HAL_CM4.c                                0x00000000   Number         0  hal_cm4.o ABSOLUTE
    HAL_CM4.c                                0x00000000   Number         0  hal_cm4.o ABSOLUTE
    Lab5.c                                   0x00000000   Number         0  lab5.o ABSOLUTE
    Lab5.c                                   0x00000000   Number         0  lab5.o ABSOLUTE
    RTE\CMSIS\RTX_Conf_CM.c                  0x00000000   Number         0  rtx_conf_cm.o ABSOLUTE
    RTE\Device\TM4C1294NCPDT\startup_TM4C129.s 0x00000000   Number         0  startup_tm4c129.o ABSOLUTE
    RTE\Device\TM4C1294NCPDT\system_TM4C129.c 0x00000000   Number         0  system_tm4c129.o ABSOLUTE
    RTE\\CMSIS\\RTX_Conf_CM.c                0x00000000   Number         0  rtx_conf_cm.o ABSOLUTE
    RTE\\Device\\TM4C1294NCPDT\\system_TM4C129.c 0x00000000   Number         0  system_tm4c129.o ABSOLUTE
    SVC_Table.s                              0x00000000   Number         0  svc_table.o ABSOLUTE
    Terminal.c                               0x00000000   Number         0  terminal.o ABSOLUTE
    Terminal.c                               0x00000000   Number         0  terminal.o ABSOLUTE
    Utils.c                                  0x00000000   Number         0  utils.o ABSOLUTE
    cfaf128x128x16.c                         0x00000000   Number         0  cfaf128x128x16.o ABSOLUTE
    cpu.c                                    0x00000000   Number         0  cpu.o ABSOLUTE
    cpu.c                                    0x00000000   Number         0  cpu.o ABSOLUTE
    dc.s                                     0x00000000   Number         0  dc.o ABSOLUTE
    interrupt.c                              0x00000000   Number         0  interrupt.o ABSOLUTE
    sysctl.c                                 0x00000000   Number         0  sysctl.o ABSOLUTE
    sysctl.c                                 0x00000000   Number         0  sysctl.o ABSOLUTE
    uart_functions.c                         0x00000000   Number         0  uart_functions.o ABSOLUTE
    uart_functions.c                         0x00000000   Number         0  uart_functions.o ABSOLUTE
    !!!main                                  0x00000200   Section        8  __main.o(!!!main)
    !!!scatter                               0x00000208   Section       52  __scatter.o(!!!scatter)
    !!handler_copy                           0x0000023c   Section       26  __scatter_copy.o(!!handler_copy)
    !!handler_zi                             0x00000258   Section       28  __scatter_zi.o(!!handler_zi)
    .ARM.Collect$$libinit$$00000000          0x00000274   Section        2  libinit.o(.ARM.Collect$$libinit$$00000000)
    .ARM.Collect$$libinit$$00000001          0x00000276   Section        4  libinit2.o(.ARM.Collect$$libinit$$00000001)
    .ARM.Collect$$libinit$$00000004          0x0000027a   Section        0  libinit2.o(.ARM.Collect$$libinit$$00000004)
    .ARM.Collect$$libinit$$0000000A          0x0000027a   Section        0  libinit2.o(.ARM.Collect$$libinit$$0000000A)
    .ARM.Collect$$libinit$$0000000C          0x0000027a   Section        0  libinit2.o(.ARM.Collect$$libinit$$0000000C)
    .ARM.Collect$$libinit$$0000000E          0x0000027a   Section        0  libinit2.o(.ARM.Collect$$libinit$$0000000E)
    .ARM.Collect$$libinit$$00000011          0x0000027a   Section        0  libinit2.o(.ARM.Collect$$libinit$$00000011)
    .ARM.Collect$$libinit$$00000013          0x0000027a   Section        0  libinit2.o(.ARM.Collect$$libinit$$00000013)
    .ARM.Collect$$libinit$$00000015          0x0000027a   Section        0  libinit2.o(.ARM.Collect$$libinit$$00000015)
    .ARM.Collect$$libinit$$00000017          0x0000027a   Section        0  libinit2.o(.ARM.Collect$$libinit$$00000017)
    .ARM.Collect$$libinit$$00000019          0x0000027a   Section        0  libinit2.o(.ARM.Collect$$libinit$$00000019)
    .ARM.Collect$$libinit$$0000001B          0x0000027a   Section        0  libinit2.o(.ARM.Collect$$libinit$$0000001B)
    .ARM.Collect$$libinit$$0000001D          0x0000027a   Section        0  libinit2.o(.ARM.Collect$$libinit$$0000001D)
    .ARM.Collect$$libinit$$0000001F          0x0000027a   Section        0  libinit2.o(.ARM.Collect$$libinit$$0000001F)
    .ARM.Collect$$libinit$$00000021          0x0000027a   Section        0  libinit2.o(.ARM.Collect$$libinit$$00000021)
    .ARM.Collect$$libinit$$00000023          0x0000027a   Section        0  libinit2.o(.ARM.Collect$$libinit$$00000023)
    .ARM.Collect$$libinit$$00000025          0x0000027a   Section        0  libinit2.o(.ARM.Collect$$libinit$$00000025)
    .ARM.Collect$$libinit$$0000002C          0x0000027a   Section        0  libinit2.o(.ARM.Collect$$libinit$$0000002C)
    .ARM.Collect$$libinit$$0000002E          0x0000027a   Section        0  libinit2.o(.ARM.Collect$$libinit$$0000002E)
    .ARM.Collect$$libinit$$00000030          0x0000027a   Section        0  libinit2.o(.ARM.Collect$$libinit$$00000030)
    .ARM.Collect$$libinit$$00000032          0x0000027a   Section        0  libinit2.o(.ARM.Collect$$libinit$$00000032)
    .ARM.Collect$$libinit$$00000033          0x0000027a   Section        2  libinit2.o(.ARM.Collect$$libinit$$00000033)
    .ARM.Collect$$libshutdown$$00000000      0x0000027c   Section        2  libshutdown.o(.ARM.Collect$$libshutdown$$00000000)
    .ARM.Collect$$libshutdown$$00000002      0x0000027e   Section        0  libshutdown2.o(.ARM.Collect$$libshutdown$$00000002)
    .ARM.Collect$$libshutdown$$00000004      0x0000027e   Section        0  libshutdown2.o(.ARM.Collect$$libshutdown$$00000004)
    .ARM.Collect$$libshutdown$$00000007      0x0000027e   Section        0  libshutdown2.o(.ARM.Collect$$libshutdown$$00000007)
    .ARM.Collect$$libshutdown$$0000000A      0x0000027e   Section        0  libshutdown2.o(.ARM.Collect$$libshutdown$$0000000A)
    .ARM.Collect$$libshutdown$$0000000C      0x0000027e   Section        0  libshutdown2.o(.ARM.Collect$$libshutdown$$0000000C)
    .ARM.Collect$$libshutdown$$0000000F      0x0000027e   Section        0  libshutdown2.o(.ARM.Collect$$libshutdown$$0000000F)
    .ARM.Collect$$libshutdown$$00000010      0x0000027e   Section        2  libshutdown2.o(.ARM.Collect$$libshutdown$$00000010)
    .ARM.Collect$$rtentry$$00000000          0x00000280   Section        0  __rtentry.o(.ARM.Collect$$rtentry$$00000000)
    .ARM.Collect$$rtentry$$00000002          0x00000280   Section        0  __rtentry2.o(.ARM.Collect$$rtentry$$00000002)
    .ARM.Collect$$rtentry$$00000004          0x00000280   Section        6  __rtentry4.o(.ARM.Collect$$rtentry$$00000004)
    .ARM.Collect$$rtentry$$00000009          0x00000286   Section        0  __rtentry2.o(.ARM.Collect$$rtentry$$00000009)
    .ARM.Collect$$rtentry$$0000000A          0x00000286   Section        4  __rtentry2.o(.ARM.Collect$$rtentry$$0000000A)
    .ARM.Collect$$rtentry$$0000000B          0x0000028a   Section        8  __rtentry2.o(.ARM.Collect$$rtentry$$0000000B)
    .ARM.Collect$$rtentry$$0000000D          0x00000292   Section        8  __rtentry2.o(.ARM.Collect$$rtentry$$0000000D)
    .ARM.Collect$$rtexit$$00000000           0x0000029a   Section        2  rtexit.o(.ARM.Collect$$rtexit$$00000000)
    .ARM.Collect$$rtexit$$00000002           0x0000029c   Section        0  rtexit2.o(.ARM.Collect$$rtexit$$00000002)
    .ARM.Collect$$rtexit$$00000003           0x0000029c   Section        4  rtexit2.o(.ARM.Collect$$rtexit$$00000003)
    .ARM.Collect$$rtexit$$00000004           0x000002a0   Section        6  rtexit2.o(.ARM.Collect$$rtexit$$00000004)
    .emb_text                                0x000002a8   Section       28  rtx_conf_cm.o(.emb_text)
    $v0                                      0x000002a8   Number         0  rtx_conf_cm.o(.emb_text)
    .emb_text                                0x000002c4   Section      408  hal_cm4.o(.emb_text)
    $v0                                      0x000002c4   Number         0  hal_cm4.o(.emb_text)
    .text                                    0x0000045c   Section        0  uart_functions.o(.text)
    .text                                    0x00000518   Section        0  comunication.o(.text)
    .text                                    0x00000538   Section        0  utils.o(.text)
    .text                                    0x00000734   Section        0  lab5.o(.text)
    .text                                    0x00000b34   Section        0  cfaf128x128x16.o(.text)
    swap_ui16                                0x00000b35   Thumb Code    10  cfaf128x128x16.o(.text)
    swap_i32                                 0x00000b3f   Thumb Code    10  cfaf128x128x16.o(.text)
    cfaf128x128x16SsiTransfer                0x00000b49   Thumb Code    56  cfaf128x128x16.o(.text)
    cfaf128x128x16WriteCommand               0x00000b81   Thumb Code    60  cfaf128x128x16.o(.text)
    cfaf128x128x16WriteData                  0x00000bbd   Thumb Code    74  cfaf128x128x16.o(.text)
    cfaf128x128x16WriteRegister              0x00000c07   Thumb Code    20  cfaf128x128x16.o(.text)
    cfaf128x128x16SetWindow                  0x00000c1b   Thumb Code   206  cfaf128x128x16.o(.text)
    cfaf128x128x16PixelDraw                  0x00000dd9   Thumb Code    28  cfaf128x128x16.o(.text)
    cfaf128x128x16PixelDrawMultiple          0x00000df5   Thumb Code   490  cfaf128x128x16.o(.text)
    cfaf128x128x16LineDrawH                  0x00000fdf   Thumb Code    48  cfaf128x128x16.o(.text)
    cfaf128x128x16LineDrawV                  0x0000100f   Thumb Code    48  cfaf128x128x16.o(.text)
    cfaf128x128x16RectFill                   0x0000103f   Thumb Code   100  cfaf128x128x16.o(.text)
    cfaf128x128x16ColorTranslate             0x000010a3   Thumb Code    24  cfaf128x128x16.o(.text)
    cfaf128x128x16Flush                      0x000010bb   Thumb Code     2  cfaf128x128x16.o(.text)
    ssiSetDataMode                           0x00001135   Thumb Code    22  cfaf128x128x16.o(.text)
    ssiSetClockDivider                       0x0000114b   Thumb Code     6  cfaf128x128x16.o(.text)
    .text                                    0x000013d4   Section        0  rtx_conf_cm.o(.text)
    __tagsym$$used                           0x0000143b   Number         0  rtx_conf_cm.o(.text)
    __tagsym$$used                           0x00001451   Number         0  rtx_conf_cm.o(.text)
    .text                                    0x00001480   Section      304  startup_tm4c129.o(.text)
    $v0                                      0x00001480   Number         0  startup_tm4c129.o(.text)
    .text                                    0x000015b0   Section        0  system_tm4c129.o(.text)
    .text                                    0x000015d8   Section        8  libspace.o(.text)
    .text                                    0x000015e0   Section      238  lludivv7m.o(.text)
    .text                                    0x000016ce   Section       72  llsdiv.o(.text)
    .text                                    0x00001716   Section        0  exit.o(.text)
    .text                                    0x00001728   Section        0  strlen.o(.text)
    .text                                    0x00001766   Section        0  heapauxi.o(.text)
    .text                                    0x0000176c   Section        0  _rserrno.o(.text)
    .text                                    0x00001782   Section        4  rt_errno_addr_twolibspace.o(.text)
    .text                                    0x00001788   Section        0  sys_exit.o(.text)
    .text                                    0x00001794   Section       74  sys_stackheap_outer.o(.text)
    .text                                    0x000017de   Section        2  use_no_semi.o(.text)
    .text                                    0x000017e0   Section        0  indicate_semi.o(.text)
    SVC_TABLE                                0x000017e0   Section        4  svc_table.o(SVC_TABLE)
    i.SysCtlClockFreqSet                     0x000017e4   Section        0  sysctl.o(i.SysCtlClockFreqSet)
    i.__ARM_fpclassify                       0x00001ad0   Section        0  fpclassify.o(i.__ARM_fpclassify)
    i.__hardfp_pow                           0x00001b00   Section        0  pow.o(i.__hardfp_pow)
    i.__kernel_poly                          0x00002750   Section        0  poly.o(i.__kernel_poly)
    i.__mathlib_dbl_divzero                  0x00002848   Section        0  dunder.o(i.__mathlib_dbl_divzero)
    i.__mathlib_dbl_infnan2                  0x00002878   Section        0  dunder.o(i.__mathlib_dbl_infnan2)
    i.__mathlib_dbl_invalid                  0x00002890   Section        0  dunder.o(i.__mathlib_dbl_invalid)
    i.__mathlib_dbl_overflow                 0x000028b0   Section        0  dunder.o(i.__mathlib_dbl_overflow)
    i.__mathlib_dbl_underflow                0x000028d0   Section        0  dunder.o(i.__mathlib_dbl_underflow)
    i._init_box                              0x000028f0   Section        0  rt_membox.o(i._init_box)
    i.dbg_init                               0x00002938   Section        0  hal_cm.o(i.dbg_init)
    i.dbg_task_notify                        0x00002968   Section        0  hal_cm.o(i.dbg_task_notify)
    i.dbg_task_switch                        0x00002988   Section        0  hal_cm.o(i.dbg_task_switch)
    i.fabs                                   0x00002998   Section        0  fabs.o(i.fabs)
    i.isrMessageGet                          0x000029b0   Section        0  rt_cmsis.o(i.isrMessageGet)
    i.isrMessagePut                          0x000029da   Section        0  rt_cmsis.o(i.isrMessagePut)
    i.isr_mbx_receive                        0x00002a08   Section        0  rt_mailbox.o(i.isr_mbx_receive)
    i.isr_mbx_send                           0x00002a5e   Section        0  rt_mailbox.o(i.isr_mbx_send)
    i.osDelay                                0x00002a6c   Section        0  rt_cmsis.o(i.osDelay)
    i.osKernelInitialize                     0x00002a84   Section        0  rt_cmsis.o(i.osKernelInitialize)
    i.osKernelStart                          0x00002aa8   Section        0  rt_cmsis.o(i.osKernelStart)
    i.osKernelSysTick                        0x00002b14   Section        0  rt_cmsis.o(i.osKernelSysTick)
    i.osMessageGet                           0x00002b2c   Section        0  rt_cmsis.o(i.osMessageGet)
    i.osThreadCreate                         0x00002b44   Section        0  rt_cmsis.o(i.osThreadCreate)
    i.osThreadExit                           0x00002b70   Section        0  rt_cmsis.o(i.osThreadExit)
    i.osTimerCall                            0x00002b88   Section        0  rt_cmsis.o(i.osTimerCall)
    i.osTimerThread                          0x00002b94   Section        0  rt_cmsis.o(i.osTimerThread)
    i.os_tick_init                           0x00002bc0   Section        0  rt_system.o(i.os_tick_init)
    i.os_tick_irqack                         0x00002be8   Section        0  rt_system.o(i.os_tick_irqack)
    i.os_tick_ovf                            0x00002bec   Section        0  rt_system.o(i.os_tick_ovf)
    i.os_tick_val                            0x00002bfc   Section        0  rt_system.o(i.os_tick_val)
    i.rt_alloc_box                           0x00002c10   Section        0  rt_membox.o(i.rt_alloc_box)
    i.rt_alloc_mem                           0x00002c2a   Section        0  rt_memory.o(i.rt_alloc_mem)
    i.rt_block                               0x00002c68   Section        0  rt_task.o(i.rt_block)
    i.rt_chk_robin                           0x00002ca0   Section        0  rt_robin.o(i.rt_chk_robin)
    i.rt_dec_dly                             0x00002ce8   Section        0  rt_list.o(i.rt_dec_dly)
    i.rt_dispatch                            0x00002d58   Section        0  rt_task.o(i.rt_dispatch)
    i.rt_dly_wait                            0x00002d9c   Section        0  rt_time.o(i.rt_dly_wait)
    i.rt_evt_psh                             0x00002da4   Section        0  rt_event.o(i.rt_evt_psh)
    i.rt_free_box                            0x00002df4   Section        0  rt_membox.o(i.rt_free_box)
    i.rt_free_mem                            0x00002e20   Section        0  rt_memory.o(i.rt_free_mem)
    i.rt_get_first                           0x00002e48   Section        0  rt_list.o(i.rt_get_first)
    i.rt_id2obj                              0x00002e70   Section        0  rt_cmsis.o(i.rt_id2obj)
    rt_id2obj                                0x00002e71   Thumb Code     8  rt_cmsis.o(i.rt_id2obj)
    i.rt_init_context                        0x00002e78   Section        0  rt_task.o(i.rt_init_context)
    rt_init_context                          0x00002e79   Thumb Code    66  rt_task.o(i.rt_init_context)
    i.rt_init_mem                            0x00002ec0   Section        0  rt_memory.o(i.rt_init_mem)
    i.rt_init_robin                          0x00002edc   Section        0  rt_robin.o(i.rt_init_robin)
    i.rt_init_stack                          0x00002ef4   Section        0  hal_cm.o(i.rt_init_stack)
    i.rt_mbx_check                           0x00002f74   Section        0  rt_mailbox.o(i.rt_mbx_check)
    i.rt_mbx_init                            0x00002f7c   Section        0  rt_mailbox.o(i.rt_mbx_init)
    i.rt_mbx_psh                             0x00002f98   Section        0  rt_mailbox.o(i.rt_mbx_psh)
    i.rt_mbx_wait                            0x00003088   Section        0  rt_mailbox.o(i.rt_mbx_wait)
    i.rt_ms2tick                             0x0000313c   Section        0  rt_cmsis.o(i.rt_ms2tick)
    rt_ms2tick                               0x0000313d   Thumb Code    58  rt_cmsis.o(i.rt_ms2tick)
    i.rt_mut_init                            0x00003180   Section        0  rt_mutex.o(i.rt_mut_init)
    i.rt_mut_release                         0x00003190   Section        0  rt_mutex.o(i.rt_mut_release)
    i.rt_mut_wait                            0x00003268   Section        0  rt_mutex.o(i.rt_mut_wait)
    i.rt_pop_req                             0x000032e0   Section        0  rt_system.o(i.rt_pop_req)
    i.rt_psh_req                             0x0000335c   Section        0  rt_system.o(i.rt_psh_req)
    i.rt_psq_enq                             0x0000337c   Section        0  rt_list.o(i.rt_psq_enq)
    i.rt_put_dly                             0x000033d8   Section        0  rt_list.o(i.rt_put_dly)
    i.rt_put_prio                            0x00003420   Section        0  rt_list.o(i.rt_put_prio)
    i.rt_put_rdy_first                       0x00003458   Section        0  rt_list.o(i.rt_put_rdy_first)
    i.rt_resort_prio                         0x0000346c   Section        0  rt_list.o(i.rt_resort_prio)
    i.rt_ret_regs                            0x000034a0   Section        0  hal_cm.o(i.rt_ret_regs)
    rt_ret_regs                              0x000034a1   Thumb Code    16  hal_cm.o(i.rt_ret_regs)
    i.rt_ret_val                             0x000034b0   Section        0  hal_cm.o(i.rt_ret_val)
    i.rt_ret_val2                            0x000034bc   Section        0  hal_cm.o(i.rt_ret_val2)
    i.rt_rmv_dly                             0x000034cc   Section        0  rt_list.o(i.rt_rmv_dly)
    i.rt_rmv_list                            0x000034f4   Section        0  rt_list.o(i.rt_rmv_list)
    i.rt_sem_psh                             0x00003524   Section        0  rt_semaphore.o(i.rt_sem_psh)
    i.rt_stk_check                           0x00003558   Section        0  rt_system.o(i.rt_stk_check)
    i.rt_switch_req                          0x0000357c   Section        0  rt_task.o(i.rt_switch_req)
    i.rt_sys_init                            0x000035a4   Section        0  rt_task.o(i.rt_sys_init)
    i.rt_sys_start                           0x00003670   Section        0  rt_task.o(i.rt_sys_start)
    i.rt_systick                             0x000036e8   Section        0  rt_system.o(i.rt_systick)
    i.rt_tid2ptcb                            0x00003728   Section        0  rt_cmsis.o(i.rt_tid2ptcb)
    rt_tid2ptcb                              0x00003729   Thumb Code    18  rt_cmsis.o(i.rt_tid2ptcb)
    i.rt_timer_insert                        0x0000373c   Section        0  rt_cmsis.o(i.rt_timer_insert)
    rt_timer_insert                          0x0000373d   Thumb Code    48  rt_cmsis.o(i.rt_timer_insert)
    i.rt_tsk_create                          0x00003770   Section        0  rt_task.o(i.rt_tsk_create)
    i.rt_tsk_delete                          0x000037f8   Section        0  rt_task.o(i.rt_tsk_delete)
    i.rt_tsk_prio                            0x00003974   Section        0  rt_task.o(i.rt_tsk_prio)
    i.rt_tsk_self                            0x000039f0   Section        0  rt_task.o(i.rt_tsk_self)
    i.sqrt                                   0x00003a00   Section        0  sqrt.o(i.sqrt)
    i.svcDelay                               0x00003a6e   Section        0  rt_cmsis.o(i.svcDelay)
    i.svcKernelInitialize                    0x00003a80   Section        0  rt_cmsis.o(i.svcKernelInitialize)
    i.svcKernelStart                         0x00003af0   Section        0  rt_cmsis.o(i.svcKernelStart)
    i.svcKernelSysTick                       0x00003b38   Section        0  rt_cmsis.o(i.svcKernelSysTick)
    i.svcMessageCreate                       0x00003b70   Section        0  rt_cmsis.o(i.svcMessageCreate)
    i.svcMessageGet                          0x00003b94   Section        0  rt_cmsis.o(i.svcMessageGet)
    i.svcThreadCreate                        0x00003bd0   Section        0  rt_cmsis.o(i.svcThreadCreate)
    i.svcThreadGetId                         0x00003c3c   Section        0  rt_cmsis.o(i.svcThreadGetId)
    i.svcThreadTerminate                     0x00003c58   Section        0  rt_cmsis.o(i.svcThreadTerminate)
    i.svcTimerCall                           0x00003c90   Section        0  rt_cmsis.o(i.svcTimerCall)
    i.sysTimerTick                           0x00003ca8   Section        0  rt_cmsis.o(i.sysTimerTick)
    x$fpl$basic                              0x00003d04   Section       24  basic.o(x$fpl$basic)
    $v0                                      0x00003d04   Number         0  basic.o(x$fpl$basic)
    x$fpl$d2f                                0x00003d1c   Section       98  d2f.o(x$fpl$d2f)
    $v0                                      0x00003d1c   Number         0  d2f.o(x$fpl$d2f)
    x$fpl$dadd                               0x00003d80   Section      336  daddsub_clz.o(x$fpl$dadd)
    $v0                                      0x00003d80   Number         0  daddsub_clz.o(x$fpl$dadd)
    _dadd1                                   0x00003d91   Thumb Code     0  daddsub_clz.o(x$fpl$dadd)
    x$fpl$dcheck1                            0x00003ed0   Section       16  dcheck1.o(x$fpl$dcheck1)
    $v0                                      0x00003ed0   Number         0  dcheck1.o(x$fpl$dcheck1)
    x$fpl$dcmpinf                            0x00003ee0   Section       24  dcmpi.o(x$fpl$dcmpinf)
    $v0                                      0x00003ee0   Number         0  dcmpi.o(x$fpl$dcmpinf)
    x$fpl$ddiv                               0x00003ef8   Section      688  ddiv.o(x$fpl$ddiv)
    $v0                                      0x00003ef8   Number         0  ddiv.o(x$fpl$ddiv)
    ddiv_entry                               0x00003eff   Thumb Code     0  ddiv.o(x$fpl$ddiv)
    x$fpl$dflt                               0x000041a8   Section       46  dflt_clz.o(x$fpl$dflt)
    $v0                                      0x000041a8   Number         0  dflt_clz.o(x$fpl$dflt)
    x$fpl$dfltu                              0x000041d6   Section       38  dflt_clz.o(x$fpl$dfltu)
    $v0                                      0x000041d6   Number         0  dflt_clz.o(x$fpl$dfltu)
    x$fpl$dleqf                              0x000041fc   Section      120  dleqf.o(x$fpl$dleqf)
    $v0                                      0x000041fc   Number         0  dleqf.o(x$fpl$dleqf)
    x$fpl$dmul                               0x00004274   Section      340  dmul.o(x$fpl$dmul)
    $v0                                      0x00004274   Number         0  dmul.o(x$fpl$dmul)
    x$fpl$dnaninf                            0x000043c8   Section      156  dnaninf.o(x$fpl$dnaninf)
    $v0                                      0x000043c8   Number         0  dnaninf.o(x$fpl$dnaninf)
    x$fpl$dretinf                            0x00004464   Section       12  dretinf.o(x$fpl$dretinf)
    $v0                                      0x00004464   Number         0  dretinf.o(x$fpl$dretinf)
    x$fpl$drleqf                             0x00004470   Section      108  drleqf.o(x$fpl$drleqf)
    $v0                                      0x00004470   Number         0  drleqf.o(x$fpl$drleqf)
    x$fpl$drsb                               0x000044dc   Section       22  daddsub_clz.o(x$fpl$drsb)
    $v0                                      0x000044dc   Number         0  daddsub_clz.o(x$fpl$drsb)
    x$fpl$dsqrt                              0x000044f4   Section      408  dsqrt_umaal.o(x$fpl$dsqrt)
    $v0                                      0x000044f4   Number         0  dsqrt_umaal.o(x$fpl$dsqrt)
    x$fpl$dsub                               0x0000468c   Section      468  daddsub_clz.o(x$fpl$dsub)
    $v0                                      0x0000468c   Number         0  daddsub_clz.o(x$fpl$dsub)
    _dsub1                                   0x0000469d   Thumb Code     0  daddsub_clz.o(x$fpl$dsub)
    x$fpl$fnaninf                            0x00004860   Section      140  fnaninf.o(x$fpl$fnaninf)
    $v0                                      0x00004860   Number         0  fnaninf.o(x$fpl$fnaninf)
    x$fpl$fpinit                             0x000048ec   Section       10  fpinit.o(x$fpl$fpinit)
    $v0                                      0x000048ec   Number         0  fpinit.o(x$fpl$fpinit)
    x$fpl$fretinf                            0x000048f6   Section       10  fretinf.o(x$fpl$fretinf)
    $v0                                      0x000048f6   Number         0  fretinf.o(x$fpl$fretinf)
    x$fpl$llsfromf                           0x00004900   Section      134  ffixll.o(x$fpl$llsfromf)
    $v0                                      0x00004900   Number         0  ffixll.o(x$fpl$llsfromf)
    x$fpl$retnan                             0x00004986   Section      100  retnan.o(x$fpl$retnan)
    $v0                                      0x00004986   Number         0  retnan.o(x$fpl$retnan)
    x$fpl$scalbn                             0x000049ea   Section       92  scalbn.o(x$fpl$scalbn)
    $v0                                      0x000049ea   Number         0  scalbn.o(x$fpl$scalbn)
    x$fpl$trapveneer                         0x00004a46   Section       48  trapv.o(x$fpl$trapveneer)
    $v0                                      0x00004a46   Number         0  trapv.o(x$fpl$trapveneer)
    x$fpl$usenofp                            0x00004a76   Section        0  usenofp.o(x$fpl$usenofp)
    .constdata                               0x00004a78   Section       96  lab5.o(.constdata)
    .constdata                               0x00004ad8   Section      104  rtx_conf_cm.o(.constdata)
    __tagsym$$used                           0x00004af4   Number         0  rtx_conf_cm.o(.constdata)
    __tagsym$$used                           0x00004af8   Number         0  rtx_conf_cm.o(.constdata)
    __tagsym$$used                           0x00004afc   Number         0  rtx_conf_cm.o(.constdata)
    __tagsym$$used                           0x00004b00   Number         0  rtx_conf_cm.o(.constdata)
    .constdata                               0x00004b40   Section      596  sysctl.o(.constdata)
    g_pui32VCOFrequencies                    0x00004b40   Data           8  sysctl.o(.constdata)
    g_pui32Xtals                             0x00004b48   Data         108  sysctl.o(.constdata)
    g_pppui32XTALtoVCO                       0x00004bb4   Data         432  sysctl.o(.constdata)
    g_sXTALtoMEMTIM                          0x00004d64   Data          48  sysctl.o(.constdata)
    .constdata                               0x00004d98   Section      136  pow.o(.constdata)
    bp                                       0x00004d98   Data          16  pow.o(.constdata)
    dp_h                                     0x00004da8   Data          16  pow.o(.constdata)
    dp_l                                     0x00004db8   Data          16  pow.o(.constdata)
    L                                        0x00004dc8   Data          48  pow.o(.constdata)
    P                                        0x00004df8   Data          40  pow.o(.constdata)
    .constdata                               0x00004e20   Section        8  qnan.o(.constdata)
    .conststring                             0x00004e28   Section       37  utils.o(.conststring)
    .data                                    0x20000000   Section        8  utils.o(.data)
    pAscii                                   0x20000000   Data           4  utils.o(.data)
    pAscii                                   0x20000004   Data           4  utils.o(.data)
    .data                                    0x20000008   Section       40  lab5.o(.data)
    .data                                    0x20000030   Section        5  cfaf128x128x16.o(.data)
    g_ui32SysClock                           0x20000030   Data           4  cfaf128x128x16.o(.data)
    _orientation                             0x20000034   Data           1  cfaf128x128x16.o(.data)
    .data                                    0x20000038   Section       20  rtx_conf_cm.o(.data)
    nr_mutex                                 0x20000048   Data           4  rtx_conf_cm.o(.data)
    .data                                    0x2000004c   Section        4  system_tm4c129.o(.data)
    .data                                    0x20000050   Section        8  rt_cmsis.o(.data)
    .data                                    0x20000058   Section        8  rt_task.o(.data)
    .data                                    0x20000060   Section        8  rt_system.o(.data)
    os_lock                                  0x20000060   Data           1  rt_system.o(.data)
    os_psh_flag                              0x20000061   Data           1  rt_system.o(.data)
    pend_flags                               0x20000062   Data           1  rt_system.o(.data)
    .data                                    0x20000068   Section        4  rt_time.o(.data)
    .data                                    0x2000006c   Section        8  rt_robin.o(.data)
    .data                                    0x20000074   Section        1  hal_cm.o(.data)
    .bss                                     0x20000078   Section       54  lab5.o(.bss)
    .bss                                     0x200000b0   Section     9120  rtx_conf_cm.o(.bss)
    std_libspace                             0x20002070   Data         864  rtx_conf_cm.o(.bss)
    std_libmutex                             0x200023d0   Data         128  rtx_conf_cm.o(.bss)
    .bss                                     0x20002450   Section       52  rt_task.o(.bss)
    .bss                                     0x20002484   Section       48  rt_list.o(.bss)
    .bss                                     0x200024b4   Section       96  libspace.o(.bss)
    HEAP                                     0x20002518   Section    36864  startup_tm4c129.o(HEAP)
    Heap_Mem                                 0x20002518   Data       36864  startup_tm4c129.o(HEAP)
    STACK                                    0x2000b518   Section      512  startup_tm4c129.o(STACK)
    Stack_Mem                                0x2000b518   Data         512  startup_tm4c129.o(STACK)
    __initial_sp                             0x2000b718   Data           0  startup_tm4c129.o(STACK)

    Global Symbols

    Symbol Name                              Value     Ov Type        Size  Object(Section)

    BuildAttributes$$THM_ISAv4$E$P$D$K$B$S$7EM$VFPi3$EXTD16$VFPS$VFMA$PE$A:L22UL41UL21$X:L11$S22US41US21$IEEE1$IW$USESV6$~STKCKD$USESV7$~SHL$OTIME$ROPI$IEEEX$EBA8$UX$STANDARDLIB$REQ8$PRES8$EABIv2 0x00000000   Number         0  anon$$obj.o ABSOLUTE
    __ARM_use_no_argv                        0x00000000   Number         0  lab5.o ABSOLUTE
    __Vectors                                0x00000000   Data           4  startup_tm4c129.o(RESET)
    __ARM_exceptions_init                     - Undefined Weak Reference
    __alloca_initialize                       - Undefined Weak Reference
    __arm_preinit_                            - Undefined Weak Reference
    __cpp_initialize__aeabi_                  - Undefined Weak Reference
    __cxa_finalize                            - Undefined Weak Reference
    __rt_locale                               - Undefined Weak Reference
    __sigvec_lookup                           - Undefined Weak Reference
    _atexit_init                              - Undefined Weak Reference
    _call_atexit_fns                          - Undefined Weak Reference
    _clock_init                               - Undefined Weak Reference
    _fp_trap_init                             - Undefined Weak Reference
    _fp_trap_shutdown                         - Undefined Weak Reference
    _get_lc_collate                           - Undefined Weak Reference
    _get_lc_ctype                             - Undefined Weak Reference
    _get_lc_monetary                          - Undefined Weak Reference
    _get_lc_numeric                           - Undefined Weak Reference
    _get_lc_time                              - Undefined Weak Reference
    _getenv_init                              - Undefined Weak Reference
    _handle_redirection                       - Undefined Weak Reference
    _init_alloc                               - Undefined Weak Reference
    _init_user_alloc                          - Undefined Weak Reference
    _initio                                   - Undefined Weak Reference
    _rand_init                                - Undefined Weak Reference
    _signal_finish                            - Undefined Weak Reference
    _signal_init                              - Undefined Weak Reference
    _terminate_alloc                          - Undefined Weak Reference
    _terminate_user_alloc                     - Undefined Weak Reference
    _terminateio                              - Undefined Weak Reference
    __Vectors_End                            0x00000200   Data           0  startup_tm4c129.o(RESET)
    __Vectors_Size                           0x00000200   Number         0  startup_tm4c129.o ABSOLUTE
    __main                                   0x00000201   Thumb Code     8  __main.o(!!!main)
    __scatterload                            0x00000209   Thumb Code     0  __scatter.o(!!!scatter)
    __scatterload_rt2                        0x00000209   Thumb Code    44  __scatter.o(!!!scatter)
    __scatterload_rt2_thumb_only             0x00000209   Thumb Code     0  __scatter.o(!!!scatter)
    __scatterload_null                       0x00000217   Thumb Code     0  __scatter.o(!!!scatter)
    __scatterload_copy                       0x0000023d   Thumb Code    26  __scatter_copy.o(!!handler_copy)
    __scatterload_zeroinit                   0x00000259   Thumb Code    28  __scatter_zi.o(!!handler_zi)
    __rt_lib_init                            0x00000275   Thumb Code     0  libinit.o(.ARM.Collect$$libinit$$00000000)
    __rt_lib_init_fp_1                       0x00000277   Thumb Code     0  libinit2.o(.ARM.Collect$$libinit$$00000001)
    __rt_lib_init_alloca_1                   0x0000027b   Thumb Code     0  libinit2.o(.ARM.Collect$$libinit$$0000002E)
    __rt_lib_init_argv_1                     0x0000027b   Thumb Code     0  libinit2.o(.ARM.Collect$$libinit$$0000002C)
    __rt_lib_init_atexit_1                   0x0000027b   Thumb Code     0  libinit2.o(.ARM.Collect$$libinit$$0000001B)
    __rt_lib_init_clock_1                    0x0000027b   Thumb Code     0  libinit2.o(.ARM.Collect$$libinit$$00000021)
    __rt_lib_init_cpp_1                      0x0000027b   Thumb Code     0  libinit2.o(.ARM.Collect$$libinit$$00000032)
    __rt_lib_init_exceptions_1               0x0000027b   Thumb Code     0  libinit2.o(.ARM.Collect$$libinit$$00000030)
    __rt_lib_init_fp_trap_1                  0x0000027b   Thumb Code     0  libinit2.o(.ARM.Collect$$libinit$$0000001F)
    __rt_lib_init_getenv_1                   0x0000027b   Thumb Code     0  libinit2.o(.ARM.Collect$$libinit$$00000023)
    __rt_lib_init_heap_1                     0x0000027b   Thumb Code     0  libinit2.o(.ARM.Collect$$libinit$$0000000A)
    __rt_lib_init_lc_collate_1               0x0000027b   Thumb Code     0  libinit2.o(.ARM.Collect$$libinit$$00000011)
    __rt_lib_init_lc_ctype_1                 0x0000027b   Thumb Code     0  libinit2.o(.ARM.Collect$$libinit$$00000013)
    __rt_lib_init_lc_monetary_1              0x0000027b   Thumb Code     0  libinit2.o(.ARM.Collect$$libinit$$00000015)
    __rt_lib_init_lc_numeric_1               0x0000027b   Thumb Code     0  libinit2.o(.ARM.Collect$$libinit$$00000017)
    __rt_lib_init_lc_time_1                  0x0000027b   Thumb Code     0  libinit2.o(.ARM.Collect$$libinit$$00000019)
    __rt_lib_init_preinit_1                  0x0000027b   Thumb Code     0  libinit2.o(.ARM.Collect$$libinit$$00000004)
    __rt_lib_init_rand_1                     0x0000027b   Thumb Code     0  libinit2.o(.ARM.Collect$$libinit$$0000000E)
    __rt_lib_init_return                     0x0000027b   Thumb Code     0  libinit2.o(.ARM.Collect$$libinit$$00000033)
    __rt_lib_init_signal_1                   0x0000027b   Thumb Code     0  libinit2.o(.ARM.Collect$$libinit$$0000001D)
    __rt_lib_init_stdio_1                    0x0000027b   Thumb Code     0  libinit2.o(.ARM.Collect$$libinit$$00000025)
    __rt_lib_init_user_alloc_1               0x0000027b   Thumb Code     0  libinit2.o(.ARM.Collect$$libinit$$0000000C)
    __rt_lib_shutdown                        0x0000027d   Thumb Code     0  libshutdown.o(.ARM.Collect$$libshutdown$$00000000)
    __rt_lib_shutdown_cpp_1                  0x0000027f   Thumb Code     0  libshutdown2.o(.ARM.Collect$$libshutdown$$00000002)
    __rt_lib_shutdown_fp_trap_1              0x0000027f   Thumb Code     0  libshutdown2.o(.ARM.Collect$$libshutdown$$00000007)
    __rt_lib_shutdown_heap_1                 0x0000027f   Thumb Code     0  libshutdown2.o(.ARM.Collect$$libshutdown$$0000000F)
    __rt_lib_shutdown_return                 0x0000027f   Thumb Code     0  libshutdown2.o(.ARM.Collect$$libshutdown$$00000010)
    __rt_lib_shutdown_signal_1               0x0000027f   Thumb Code     0  libshutdown2.o(.ARM.Collect$$libshutdown$$0000000A)
    __rt_lib_shutdown_stdio_1                0x0000027f   Thumb Code     0  libshutdown2.o(.ARM.Collect$$libshutdown$$00000004)
    __rt_lib_shutdown_user_alloc_1           0x0000027f   Thumb Code     0  libshutdown2.o(.ARM.Collect$$libshutdown$$0000000C)
    __rt_entry                               0x00000281   Thumb Code     0  __rtentry.o(.ARM.Collect$$rtentry$$00000000)
    __rt_entry_presh_1                       0x00000281   Thumb Code     0  __rtentry2.o(.ARM.Collect$$rtentry$$00000002)
    __rt_entry_sh                            0x00000281   Thumb Code     0  __rtentry4.o(.ARM.Collect$$rtentry$$00000004)
    __rt_entry_li                            0x00000287   Thumb Code     0  __rtentry2.o(.ARM.Collect$$rtentry$$0000000A)
    __rt_entry_postsh_1                      0x00000287   Thumb Code     0  __rtentry2.o(.ARM.Collect$$rtentry$$00000009)
    __rt_entry_postli_1                      0x0000028b   Thumb Code     0  __rtentry2.o(.ARM.Collect$$rtentry$$0000000B)
    __rt_entry_main                          0x00000293   Thumb Code     0  __rtentry2.o(.ARM.Collect$$rtentry$$0000000D)
    __rt_exit                                0x0000029b   Thumb Code     0  rtexit.o(.ARM.Collect$$rtexit$$00000000)
    __rt_exit_ls                             0x0000029d   Thumb Code     0  rtexit2.o(.ARM.Collect$$rtexit$$00000003)
    __rt_exit_prels_1                        0x0000029d   Thumb Code     0  rtexit2.o(.ARM.Collect$$rtexit$$00000002)
    __rt_exit_exit                           0x000002a1   Thumb Code     0  rtexit2.o(.ARM.Collect$$rtexit$$00000004)
    _platform_post_lib_init                  0x000002a9   Thumb Code    24  rtx_conf_cm.o(.emb_text)
    rt_set_PSP                               0x000002c5   Thumb Code     6  hal_cm4.o(.emb_text)
    rt_get_PSP                               0x000002cb   Thumb Code     6  hal_cm4.o(.emb_text)
    os_set_env                               0x000002d1   Thumb Code    24  hal_cm4.o(.emb_text)
    _alloc_box                               0x000002ed   Thumb Code    28  hal_cm4.o(.emb_text)
    _free_box                                0x0000030d   Thumb Code    28  hal_cm4.o(.emb_text)
    SVC_Handler                              0x0000032d   Thumb Code   168  hal_cm4.o(.emb_text)
    PendSV_Handler                           0x000003e5   Thumb Code    96  hal_cm4.o(.emb_text)
    SysTick_Handler                          0x00000449   Thumb Code     8  hal_cm4.o(.emb_text)
    OS_Tick_Handler                          0x00000451   Thumb Code    12  hal_cm4.o(.emb_text)
    initUART                                 0x0000045d   Thumb Code   132  uart_functions.o(.text)
    __RL_RTX_VER                             0x00000482   Number         0  rt_system.o ABSOLUTE
    sendUART                                 0x000004e1   Thumb Code    36  uart_functions.o(.text)
    readUART                                 0x00000505   Thumb Code     6  uart_functions.o(.text)
    sendString                               0x00000519   Thumb Code    32  comunication.o(.text)
    intToString                              0x00000539   Thumb Code   266  utils.o(.text)
    floatToString                            0x00000643   Thumb Code   234  utils.o(.text)
    funcao                                   0x00000735   Thumb Code    68  lab5.o(.text)
    factorial                                0x00000779   Thumb Code    60  lab5.o(.text)
    Thread_A                                 0x000007b5   Thumb Code    62  lab5.o(.text)
    Thread_B                                 0x000007f3   Thumb Code   112  lab5.o(.text)
    Thread_C                                 0x00000863   Thumb Code    80  lab5.o(.text)
    Thread_D                                 0x000008b3   Thumb Code   206  lab5.o(.text)
    Thread_E                                 0x00000981   Thumb Code    90  lab5.o(.text)
    Thread_F                                 0x000009db   Thumb Code   224  lab5.o(.text)
    main                                     0x00000abb   Thumb Code    42  lab5.o(.text)
    cfaf128x128x16Rect                       0x00000ce9   Thumb Code   134  cfaf128x128x16.o(.text)
    cfaf128x128x16LineVer                    0x00000d6f   Thumb Code    38  cfaf128x128x16.o(.text)
    cfaf128x128x16LineHor                    0x00000d95   Thumb Code    38  cfaf128x128x16.o(.text)
    cfaf128x128x16Dot                        0x00000dbb   Thumb Code    30  cfaf128x128x16.o(.text)
    cfaf128x128x16SetOrientation             0x000010bd   Thumb Code    74  cfaf128x128x16.o(.text)
    cfaf128x128x16ClearColor                 0x00001107   Thumb Code    36  cfaf128x128x16.o(.text)
    cfaf128x128x16Clear                      0x0000112b   Thumb Code    10  cfaf128x128x16.o(.text)
    InitSSICom                               0x00001151   Thumb Code   178  cfaf128x128x16.o(.text)
    cfaf128x128x16Init                       0x00001203   Thumb Code   384  cfaf128x128x16.o(.text)
    os_idle_demon                            0x000013d5   Thumb Code     4  rtx_conf_cm.o(.text)
    os_error                                 0x000013d9   Thumb Code    32  rtx_conf_cm.o(.text)
    __user_perthread_libspace                0x000013f9   Thumb Code    32  rtx_conf_cm.o(.text)
    _mutex_initialize                        0x00001419   Thumb Code    34  rtx_conf_cm.o(.text)
    _mutex_acquire                           0x0000143b   Thumb Code    22  rtx_conf_cm.o(.text)
    _mutex_release                           0x00001451   Thumb Code    18  rtx_conf_cm.o(.text)
    Reset_Handler                            0x00001481   Thumb Code     8  startup_tm4c129.o(.text)
    NMI_Handler                              0x00001489   Thumb Code     2  startup_tm4c129.o(.text)
    HardFault_Handler                        0x0000148b   Thumb Code     2  startup_tm4c129.o(.text)
    MemManage_Handler                        0x0000148d   Thumb Code     2  startup_tm4c129.o(.text)
    BusFault_Handler                         0x0000148f   Thumb Code     2  startup_tm4c129.o(.text)
    UsageFault_Handler                       0x00001491   Thumb Code     2  startup_tm4c129.o(.text)
    DebugMon_Handler                         0x00001495   Thumb Code     2  startup_tm4c129.o(.text)
    GPIOA_Handler                            0x0000149b   Thumb Code     2  startup_tm4c129.o(.text)
    GPIOB_Handler                            0x0000149d   Thumb Code     2  startup_tm4c129.o(.text)
    GPIOC_Handler                            0x0000149f   Thumb Code     2  startup_tm4c129.o(.text)
    GPIOD_Handler                            0x000014a1   Thumb Code     2  startup_tm4c129.o(.text)
    GPIOE_Handler                            0x000014a3   Thumb Code     2  startup_tm4c129.o(.text)
    UART0_Handler                            0x000014a5   Thumb Code     2  startup_tm4c129.o(.text)
    UART1_Handler                            0x000014a7   Thumb Code     2  startup_tm4c129.o(.text)
    SSI0_Handler                             0x000014a9   Thumb Code     2  startup_tm4c129.o(.text)
    I2C0_Handler                             0x000014ab   Thumb Code     2  startup_tm4c129.o(.text)
    PMW0_FAULT_Handler                       0x000014ad   Thumb Code     2  startup_tm4c129.o(.text)
    PWM0_0_Handler                           0x000014af   Thumb Code     2  startup_tm4c129.o(.text)
    PWM0_1_Handler                           0x000014b1   Thumb Code     2  startup_tm4c129.o(.text)
    PWM0_2_Handler                           0x000014b3   Thumb Code     2  startup_tm4c129.o(.text)
    QEI0_Handler                             0x000014b5   Thumb Code     2  startup_tm4c129.o(.text)
    ADC0SS0_Handler                          0x000014b7   Thumb Code     2  startup_tm4c129.o(.text)
    ADC0SS1_Handler                          0x000014b9   Thumb Code     2  startup_tm4c129.o(.text)
    ADC0SS2_Handler                          0x000014bb   Thumb Code     2  startup_tm4c129.o(.text)
    ADC0SS3_Handler                          0x000014bd   Thumb Code     2  startup_tm4c129.o(.text)
    WDT0_Handler                             0x000014bf   Thumb Code     2  startup_tm4c129.o(.text)
    TIMER0A_Handler                          0x000014c1   Thumb Code     2  startup_tm4c129.o(.text)
    TIMER0B_Handler                          0x000014c3   Thumb Code     2  startup_tm4c129.o(.text)
    TIMER1A_Handler                          0x000014c5   Thumb Code     2  startup_tm4c129.o(.text)
    TIMER1B_Handler                          0x000014c7   Thumb Code     2  startup_tm4c129.o(.text)
    TIMER2A_Handler                          0x000014c9   Thumb Code     2  startup_tm4c129.o(.text)
    TIMER2B_Handler                          0x000014cb   Thumb Code     2  startup_tm4c129.o(.text)
    COMP0_Handler                            0x000014cd   Thumb Code     2  startup_tm4c129.o(.text)
    COMP1_Handler                            0x000014cf   Thumb Code     2  startup_tm4c129.o(.text)
    COMP2_Handler                            0x000014d1   Thumb Code     2  startup_tm4c129.o(.text)
    SYSCTL_Handler                           0x000014d3   Thumb Code     2  startup_tm4c129.o(.text)
    FLASH_Handler                            0x000014d5   Thumb Code     2  startup_tm4c129.o(.text)
    GPIOF_Handler                            0x000014d7   Thumb Code     2  startup_tm4c129.o(.text)
    GPIOG_Handler                            0x000014d9   Thumb Code     2  startup_tm4c129.o(.text)
    GPIOH_Handler                            0x000014db   Thumb Code     2  startup_tm4c129.o(.text)
    UART2_Handler                            0x000014dd   Thumb Code     2  startup_tm4c129.o(.text)
    SSI1_Handler                             0x000014df   Thumb Code     2  startup_tm4c129.o(.text)
    TIMER3A_Handler                          0x000014e1   Thumb Code     2  startup_tm4c129.o(.text)
    TIMER3B_Handler                          0x000014e3   Thumb Code     2  startup_tm4c129.o(.text)
    I2C1_Handler                             0x000014e5   Thumb Code     2  startup_tm4c129.o(.text)
    CAN0_Handler                             0x000014e7   Thumb Code     2  startup_tm4c129.o(.text)
    CAN1_Handler                             0x000014e9   Thumb Code     2  startup_tm4c129.o(.text)
    ETH_Handler                              0x000014eb   Thumb Code     2  startup_tm4c129.o(.text)
    HIB_Handler                              0x000014ed   Thumb Code     2  startup_tm4c129.o(.text)
    USB0_Handler                             0x000014ef   Thumb Code     2  startup_tm4c129.o(.text)
    PWM0_3_Handler                           0x000014f1   Thumb Code     2  startup_tm4c129.o(.text)
    UDMA_Handler                             0x000014f3   Thumb Code     2  startup_tm4c129.o(.text)
    UDMAERR_Handler                          0x000014f5   Thumb Code     2  startup_tm4c129.o(.text)
    ADC1SS0_Handler                          0x000014f7   Thumb Code     2  startup_tm4c129.o(.text)
    ADC1SS1_Handler                          0x000014f9   Thumb Code     2  startup_tm4c129.o(.text)
    ADC1SS2_Handler                          0x000014fb   Thumb Code     2  startup_tm4c129.o(.text)
    ADC1SS3_Handler                          0x000014fd   Thumb Code     2  startup_tm4c129.o(.text)
    EBI0_Handler                             0x000014ff   Thumb Code     2  startup_tm4c129.o(.text)
    GPIOJ_Handler                            0x00001501   Thumb Code     2  startup_tm4c129.o(.text)
    GPIOK_Handler                            0x00001503   Thumb Code     2  startup_tm4c129.o(.text)
    GPIOL_Handler                            0x00001505   Thumb Code     2  startup_tm4c129.o(.text)
    SSI2_Handler                             0x00001507   Thumb Code     2  startup_tm4c129.o(.text)
    SSI3_Handler                             0x00001509   Thumb Code     2  startup_tm4c129.o(.text)
    UART3_Handler                            0x0000150b   Thumb Code     2  startup_tm4c129.o(.text)
    UART4_Handler                            0x0000150d   Thumb Code     2  startup_tm4c129.o(.text)
    UART5_Handler                            0x0000150f   Thumb Code     2  startup_tm4c129.o(.text)
    UART6_Handler                            0x00001511   Thumb Code     2  startup_tm4c129.o(.text)
    UART7_Handler                            0x00001513   Thumb Code     2  startup_tm4c129.o(.text)
    I2C2_Handler                             0x00001515   Thumb Code     2  startup_tm4c129.o(.text)
    I2C3_Handler                             0x00001517   Thumb Code     2  startup_tm4c129.o(.text)
    TIMER4A_Handler                          0x00001519   Thumb Code     2  startup_tm4c129.o(.text)
    TIMER4B_Handler                          0x0000151b   Thumb Code     2  startup_tm4c129.o(.text)
    TIMER5A_Handler                          0x0000151d   Thumb Code     2  startup_tm4c129.o(.text)
    TIMER5B_Handler                          0x0000151f   Thumb Code     2  startup_tm4c129.o(.text)
    WTIMER0A_Handler                         0x00001521   Thumb Code     2  startup_tm4c129.o(.text)
    WTIMER0B_Handler                         0x00001523   Thumb Code     2  startup_tm4c129.o(.text)
    WTIMER1A_Handler                         0x00001525   Thumb Code     2  startup_tm4c129.o(.text)
    WTIMER1B_Handler                         0x00001527   Thumb Code     2  startup_tm4c129.o(.text)
    WTIMER2A_Handler                         0x00001529   Thumb Code     2  startup_tm4c129.o(.text)
    WTIMER2B_Handler                         0x0000152b   Thumb Code     2  startup_tm4c129.o(.text)
    WTIMER3A_Handler                         0x0000152d   Thumb Code     2  startup_tm4c129.o(.text)
    WTIMER3B_Handler                         0x0000152f   Thumb Code     2  startup_tm4c129.o(.text)
    WTIMER4A_Handler                         0x00001531   Thumb Code     2  startup_tm4c129.o(.text)
    WTIMER4B_Handler                         0x00001533   Thumb Code     2  startup_tm4c129.o(.text)
    WTIMER5A_Handler                         0x00001535   Thumb Code     2  startup_tm4c129.o(.text)
    WTIMER5B_Handler                         0x00001537   Thumb Code     2  startup_tm4c129.o(.text)
    FPU_Handler                              0x00001539   Thumb Code     2  startup_tm4c129.o(.text)
    I2C4_Handler                             0x0000153b   Thumb Code     2  startup_tm4c129.o(.text)
    I2C5_Handler                             0x0000153d   Thumb Code     2  startup_tm4c129.o(.text)
    GPIOM_Handler                            0x0000153f   Thumb Code     2  startup_tm4c129.o(.text)
    GPION_Handler                            0x00001541   Thumb Code     2  startup_tm4c129.o(.text)
    TAMPER_Handler                           0x00001543   Thumb Code     2  startup_tm4c129.o(.text)
    GPIOP0_Handler                           0x00001545   Thumb Code     2  startup_tm4c129.o(.text)
    GPIOP1_Handler                           0x00001547   Thumb Code     2  startup_tm4c129.o(.text)
    GPIOP2_Handler                           0x00001549   Thumb Code     2  startup_tm4c129.o(.text)
    GPIOP3_Handler                           0x0000154b   Thumb Code     2  startup_tm4c129.o(.text)
    GPIOP4_Handler                           0x0000154d   Thumb Code     2  startup_tm4c129.o(.text)
    GPIOP5_Handler                           0x0000154f   Thumb Code     2  startup_tm4c129.o(.text)
    GPIOP6_Handler                           0x00001551   Thumb Code     2  startup_tm4c129.o(.text)
    GPIOP7_Handler                           0x00001553   Thumb Code     2  startup_tm4c129.o(.text)
    GPIOQ0_Handler                           0x00001555   Thumb Code     2  startup_tm4c129.o(.text)
    GPIOQ1_Handler                           0x00001557   Thumb Code     2  startup_tm4c129.o(.text)
    GPIOQ2_Handler                           0x00001559   Thumb Code     2  startup_tm4c129.o(.text)
    GPIOQ3_Handler                           0x0000155b   Thumb Code     2  startup_tm4c129.o(.text)
    GPIOQ4_Handler                           0x0000155d   Thumb Code     2  startup_tm4c129.o(.text)
    GPIOQ5_Handler                           0x0000155f   Thumb Code     2  startup_tm4c129.o(.text)
    GPIOQ6_Handler                           0x00001561   Thumb Code     2  startup_tm4c129.o(.text)
    GPIOQ7_Handler                           0x00001563   Thumb Code     2  startup_tm4c129.o(.text)
    GPIOR_Handler                            0x00001565   Thumb Code     2  startup_tm4c129.o(.text)
    GPIOS_Handler                            0x00001567   Thumb Code     2  startup_tm4c129.o(.text)
    SHAMD5_Handler                           0x00001569   Thumb Code     2  startup_tm4c129.o(.text)
    AES_Handler                              0x0000156b   Thumb Code     2  startup_tm4c129.o(.text)
    DES3DES_Handler                          0x0000156d   Thumb Code     2  startup_tm4c129.o(.text)
    LCDCONTROLLER_Handler                    0x0000156f   Thumb Code     2  startup_tm4c129.o(.text)
    TIMER6A_Handler                          0x00001571   Thumb Code     2  startup_tm4c129.o(.text)
    TIMER6B_Handler                          0x00001573   Thumb Code     2  startup_tm4c129.o(.text)
    TIMER7A_Handler                          0x00001575   Thumb Code     2  startup_tm4c129.o(.text)
    TIMER7B_Handler                          0x00001577   Thumb Code     2  startup_tm4c129.o(.text)
    I2C6_Handler                             0x00001579   Thumb Code     2  startup_tm4c129.o(.text)
    I2C7_Handler                             0x0000157b   Thumb Code     2  startup_tm4c129.o(.text)
    HIMSCANKEYBOARD_Handler                  0x0000157d   Thumb Code     2  startup_tm4c129.o(.text)
    ONEWIRE_Handler                          0x0000157f   Thumb Code     2  startup_tm4c129.o(.text)
    HIMPS2_Handler                           0x00001581   Thumb Code     2  startup_tm4c129.o(.text)
    HIMLEDSEQUENCER_Handler                  0x00001583   Thumb Code     2  startup_tm4c129.o(.text)
    HIMCONSUMERIR_Handler                    0x00001585   Thumb Code     2  startup_tm4c129.o(.text)
    I2C8_Handler                             0x00001587   Thumb Code     2  startup_tm4c129.o(.text)
    I2C9_Handler                             0x00001589   Thumb Code     2  startup_tm4c129.o(.text)
    GPIOT_Handler                            0x0000158b   Thumb Code     2  startup_tm4c129.o(.text)
    __user_initial_stackheap                 0x0000158d   Thumb Code     0  startup_tm4c129.o(.text)
    SystemCoreClockUpdate                    0x000015b1   Thumb Code     8  system_tm4c129.o(.text)
    SystemInit                               0x000015b9   Thumb Code    20  system_tm4c129.o(.text)
    __user_libspace                          0x000015d9   Thumb Code     8  libspace.o(.text)
    __user_perproc_libspace                  0x000015d9   Thumb Code     0  libspace.o(.text)
    __aeabi_uldivmod                         0x000015e1   Thumb Code     0  lludivv7m.o(.text)
    _ll_udiv                                 0x000015e1   Thumb Code   238  lludivv7m.o(.text)
    __aeabi_ldivmod                          0x000016cf   Thumb Code     0  llsdiv.o(.text)
    _ll_sdiv                                 0x000016cf   Thumb Code    72  llsdiv.o(.text)
    exit                                     0x00001717   Thumb Code    18  exit.o(.text)
    strlen                                   0x00001729   Thumb Code    62  strlen.o(.text)
    __use_two_region_memory                  0x00001767   Thumb Code     2  heapauxi.o(.text)
    __rt_heap_escrow$2region                 0x00001769   Thumb Code     2  heapauxi.o(.text)
    __rt_heap_expand$2region                 0x0000176b   Thumb Code     2  heapauxi.o(.text)
    __read_errno                             0x0000176d   Thumb Code    10  _rserrno.o(.text)
    __set_errno                              0x00001777   Thumb Code    12  _rserrno.o(.text)
    __aeabi_errno_addr                       0x00001783   Thumb Code     4  rt_errno_addr_twolibspace.o(.text)
    __errno$twolibspace                      0x00001783   Thumb Code     0  rt_errno_addr_twolibspace.o(.text)
    __rt_errno_addr$twolibspace              0x00001783   Thumb Code     0  rt_errno_addr_twolibspace.o(.text)
    _sys_exit                                0x00001789   Thumb Code     8  sys_exit.o(.text)
    __user_setup_stackheap                   0x00001795   Thumb Code    74  sys_stackheap_outer.o(.text)
    __I$use$semihosting                      0x000017df   Thumb Code     0  use_no_semi.o(.text)
    __use_no_semihosting_swi                 0x000017df   Thumb Code     2  use_no_semi.o(.text)
    SVC_Count                                0x000017e0   Data           4  svc_table.o(SVC_TABLE)
    __semihosting_library_function           0x000017e1   Thumb Code     0  indicate_semi.o(.text)
    SVC_Table                                0x000017e4   Data           0  svc_table.o(SVC_TABLE)
    SysCtlClockFreqSet                       0x000017e5   Thumb Code   706  sysctl.o(i.SysCtlClockFreqSet)
    __ARM_fpclassify                         0x00001ad1   Thumb Code    48  fpclassify.o(i.__ARM_fpclassify)
    __hardfp_pow                             0x00001b01   Thumb Code  3072  pow.o(i.__hardfp_pow)
    __kernel_poly                            0x00002751   Thumb Code   248  poly.o(i.__kernel_poly)
    __mathlib_dbl_divzero                    0x00002849   Thumb Code    28  dunder.o(i.__mathlib_dbl_divzero)
    __mathlib_dbl_infnan2                    0x00002879   Thumb Code    20  dunder.o(i.__mathlib_dbl_infnan2)
    __mathlib_dbl_invalid                    0x00002891   Thumb Code    24  dunder.o(i.__mathlib_dbl_invalid)
    __mathlib_dbl_overflow                   0x000028b1   Thumb Code    24  dunder.o(i.__mathlib_dbl_overflow)
    __mathlib_dbl_underflow                  0x000028d1   Thumb Code    24  dunder.o(i.__mathlib_dbl_underflow)
    _init_box                                0x000028f1   Thumb Code    70  rt_membox.o(i._init_box)
    dbg_init                                 0x00002939   Thumb Code    34  hal_cm.o(i.dbg_init)
    dbg_task_notify                          0x00002969   Thumb Code    32  hal_cm.o(i.dbg_task_notify)
    dbg_task_switch                          0x00002989   Thumb Code    16  hal_cm.o(i.dbg_task_switch)
    fabs                                     0x00002999   Thumb Code    24  fabs.o(i.fabs)
    isrMessageGet                            0x000029b1   Thumb Code    42  rt_cmsis.o(i.isrMessageGet)
    isrMessagePut                            0x000029db   Thumb Code    44  rt_cmsis.o(i.isrMessagePut)
    isr_mbx_receive                          0x00002a09   Thumb Code    86  rt_mailbox.o(i.isr_mbx_receive)
    isr_mbx_send                             0x00002a5f   Thumb Code    14  rt_mailbox.o(i.isr_mbx_send)
    osDelay                                  0x00002a6d   Thumb Code    18  rt_cmsis.o(i.osDelay)
    osKernelInitialize                       0x00002a85   Thumb Code    30  rt_cmsis.o(i.osKernelInitialize)
    osKernelStart                            0x00002aa9   Thumb Code    98  rt_cmsis.o(i.osKernelStart)
    osKernelSysTick                          0x00002b15   Thumb Code    18  rt_cmsis.o(i.osKernelSysTick)
    osMessageGet                             0x00002b2d   Thumb Code    18  rt_cmsis.o(i.osMessageGet)
    osThreadCreate                           0x00002b45   Thumb Code    36  rt_cmsis.o(i.osThreadCreate)
    osThreadExit                             0x00002b71   Thumb Code    14  rt_cmsis.o(i.osThreadExit)
    osTimerCall                              0x00002b89   Thumb Code     8  rt_cmsis.o(i.osTimerCall)
    osTimerThread                            0x00002b95   Thumb Code    38  rt_cmsis.o(i.osTimerThread)
    os_tick_init                             0x00002bc1   Thumb Code    32  rt_system.o(i.os_tick_init)
    os_tick_irqack                           0x00002be9   Thumb Code     2  rt_system.o(i.os_tick_irqack)
    os_tick_ovf                              0x00002bed   Thumb Code    10  rt_system.o(i.os_tick_ovf)
    os_tick_val                              0x00002bfd   Thumb Code    14  rt_system.o(i.os_tick_val)
    rt_alloc_box                             0x00002c11   Thumb Code    26  rt_membox.o(i.rt_alloc_box)
    rt_alloc_mem                             0x00002c2b   Thumb Code    62  rt_memory.o(i.rt_alloc_mem)
    rt_block                                 0x00002c69   Thumb Code    48  rt_task.o(i.rt_block)
    rt_chk_robin                             0x00002ca1   Thumb Code    60  rt_robin.o(i.rt_chk_robin)
    rt_dec_dly                               0x00002ce9   Thumb Code   102  rt_list.o(i.rt_dec_dly)
    rt_dispatch                              0x00002d59   Thumb Code    60  rt_task.o(i.rt_dispatch)
    rt_dly_wait                              0x00002d9d   Thumb Code     6  rt_time.o(i.rt_dly_wait)
    rt_evt_psh                               0x00002da5   Thumb Code    76  rt_event.o(i.rt_evt_psh)
    rt_free_box                              0x00002df5   Thumb Code    44  rt_membox.o(i.rt_free_box)
    rt_free_mem                              0x00002e21   Thumb Code    40  rt_memory.o(i.rt_free_mem)
    rt_get_first                             0x00002e49   Thumb Code    40  rt_list.o(i.rt_get_first)
    rt_init_mem                              0x00002ec1   Thumb Code    26  rt_memory.o(i.rt_init_mem)
    rt_init_robin                            0x00002edd   Thumb Code    14  rt_robin.o(i.rt_init_robin)
    rt_init_stack                            0x00002ef5   Thumb Code   118  hal_cm.o(i.rt_init_stack)
    rt_mbx_check                             0x00002f75   Thumb Code     8  rt_mailbox.o(i.rt_mbx_check)
    rt_mbx_init                              0x00002f7d   Thumb Code    26  rt_mailbox.o(i.rt_mbx_init)
    rt_mbx_psh                               0x00002f99   Thumb Code   236  rt_mailbox.o(i.rt_mbx_psh)
    rt_mbx_wait                              0x00003089   Thumb Code   174  rt_mailbox.o(i.rt_mbx_wait)
    rt_mut_init                              0x00003181   Thumb Code    16  rt_mutex.o(i.rt_mut_init)
    rt_mut_release                           0x00003191   Thumb Code   208  rt_mutex.o(i.rt_mut_release)
    rt_mut_wait                              0x00003269   Thumb Code   114  rt_mutex.o(i.rt_mut_wait)
    rt_pop_req                               0x000032e1   Thumb Code   112  rt_system.o(i.rt_pop_req)
    rt_psh_req                               0x0000335d   Thumb Code    22  rt_system.o(i.rt_psh_req)
    rt_psq_enq                               0x0000337d   Thumb Code    88  rt_list.o(i.rt_psq_enq)
    rt_put_dly                               0x000033d9   Thumb Code    68  rt_list.o(i.rt_put_dly)
    rt_put_prio                              0x00003421   Thumb Code    54  rt_list.o(i.rt_put_prio)
    rt_put_rdy_first                         0x00003459   Thumb Code    14  rt_list.o(i.rt_put_rdy_first)
    rt_resort_prio                           0x0000346d   Thumb Code    46  rt_list.o(i.rt_resort_prio)
    rt_ret_val                               0x000034b1   Thumb Code    12  hal_cm.o(i.rt_ret_val)
    rt_ret_val2                              0x000034bd   Thumb Code    16  hal_cm.o(i.rt_ret_val2)
    rt_rmv_dly                               0x000034cd   Thumb Code    40  rt_list.o(i.rt_rmv_dly)
    rt_rmv_list                              0x000034f5   Thumb Code    44  rt_list.o(i.rt_rmv_list)
    rt_sem_psh                               0x00003525   Thumb Code    48  rt_semaphore.o(i.rt_sem_psh)
    rt_stk_check                             0x00003559   Thumb Code    28  rt_system.o(i.rt_stk_check)
    rt_switch_req                            0x0000357d   Thumb Code    30  rt_task.o(i.rt_switch_req)
    rt_sys_init                              0x000035a5   Thumb Code   138  rt_task.o(i.rt_sys_init)
    rt_sys_start                             0x00003671   Thumb Code   110  rt_task.o(i.rt_sys_start)
    rt_systick                               0x000036e9   Thumb Code    50  rt_system.o(i.rt_systick)
    rt_tsk_create                            0x00003771   Thumb Code   118  rt_task.o(i.rt_tsk_create)
    rt_tsk_delete                            0x000037f9   Thumb Code   352  rt_task.o(i.rt_tsk_delete)
    rt_tsk_prio                              0x00003975   Thumb Code   108  rt_task.o(i.rt_tsk_prio)
    rt_tsk_self                              0x000039f1   Thumb Code    12  rt_task.o(i.rt_tsk_self)
    sqrt                                     0x00003a01   Thumb Code   110  sqrt.o(i.sqrt)
    svcDelay                                 0x00003a6f   Thumb Code    18  rt_cmsis.o(i.svcDelay)
    svcKernelInitialize                      0x00003a81   Thumb Code    80  rt_cmsis.o(i.svcKernelInitialize)
    svcKernelStart                           0x00003af1   Thumb Code    62  rt_cmsis.o(i.svcKernelStart)
    svcKernelSysTick                         0x00003b39   Thumb Code    46  rt_cmsis.o(i.svcKernelSysTick)
    svcMessageCreate                         0x00003b71   Thumb Code    36  rt_cmsis.o(i.svcMessageCreate)
    svcMessageGet                            0x00003b95   Thumb Code    58  rt_cmsis.o(i.svcMessageGet)
    svcThreadCreate                          0x00003bd1   Thumb Code    96  rt_cmsis.o(i.svcThreadCreate)
    svcThreadGetId                           0x00003c3d   Thumb Code    22  rt_cmsis.o(i.svcThreadGetId)
    svcThreadTerminate                       0x00003c59   Thumb Code    50  rt_cmsis.o(i.svcThreadTerminate)
    svcTimerCall                             0x00003c91   Thumb Code    24  rt_cmsis.o(i.svcTimerCall)
    sysTimerTick                             0x00003ca9   Thumb Code    84  rt_cmsis.o(i.sysTimerTick)
    __aeabi_dneg                             0x00003d05   Thumb Code     0  basic.o(x$fpl$basic)
    _dneg                                    0x00003d05   Thumb Code     6  basic.o(x$fpl$basic)
    __aeabi_fneg                             0x00003d0b   Thumb Code     0  basic.o(x$fpl$basic)
    _fneg                                    0x00003d0b   Thumb Code     6  basic.o(x$fpl$basic)
    _dabs                                    0x00003d11   Thumb Code     6  basic.o(x$fpl$basic)
    _fabs                                    0x00003d17   Thumb Code     6  basic.o(x$fpl$basic)
    __aeabi_d2f                              0x00003d1d   Thumb Code     0  d2f.o(x$fpl$d2f)
    _d2f                                     0x00003d1d   Thumb Code    98  d2f.o(x$fpl$d2f)
    __aeabi_dadd                             0x00003d81   Thumb Code     0  daddsub_clz.o(x$fpl$dadd)
    _dadd                                    0x00003d81   Thumb Code   332  daddsub_clz.o(x$fpl$dadd)
    __fpl_dcheck_NaN1                        0x00003ed1   Thumb Code    10  dcheck1.o(x$fpl$dcheck1)
    __fpl_dcmp_Inf                           0x00003ee1   Thumb Code    24  dcmpi.o(x$fpl$dcmpinf)
    __aeabi_ddiv                             0x00003ef9   Thumb Code     0  ddiv.o(x$fpl$ddiv)
    _ddiv                                    0x00003ef9   Thumb Code   552  ddiv.o(x$fpl$ddiv)
    __aeabi_i2d                              0x000041a9   Thumb Code     0  dflt_clz.o(x$fpl$dflt)
    _dflt                                    0x000041a9   Thumb Code    46  dflt_clz.o(x$fpl$dflt)
    __aeabi_ui2d                             0x000041d7   Thumb Code     0  dflt_clz.o(x$fpl$dfltu)
    _dfltu                                   0x000041d7   Thumb Code    38  dflt_clz.o(x$fpl$dfltu)
    __aeabi_cdcmple                          0x000041fd   Thumb Code     0  dleqf.o(x$fpl$dleqf)
    _dcmple                                  0x000041fd   Thumb Code   120  dleqf.o(x$fpl$dleqf)
    __fpl_dcmple_InfNaN                      0x0000425f   Thumb Code     0  dleqf.o(x$fpl$dleqf)
    __aeabi_dmul                             0x00004275   Thumb Code     0  dmul.o(x$fpl$dmul)
    _dmul                                    0x00004275   Thumb Code   332  dmul.o(x$fpl$dmul)
    __fpl_dnaninf                            0x000043c9   Thumb Code   156  dnaninf.o(x$fpl$dnaninf)
    __fpl_dretinf                            0x00004465   Thumb Code    12  dretinf.o(x$fpl$dretinf)
    __aeabi_cdrcmple                         0x00004471   Thumb Code     0  drleqf.o(x$fpl$drleqf)
    _drcmple                                 0x00004471   Thumb Code   108  drleqf.o(x$fpl$drleqf)
    __aeabi_drsub                            0x000044dd   Thumb Code     0  daddsub_clz.o(x$fpl$drsb)
    _drsb                                    0x000044dd   Thumb Code    22  daddsub_clz.o(x$fpl$drsb)
    _dsqrt                                   0x000044f5   Thumb Code   404  dsqrt_umaal.o(x$fpl$dsqrt)
    __aeabi_dsub                             0x0000468d   Thumb Code     0  daddsub_clz.o(x$fpl$dsub)
    _dsub                                    0x0000468d   Thumb Code   464  daddsub_clz.o(x$fpl$dsub)
    __fpl_fnaninf                            0x00004861   Thumb Code   140  fnaninf.o(x$fpl$fnaninf)
    _fp_init                                 0x000048ed   Thumb Code    10  fpinit.o(x$fpl$fpinit)
    __fplib_config_fpu_vfp                   0x000048f5   Thumb Code     0  fpinit.o(x$fpl$fpinit)
    __fplib_config_pureend_doubles           0x000048f5   Thumb Code     0  fpinit.o(x$fpl$fpinit)
    __fpl_fretinf                            0x000048f7   Thumb Code    10  fretinf.o(x$fpl$fretinf)
    __aeabi_f2lz                             0x00004901   Thumb Code     0  ffixll.o(x$fpl$llsfromf)
    _ll_sfrom_f                              0x00004901   Thumb Code   134  ffixll.o(x$fpl$llsfromf)
    __fpl_return_NaN                         0x00004987   Thumb Code   100  retnan.o(x$fpl$retnan)
    __ARM_scalbn                             0x000049eb   Thumb Code    92  scalbn.o(x$fpl$scalbn)
    __fpl_cmpreturn                          0x00004a47   Thumb Code    48  trapv.o(x$fpl$trapveneer)
    __I$use$fp                               0x00004a76   Number         0  usenofp.o(x$fpl$usenofp)
    os_thread_def_Thread_A                   0x00004a78   Data          16  lab5.o(.constdata)
    os_thread_def_Thread_B                   0x00004a88   Data          16  lab5.o(.constdata)
    os_thread_def_Thread_C                   0x00004a98   Data          16  lab5.o(.constdata)
    os_thread_def_Thread_D                   0x00004aa8   Data          16  lab5.o(.constdata)
    os_thread_def_Thread_E                   0x00004ab8   Data          16  lab5.o(.constdata)
    os_thread_def_Thread_F                   0x00004ac8   Data          16  lab5.o(.constdata)
    os_maxtaskrun                            0x00004ad8   Data           2  rtx_conf_cm.o(.constdata)
    os_stackinfo                             0x00004adc   Data           4  rtx_conf_cm.o(.constdata)
    os_rrobin                                0x00004ae0   Data           4  rtx_conf_cm.o(.constdata)
    os_tickfreq                              0x00004ae4   Data           4  rtx_conf_cm.o(.constdata)
    os_tickus_i                              0x00004ae8   Data           2  rtx_conf_cm.o(.constdata)
    os_tickus_f                              0x00004aea   Data           2  rtx_conf_cm.o(.constdata)
    os_trv                                   0x00004aec   Data           4  rtx_conf_cm.o(.constdata)
    os_flags                                 0x00004af0   Data           1  rtx_conf_cm.o(.constdata)
    CMSIS_RTOS_API_Version                   0x00004af4   Data           4  rtx_conf_cm.o(.constdata)
    CMSIS_RTOS_RTX_Version                   0x00004af8   Data           4  rtx_conf_cm.o(.constdata)
    os_clockrate                             0x00004afc   Data           4  rtx_conf_cm.o(.constdata)
    os_timernum                              0x00004b00   Data           4  rtx_conf_cm.o(.constdata)
    mp_tcb_size                              0x00004b04   Data           2  rtx_conf_cm.o(.constdata)
    mp_stk_size                              0x00004b08   Data           4  rtx_conf_cm.o(.constdata)
    os_stack_sz                              0x00004b0c   Data           4  rtx_conf_cm.o(.constdata)
    os_fifo_size                             0x00004b10   Data           1  rtx_conf_cm.o(.constdata)
    os_thread_def_osTimerThread              0x00004b14   Data          16  rtx_conf_cm.o(.constdata)
    os_messageQ_def_osTimerMessageQ          0x00004b24   Data           8  rtx_conf_cm.o(.constdata)
    mp_tmr_size                              0x00004b2c   Data           2  rtx_conf_cm.o(.constdata)
    os_thread_def_main                       0x00004b30   Data          16  rtx_conf_cm.o(.constdata)
    __mathlib_zero                           0x00004e20   Data           8  qnan.o(.constdata)
    Region$$Table$$Base                      0x00004e50   Number         0  anon$$obj.o(Region$$Table)
    Region$$Table$$Limit                     0x00004e70   Number         0  anon$$obj.o(Region$$Table)
    Thread_A_id                              0x20000008   Data           4  lab5.o(.data)
    Thread_B_id                              0x2000000c   Data           4  lab5.o(.data)
    Thread_C_id                              0x20000010   Data           4  lab5.o(.data)
    Thread_D_id                              0x20000014   Data           4  lab5.o(.data)
    Thread_E_id                              0x20000018   Data           4  lab5.o(.data)
    Thread_F_id                              0x2000001c   Data           4  lab5.o(.data)
    finalTime                                0x20000020   Data           8  lab5.o(.data)
    initTime                                 0x20000028   Data           8  lab5.o(.data)
    osThreadId_osTimerThread                 0x20000038   Data           4  rtx_conf_cm.o(.data)
    osMessageQId_osTimerMessageQ             0x2000003c   Data           4  rtx_conf_cm.o(.data)
    os_tmr                                   0x20000040   Data           4  rtx_conf_cm.o(.data)
    m_tmr                                    0x20000044   Data           4  rtx_conf_cm.o(.data)
    SystemCoreClock                          0x2000004c   Data           4  system_tm4c129.o(.data)
    os_initialized                           0x20000050   Data           1  rt_cmsis.o(.data)
    os_running                               0x20000051   Data           1  rt_cmsis.o(.data)
    os_timer_head                            0x20000054   Data           4  rt_cmsis.o(.data)
    os_tsk                                   0x20000058   Data           8  rt_task.o(.data)
    os_tick_irqn                             0x20000064   Data           4  rt_system.o(.data)
    os_time                                  0x20000068   Data           4  rt_time.o(.data)
    os_robin                                 0x2000006c   Data           8  rt_robin.o(.data)
    dbg_msg                                  0x20000074   Data           1  hal_cm.o(.data)
    sContext                                 0x20000078   Data          44  lab5.o(.bss)
    buffer                                   0x200000a4   Data          10  lab5.o(.bss)
    mp_tcb                                   0x200000b0   Data         480  rtx_conf_cm.o(.bss)
    mp_stk                                   0x20000290   Data        6416  rtx_conf_cm.o(.bss)
    os_stack_mem                             0x20001ba0   Data        1032  rtx_conf_cm.o(.bss)
    os_fifo                                  0x20001fa8   Data         132  rtx_conf_cm.o(.bss)
    os_active_TCB                            0x2000202c   Data          36  rtx_conf_cm.o(.bss)
    os_messageQ_q_osTimerMessageQ            0x20002050   Data          32  rtx_conf_cm.o(.bss)
    os_idle_TCB                              0x20002450   Data          52  rt_task.o(.bss)
    os_rdy                                   0x20002484   Data          24  rt_list.o(.bss)
    os_dly                                   0x2000249c   Data          24  rt_list.o(.bss)
    __libspace_start                         0x200024b4   Data          96  libspace.o(.bss)
    __temporary_stack_top$libspace           0x20002514   Data           0  libspace.o(.bss)



==============================================================================

Memory Map of the image

  Image Entry point : 0x00000201

  Load Region LR_IROM1 (Base: 0x00000000, Size: 0x00004ee8, Max: 0x00100000, ABSOLUTE)

    Execution Region ER_IROM1 (Exec base: 0x00000000, Load base: 0x00000000, Size: 0x00004e70, Max: 0x00100000, ABSOLUTE)

    Exec Addr    Load Addr    Size         Type   Attr      Idx    E Section Name        Object

    0x00000000   0x00000000   0x00000200   Data   RO          271    RESET               startup_tm4c129.o
    0x00000200   0x00000200   0x00000008   Code   RO         2036  * !!!main             c_w.l(__main.o)
    0x00000208   0x00000208   0x00000034   Code   RO         2308    !!!scatter          c_w.l(__scatter.o)
    0x0000023c   0x0000023c   0x0000001a   Code   RO         2310    !!handler_copy      c_w.l(__scatter_copy.o)
    0x00000256   0x00000256   0x00000002   PAD
    0x00000258   0x00000258   0x0000001c   Code   RO         2312    !!handler_zi        c_w.l(__scatter_zi.o)
    0x00000274   0x00000274   0x00000002   Code   RO         2188    .ARM.Collect$$libinit$$00000000  c_w.l(libinit.o)
    0x00000276   0x00000276   0x00000004   Code   RO         2203    .ARM.Collect$$libinit$$00000001  c_w.l(libinit2.o)
    0x0000027a   0x0000027a   0x00000000   Code   RO         2206    .ARM.Collect$$libinit$$00000004  c_w.l(libinit2.o)
    0x0000027a   0x0000027a   0x00000000   Code   RO         2209    .ARM.Collect$$libinit$$0000000A  c_w.l(libinit2.o)
    0x0000027a   0x0000027a   0x00000000   Code   RO         2211    .ARM.Collect$$libinit$$0000000C  c_w.l(libinit2.o)
    0x0000027a   0x0000027a   0x00000000   Code   RO         2213    .ARM.Collect$$libinit$$0000000E  c_w.l(libinit2.o)
    0x0000027a   0x0000027a   0x00000000   Code   RO         2216    .ARM.Collect$$libinit$$00000011  c_w.l(libinit2.o)
    0x0000027a   0x0000027a   0x00000000   Code   RO         2218    .ARM.Collect$$libinit$$00000013  c_w.l(libinit2.o)
    0x0000027a   0x0000027a   0x00000000   Code   RO         2220    .ARM.Collect$$libinit$$00000015  c_w.l(libinit2.o)
    0x0000027a   0x0000027a   0x00000000   Code   RO         2222    .ARM.Collect$$libinit$$00000017  c_w.l(libinit2.o)
    0x0000027a   0x0000027a   0x00000000   Code   RO         2224    .ARM.Collect$$libinit$$00000019  c_w.l(libinit2.o)
    0x0000027a   0x0000027a   0x00000000   Code   RO         2226    .ARM.Collect$$libinit$$0000001B  c_w.l(libinit2.o)
    0x0000027a   0x0000027a   0x00000000   Code   RO         2228    .ARM.Collect$$libinit$$0000001D  c_w.l(libinit2.o)
    0x0000027a   0x0000027a   0x00000000   Code   RO         2230    .ARM.Collect$$libinit$$0000001F  c_w.l(libinit2.o)
    0x0000027a   0x0000027a   0x00000000   Code   RO         2232    .ARM.Collect$$libinit$$00000021  c_w.l(libinit2.o)
    0x0000027a   0x0000027a   0x00000000   Code   RO         2234    .ARM.Collect$$libinit$$00000023  c_w.l(libinit2.o)
    0x0000027a   0x0000027a   0x00000000   Code   RO         2236    .ARM.Collect$$libinit$$00000025  c_w.l(libinit2.o)
    0x0000027a   0x0000027a   0x00000000   Code   RO         2240    .ARM.Collect$$libinit$$0000002C  c_w.l(libinit2.o)
    0x0000027a   0x0000027a   0x00000000   Code   RO         2242    .ARM.Collect$$libinit$$0000002E  c_w.l(libinit2.o)
    0x0000027a   0x0000027a   0x00000000   Code   RO         2244    .ARM.Collect$$libinit$$00000030  c_w.l(libinit2.o)
    0x0000027a   0x0000027a   0x00000000   Code   RO         2246    .ARM.Collect$$libinit$$00000032  c_w.l(libinit2.o)
    0x0000027a   0x0000027a   0x00000002   Code   RO         2247    .ARM.Collect$$libinit$$00000033  c_w.l(libinit2.o)
    0x0000027c   0x0000027c   0x00000002   Code   RO         2189    .ARM.Collect$$libshutdown$$00000000  c_w.l(libshutdown.o)
    0x0000027e   0x0000027e   0x00000000   Code   RO         2249    .ARM.Collect$$libshutdown$$00000002  c_w.l(libshutdown2.o)
    0x0000027e   0x0000027e   0x00000000   Code   RO         2251    .ARM.Collect$$libshutdown$$00000004  c_w.l(libshutdown2.o)
    0x0000027e   0x0000027e   0x00000000   Code   RO         2254    .ARM.Collect$$libshutdown$$00000007  c_w.l(libshutdown2.o)
    0x0000027e   0x0000027e   0x00000000   Code   RO         2257    .ARM.Collect$$libshutdown$$0000000A  c_w.l(libshutdown2.o)
    0x0000027e   0x0000027e   0x00000000   Code   RO         2259    .ARM.Collect$$libshutdown$$0000000C  c_w.l(libshutdown2.o)
    0x0000027e   0x0000027e   0x00000000   Code   RO         2262    .ARM.Collect$$libshutdown$$0000000F  c_w.l(libshutdown2.o)
    0x0000027e   0x0000027e   0x00000002   Code   RO         2263    .ARM.Collect$$libshutdown$$00000010  c_w.l(libshutdown2.o)
    0x00000280   0x00000280   0x00000000   Code   RO         2076    .ARM.Collect$$rtentry$$00000000  c_w.l(__rtentry.o)
    0x00000280   0x00000280   0x00000000   Code   RO         2138    .ARM.Collect$$rtentry$$00000002  c_w.l(__rtentry2.o)
    0x00000280   0x00000280   0x00000006   Code   RO         2150    .ARM.Collect$$rtentry$$00000004  c_w.l(__rtentry4.o)
    0x00000286   0x00000286   0x00000000   Code   RO         2140    .ARM.Collect$$rtentry$$00000009  c_w.l(__rtentry2.o)
    0x00000286   0x00000286   0x00000004   Code   RO         2141    .ARM.Collect$$rtentry$$0000000A  c_w.l(__rtentry2.o)
    0x0000028a   0x0000028a   0x00000008   Code   RO         2142    .ARM.Collect$$rtentry$$0000000B  c_w.l(__rtentry2.o)
    0x00000292   0x00000292   0x00000008   Code   RO         2144    .ARM.Collect$$rtentry$$0000000D  c_w.l(__rtentry2.o)
    0x0000029a   0x0000029a   0x00000002   Code   RO         2077    .ARM.Collect$$rtexit$$00000000  c_w.l(rtexit.o)
    0x0000029c   0x0000029c   0x00000000   Code   RO         2153    .ARM.Collect$$rtexit$$00000002  c_w.l(rtexit2.o)
    0x0000029c   0x0000029c   0x00000004   Code   RO         2154    .ARM.Collect$$rtexit$$00000003  c_w.l(rtexit2.o)
    0x000002a0   0x000002a0   0x00000006   Code   RO         2155    .ARM.Collect$$rtexit$$00000004  c_w.l(rtexit2.o)
    0x000002a6   0x000002a6   0x00000002   PAD
    0x000002a8   0x000002a8   0x0000001c   Code   RO          241    .emb_text           rtx_conf_cm.o
    0x000002c4   0x000002c4   0x00000198   Code   RO         2004    .emb_text           RTX_CM4.lib(hal_cm4.o)
    0x0000045c   0x0000045c   0x000000bc   Code   RO            4    .text               uart_functions.o
    0x00000518   0x00000518   0x00000020   Code   RO           80    .text               comunication.o
    0x00000538   0x00000538   0x000001fc   Code   RO          144    .text               utils.o
    0x00000734   0x00000734   0x00000400   Code   RO          161    .text               lab5.o
    0x00000b34   0x00000b34   0x000008a0   Code   RO          195    .text               cfaf128x128x16.o
    0x000013d4   0x000013d4   0x000000ac   Code   RO          242    .text               rtx_conf_cm.o
    0x00001480   0x00001480   0x00000130   Code   RO          272    .text               startup_tm4c129.o
    0x000015b0   0x000015b0   0x00000028   Code   RO          279    .text               system_tm4c129.o
    0x000015d8   0x000015d8   0x00000008   Code   RO         2019    .text               c_w.l(libspace.o)
    0x000015e0   0x000015e0   0x000000ee   Code   RO         2022    .text               c_w.l(lludivv7m.o)
    0x000016ce   0x000016ce   0x00000048   Code   RO         2024    .text               c_w.l(llsdiv.o)
    0x00001716   0x00001716   0x00000012   Code   RO         2026    .text               c_w.l(exit.o)
    0x00001728   0x00001728   0x0000003e   Code   RO         2030    .text               c_w.l(strlen.o)
    0x00001766   0x00001766   0x00000006   Code   RO         2034    .text               c_w.l(heapauxi.o)
    0x0000176c   0x0000176c   0x00000016   Code   RO         2083    .text               c_w.l(_rserrno.o)
    0x00001782   0x00001782   0x00000004   Code   RO         2166    .text               c_w.l(rt_errno_addr_twolibspace.o)
    0x00001786   0x00001786   0x00000002   PAD
    0x00001788   0x00001788   0x0000000c   Code   RO         2174    .text               c_w.l(sys_exit.o)
    0x00001794   0x00001794   0x0000004a   Code   RO         2176    .text               c_w.l(sys_stackheap_outer.o)
    0x000017de   0x000017de   0x00000002   Code   RO         2194    .text               c_w.l(use_no_semi.o)
    0x000017e0   0x000017e0   0x00000000   Code   RO         2196    .text               c_w.l(indicate_semi.o)
    0x000017e0   0x000017e0   0x00000004   Code   RO         2014    SVC_TABLE           RTX_CM4.lib(svc_table.o)
    0x000017e4   0x000017e4   0x000002ec   Code   RO          311    i.SysCtlClockFreqSet  driverlib.lib(sysctl.o)
    0x00001ad0   0x00001ad0   0x00000030   Code   RO         2120    i.__ARM_fpclassify  m_wm.l(fpclassify.o)
    0x00001b00   0x00001b00   0x00000c50   Code   RO         2062    i.__hardfp_pow      m_wm.l(pow.o)
    0x00002750   0x00002750   0x000000f8   Code   RO         2122    i.__kernel_poly     m_wm.l(poly.o)
    0x00002848   0x00002848   0x00000030   Code   RO         2100    i.__mathlib_dbl_divzero  m_wm.l(dunder.o)
    0x00002878   0x00002878   0x00000014   Code   RO         2102    i.__mathlib_dbl_infnan2  m_wm.l(dunder.o)
    0x0000288c   0x0000288c   0x00000004   PAD
    0x00002890   0x00002890   0x00000020   Code   RO         2103    i.__mathlib_dbl_invalid  m_wm.l(dunder.o)
    0x000028b0   0x000028b0   0x00000020   Code   RO         2104    i.__mathlib_dbl_overflow  m_wm.l(dunder.o)
    0x000028d0   0x000028d0   0x00000020   Code   RO         2106    i.__mathlib_dbl_underflow  m_wm.l(dunder.o)
    0x000028f0   0x000028f0   0x00000046   Code   RO         1898    i._init_box         RTX_CM4.lib(rt_membox.o)
    0x00002936   0x00002936   0x00000002   PAD
    0x00002938   0x00002938   0x00000030   Code   RO         1951    i.dbg_init          RTX_CM4.lib(hal_cm.o)
    0x00002968   0x00002968   0x00000020   Code   RO         1952    i.dbg_task_notify   RTX_CM4.lib(hal_cm.o)
    0x00002988   0x00002988   0x00000010   Code   RO         1953    i.dbg_task_switch   RTX_CM4.lib(hal_cm.o)
    0x00002998   0x00002998   0x00000018   Code   RO         2116    i.fabs              m_wm.l(fabs.o)
    0x000029b0   0x000029b0   0x0000002a   Code   RO          687    i.isrMessageGet     RTX_CM4.lib(rt_cmsis.o)
    0x000029da   0x000029da   0x0000002c   Code   RO          688    i.isrMessagePut     RTX_CM4.lib(rt_cmsis.o)
    0x00002a06   0x00002a06   0x00000002   PAD
    0x00002a08   0x00002a08   0x00000056   Code   RO         1753    i.isr_mbx_receive   RTX_CM4.lib(rt_mailbox.o)
    0x00002a5e   0x00002a5e   0x0000000e   Code   RO         1754    i.isr_mbx_send      RTX_CM4.lib(rt_mailbox.o)
    0x00002a6c   0x00002a6c   0x00000018   Code   RO          691    i.osDelay           RTX_CM4.lib(rt_cmsis.o)
    0x00002a84   0x00002a84   0x00000024   Code   RO          692    i.osKernelInitialize  RTX_CM4.lib(rt_cmsis.o)
    0x00002aa8   0x00002aa8   0x0000006c   Code   RO          694    i.osKernelStart     RTX_CM4.lib(rt_cmsis.o)
    0x00002b14   0x00002b14   0x00000018   Code   RO          695    i.osKernelSysTick   RTX_CM4.lib(rt_cmsis.o)
    0x00002b2c   0x00002b2c   0x00000018   Code   RO          703    i.osMessageGet      RTX_CM4.lib(rt_cmsis.o)
    0x00002b44   0x00002b44   0x0000002c   Code   RO          720    i.osThreadCreate    RTX_CM4.lib(rt_cmsis.o)
    0x00002b70   0x00002b70   0x00000018   Code   RO          721    i.osThreadExit      RTX_CM4.lib(rt_cmsis.o)
    0x00002b88   0x00002b88   0x0000000c   Code   RO          727    i.osTimerCall       RTX_CM4.lib(rt_cmsis.o)
    0x00002b94   0x00002b94   0x0000002c   Code   RO          732    i.osTimerThread     RTX_CM4.lib(rt_cmsis.o)
    0x00002bc0   0x00002bc0   0x00000028   Code   RO         1545    i.os_tick_init      RTX_CM4.lib(rt_system.o)
    0x00002be8   0x00002be8   0x00000002   Code   RO         1546    i.os_tick_irqack    RTX_CM4.lib(rt_system.o)
    0x00002bea   0x00002bea   0x00000002   PAD
    0x00002bec   0x00002bec   0x00000010   Code   RO         1547    i.os_tick_ovf       RTX_CM4.lib(rt_system.o)
    0x00002bfc   0x00002bfc   0x00000014   Code   RO         1548    i.os_tick_val       RTX_CM4.lib(rt_system.o)
    0x00002c10   0x00002c10   0x0000001a   Code   RO         1899    i.rt_alloc_box      RTX_CM4.lib(rt_membox.o)
    0x00002c2a   0x00002c2a   0x0000003e   Code   RO         1927    i.rt_alloc_mem      RTX_CM4.lib(rt_memory.o)
    0x00002c68   0x00002c68   0x00000038   Code   RO         1306    i.rt_block          RTX_CM4.lib(rt_task.o)
    0x00002ca0   0x00002ca0   0x00000048   Code   RO         1876    i.rt_chk_robin      RTX_CM4.lib(rt_robin.o)
    0x00002ce8   0x00002ce8   0x00000070   Code   RO         1677    i.rt_dec_dly        RTX_CM4.lib(rt_list.o)
    0x00002d58   0x00002d58   0x00000044   Code   RO         1307    i.rt_dispatch       RTX_CM4.lib(rt_task.o)
    0x00002d9c   0x00002d9c   0x00000006   Code   RO         1843    i.rt_dly_wait       RTX_CM4.lib(rt_time.o)
    0x00002da2   0x00002da2   0x00000002   PAD
    0x00002da4   0x00002da4   0x00000050   Code   RO         1638    i.rt_evt_psh        RTX_CM4.lib(rt_event.o)
    0x00002df4   0x00002df4   0x0000002c   Code   RO         1900    i.rt_free_box       RTX_CM4.lib(rt_membox.o)
    0x00002e20   0x00002e20   0x00000028   Code   RO         1928    i.rt_free_mem       RTX_CM4.lib(rt_memory.o)
    0x00002e48   0x00002e48   0x00000028   Code   RO         1678    i.rt_get_first      RTX_CM4.lib(rt_list.o)
    0x00002e70   0x00002e70   0x00000008   Code   RO          737    i.rt_id2obj         RTX_CM4.lib(rt_cmsis.o)
    0x00002e78   0x00002e78   0x00000048   Code   RO         1308    i.rt_init_context   RTX_CM4.lib(rt_task.o)
    0x00002ec0   0x00002ec0   0x0000001a   Code   RO         1929    i.rt_init_mem       RTX_CM4.lib(rt_memory.o)
    0x00002eda   0x00002eda   0x00000002   PAD
    0x00002edc   0x00002edc   0x00000018   Code   RO         1877    i.rt_init_robin     RTX_CM4.lib(rt_robin.o)
    0x00002ef4   0x00002ef4   0x00000080   Code   RO         1954    i.rt_init_stack     RTX_CM4.lib(hal_cm.o)
    0x00002f74   0x00002f74   0x00000008   Code   RO         1755    i.rt_mbx_check      RTX_CM4.lib(rt_mailbox.o)
    0x00002f7c   0x00002f7c   0x0000001a   Code   RO         1756    i.rt_mbx_init       RTX_CM4.lib(rt_mailbox.o)
    0x00002f96   0x00002f96   0x00000002   PAD
    0x00002f98   0x00002f98   0x000000f0   Code   RO         1757    i.rt_mbx_psh        RTX_CM4.lib(rt_mailbox.o)
    0x00003088   0x00003088   0x000000b4   Code   RO         1759    i.rt_mbx_wait       RTX_CM4.lib(rt_mailbox.o)
    0x0000313c   0x0000313c   0x00000044   Code   RO          738    i.rt_ms2tick        RTX_CM4.lib(rt_cmsis.o)
    0x00003180   0x00003180   0x00000010   Code   RO         1391    i.rt_mut_init       RTX_CM4.lib(rt_mutex.o)
    0x00003190   0x00003190   0x000000d8   Code   RO         1392    i.rt_mut_release    RTX_CM4.lib(rt_mutex.o)
    0x00003268   0x00003268   0x00000078   Code   RO         1393    i.rt_mut_wait       RTX_CM4.lib(rt_mutex.o)
    0x000032e0   0x000032e0   0x0000007c   Code   RO         1549    i.rt_pop_req        RTX_CM4.lib(rt_system.o)
    0x0000335c   0x0000335c   0x00000020   Code   RO         1550    i.rt_psh_req        RTX_CM4.lib(rt_system.o)
    0x0000337c   0x0000337c   0x0000005c   Code   RO         1680    i.rt_psq_enq        RTX_CM4.lib(rt_list.o)
    0x000033d8   0x000033d8   0x00000048   Code   RO         1681    i.rt_put_dly        RTX_CM4.lib(rt_list.o)
    0x00003420   0x00003420   0x00000036   Code   RO         1682    i.rt_put_prio       RTX_CM4.lib(rt_list.o)
    0x00003456   0x00003456   0x00000002   PAD
    0x00003458   0x00003458   0x00000014   Code   RO         1683    i.rt_put_rdy_first  RTX_CM4.lib(rt_list.o)
    0x0000346c   0x0000346c   0x00000034   Code   RO         1684    i.rt_resort_prio    RTX_CM4.lib(rt_list.o)
    0x000034a0   0x000034a0   0x00000010   Code   RO         1955    i.rt_ret_regs       RTX_CM4.lib(hal_cm.o)
    0x000034b0   0x000034b0   0x0000000c   Code   RO         1956    i.rt_ret_val        RTX_CM4.lib(hal_cm.o)
    0x000034bc   0x000034bc   0x00000010   Code   RO         1957    i.rt_ret_val2       RTX_CM4.lib(hal_cm.o)
    0x000034cc   0x000034cc   0x00000028   Code   RO         1685    i.rt_rmv_dly        RTX_CM4.lib(rt_list.o)
    0x000034f4   0x000034f4   0x00000030   Code   RO         1686    i.rt_rmv_list       RTX_CM4.lib(rt_list.o)
    0x00003524   0x00003524   0x00000034   Code   RO         1804    i.rt_sem_psh        RTX_CM4.lib(rt_semaphore.o)
    0x00003558   0x00003558   0x00000024   Code   RO         1552    i.rt_stk_check      RTX_CM4.lib(rt_system.o)
    0x0000357c   0x0000357c   0x00000028   Code   RO         1309    i.rt_switch_req     RTX_CM4.lib(rt_task.o)
    0x000035a4   0x000035a4   0x000000cc   Code   RO         1310    i.rt_sys_init       RTX_CM4.lib(rt_task.o)
    0x00003670   0x00003670   0x00000078   Code   RO         1311    i.rt_sys_start      RTX_CM4.lib(rt_task.o)
    0x000036e8   0x000036e8   0x00000040   Code   RO         1554    i.rt_systick        RTX_CM4.lib(rt_system.o)
    0x00003728   0x00003728   0x00000012   Code   RO          739    i.rt_tid2ptcb       RTX_CM4.lib(rt_cmsis.o)
    0x0000373a   0x0000373a   0x00000002   PAD
    0x0000373c   0x0000373c   0x00000034   Code   RO          740    i.rt_timer_insert   RTX_CM4.lib(rt_cmsis.o)
    0x00003770   0x00003770   0x00000088   Code   RO         1312    i.rt_tsk_create     RTX_CM4.lib(rt_task.o)
    0x000037f8   0x000037f8   0x0000017c   Code   RO         1313    i.rt_tsk_delete     RTX_CM4.lib(rt_task.o)
    0x00003974   0x00003974   0x0000007c   Code   RO         1315    i.rt_tsk_prio       RTX_CM4.lib(rt_task.o)
    0x000039f0   0x000039f0   0x00000010   Code   RO         1316    i.rt_tsk_self       RTX_CM4.lib(rt_task.o)
    0x00003a00   0x00003a00   0x0000006e   Code   RO         2127    i.sqrt              m_wm.l(sqrt.o)
    0x00003a6e   0x00003a6e   0x00000012   Code   RO          742    i.svcDelay          RTX_CM4.lib(rt_cmsis.o)
    0x00003a80   0x00003a80   0x00000070   Code   RO          743    i.svcKernelInitialize  RTX_CM4.lib(rt_cmsis.o)
    0x00003af0   0x00003af0   0x00000048   Code   RO          745    i.svcKernelStart    RTX_CM4.lib(rt_cmsis.o)
    0x00003b38   0x00003b38   0x00000038   Code   RO          746    i.svcKernelSysTick  RTX_CM4.lib(rt_cmsis.o)
    0x00003b70   0x00003b70   0x00000024   Code   RO          748    i.svcMessageCreate  RTX_CM4.lib(rt_cmsis.o)
    0x00003b94   0x00003b94   0x0000003a   Code   RO          749    i.svcMessageGet     RTX_CM4.lib(rt_cmsis.o)
    0x00003bce   0x00003bce   0x00000002   PAD
    0x00003bd0   0x00003bd0   0x0000006c   Code   RO          763    i.svcThreadCreate   RTX_CM4.lib(rt_cmsis.o)
    0x00003c3c   0x00003c3c   0x0000001c   Code   RO          764    i.svcThreadGetId    RTX_CM4.lib(rt_cmsis.o)
    0x00003c58   0x00003c58   0x00000038   Code   RO          767    i.svcThreadTerminate  RTX_CM4.lib(rt_cmsis.o)
    0x00003c90   0x00003c90   0x00000018   Code   RO          769    i.svcTimerCall      RTX_CM4.lib(rt_cmsis.o)
    0x00003ca8   0x00003ca8   0x0000005c   Code   RO          778    i.sysTimerTick      RTX_CM4.lib(rt_cmsis.o)
    0x00003d04   0x00003d04   0x00000018   Code   RO         2085    x$fpl$basic         fz_wm.l(basic.o)
    0x00003d1c   0x00003d1c   0x00000062   Code   RO         2038    x$fpl$d2f           fz_wm.l(d2f.o)
    0x00003d7e   0x00003d7e   0x00000002   PAD
    0x00003d80   0x00003d80   0x00000150   Code   RO         2040    x$fpl$dadd          fz_wm.l(daddsub_clz.o)
    0x00003ed0   0x00003ed0   0x00000010   Code   RO         2168    x$fpl$dcheck1       fz_wm.l(dcheck1.o)
    0x00003ee0   0x00003ee0   0x00000018   Code   RO         2190    x$fpl$dcmpinf       fz_wm.l(dcmpi.o)
    0x00003ef8   0x00003ef8   0x000002b0   Code   RO         2047    x$fpl$ddiv          fz_wm.l(ddiv.o)
    0x000041a8   0x000041a8   0x0000002e   Code   RO         2051    x$fpl$dflt          fz_wm.l(dflt_clz.o)
    0x000041d6   0x000041d6   0x00000026   Code   RO         2050    x$fpl$dfltu         fz_wm.l(dflt_clz.o)
    0x000041fc   0x000041fc   0x00000078   Code   RO         2170    x$fpl$dleqf         fz_wm.l(dleqf.o)
    0x00004274   0x00004274   0x00000154   Code   RO         2056    x$fpl$dmul          fz_wm.l(dmul.o)
    0x000043c8   0x000043c8   0x0000009c   Code   RO         2087    x$fpl$dnaninf       fz_wm.l(dnaninf.o)
    0x00004464   0x00004464   0x0000000c   Code   RO         2089    x$fpl$dretinf       fz_wm.l(dretinf.o)
    0x00004470   0x00004470   0x0000006c   Code   RO         2091    x$fpl$drleqf        fz_wm.l(drleqf.o)
    0x000044dc   0x000044dc   0x00000016   Code   RO         2041    x$fpl$drsb          fz_wm.l(daddsub_clz.o)
    0x000044f2   0x000044f2   0x00000002   PAD
    0x000044f4   0x000044f4   0x00000198   Code   RO         2172    x$fpl$dsqrt         fz_wm.l(dsqrt_umaal.o)
    0x0000468c   0x0000468c   0x000001d4   Code   RO         2042    x$fpl$dsub          fz_wm.l(daddsub_clz.o)
    0x00004860   0x00004860   0x0000008c   Code   RO         2093    x$fpl$fnaninf       fz_wm.l(fnaninf.o)
    0x000048ec   0x000048ec   0x0000000a   Code   RO         2272    x$fpl$fpinit        fz_wm.l(fpinit.o)
    0x000048f6   0x000048f6   0x0000000a   Code   RO         2095    x$fpl$fretinf       fz_wm.l(fretinf.o)
    0x00004900   0x00004900   0x00000086   Code   RO         2058    x$fpl$llsfromf      fz_wm.l(ffixll.o)
    0x00004986   0x00004986   0x00000064   Code   RO         2192    x$fpl$retnan        fz_wm.l(retnan.o)
    0x000049ea   0x000049ea   0x0000005c   Code   RO         2097    x$fpl$scalbn        fz_wm.l(scalbn.o)
    0x00004a46   0x00004a46   0x00000030   Code   RO         2264    x$fpl$trapveneer    fz_wm.l(trapv.o)
    0x00004a76   0x00004a76   0x00000000   Code   RO         2099    x$fpl$usenofp       fz_wm.l(usenofp.o)
    0x00004a76   0x00004a76   0x00000002   PAD
    0x00004a78   0x00004a78   0x00000060   Data   RO          163    .constdata          lab5.o
    0x00004ad8   0x00004ad8   0x00000068   Data   RO          244    .constdata          rtx_conf_cm.o
    0x00004b40   0x00004b40   0x00000254   Data   RO          365    .constdata          driverlib.lib(sysctl.o)
    0x00004d94   0x00004d94   0x00000004   PAD
    0x00004d98   0x00004d98   0x00000088   Data   RO         2065    .constdata          m_wm.l(pow.o)
    0x00004e20   0x00004e20   0x00000008   Data   RO         2124    .constdata          m_wm.l(qnan.o)
    0x00004e28   0x00004e28   0x00000025   Data   RO          145    .conststring        utils.o
    0x00004e4d   0x00004e4d   0x00000003   PAD
    0x00004e50   0x00004e50   0x00000020   Data   RO         2306    Region$$Table       anon$$obj.o


    Execution Region RW_IRAM1 (Exec base: 0x20000000, Load base: 0x00004e70, Size: 0x0000b718, Max: 0x00040000, ABSOLUTE)

    Exec Addr    Load Addr    Size         Type   Attr      Idx    E Section Name        Object

    0x20000000   0x00004e70   0x00000008   Data   RW          146    .data               utils.o
    0x20000008   0x00004e78   0x00000028   Data   RW          164    .data               lab5.o
    0x20000030   0x00004ea0   0x00000005   Data   RW          197    .data               cfaf128x128x16.o
    0x20000035   0x00004ea5   0x00000003   PAD
    0x20000038   0x00004ea8   0x00000014   Data   RW          245    .data               rtx_conf_cm.o
    0x2000004c   0x00004ebc   0x00000004   Data   RW          280    .data               system_tm4c129.o
    0x20000050   0x00004ec0   0x00000008   Data   RW          781    .data               RTX_CM4.lib(rt_cmsis.o)
    0x20000058   0x00004ec8   0x00000008   Data   RW         1318    .data               RTX_CM4.lib(rt_task.o)
    0x20000060   0x00004ed0   0x00000008   Data   RW         1557    .data               RTX_CM4.lib(rt_system.o)
    0x20000068   0x00004ed8   0x00000004   Data   RW         1847    .data               RTX_CM4.lib(rt_time.o)
    0x2000006c   0x00004edc   0x00000008   Data   RW         1878    .data               RTX_CM4.lib(rt_robin.o)
    0x20000074   0x00004ee4   0x00000001   Data   RW         1958    .data               RTX_CM4.lib(hal_cm.o)
    0x20000075   0x00004ee5   0x00000003   PAD
    0x20000078        -       0x00000036   Zero   RW          162    .bss                lab5.o
    0x200000ae   0x00004ee5   0x00000002   PAD
    0x200000b0        -       0x000023a0   Zero   RW          243    .bss                rtx_conf_cm.o
    0x20002450        -       0x00000034   Zero   RW         1317    .bss                RTX_CM4.lib(rt_task.o)
    0x20002484        -       0x00000030   Zero   RW         1687    .bss                RTX_CM4.lib(rt_list.o)
    0x200024b4        -       0x00000060   Zero   RW         2020    .bss                c_w.l(libspace.o)
    0x20002514   0x00004ee5   0x00000004   PAD
    0x20002518        -       0x00009000   Zero   RW          270    HEAP                startup_tm4c129.o
    0x2000b518        -       0x00000200   Zero   RW          269    STACK               startup_tm4c129.o


==============================================================================

Image component sizes


      Code (inc. data)   RO Data    RW Data    ZI Data      Debug   Object Name

      2208         98          0          5          0      10906   cfaf128x128x16.o
        32          0          0          0          0        581   comunication.o
      1024         80         96         40         54       4097   lab5.o
       200         36        104         20       9120       8961   rtx_conf_cm.o
       304         26        512          0      37376       6020   startup_tm4c129.o
        40         12          0          4          0        861   system_tm4c129.o
       188         14          0          0          0      34615   uart_functions.o
       508          8         37          8          0       1668   utils.o

    ----------------------------------------------------------------------
      4504        274        784         80      46552      67709   Object Totals
         0          0         32          0          0          0   (incl. Generated)
         0          0          3          3          2          0   (incl. Padding)

    ----------------------------------------------------------------------

      Code (inc. data)   RO Data    RW Data    ZI Data      Debug   Library Member Name

       268         24          0          1          0       4524   hal_cm.o
       408         34          0          0          0        824   hal_cm4.o
      1232        160          0          8          0      36927   rt_cmsis.o
        80          4          0          0          0        709   rt_event.o
       530         34          0          0         48       8685   rt_list.o
       554         10          0          0          0       4237   rt_mailbox.o
       140          0          0          0          0       2069   rt_membox.o
       128          0          0          0          0       2451   rt_memory.o
       352         14          0          0          0       2249   rt_mutex.o
        96         22          0          8          0       1254   rt_robin.o
        52          4          0          0          0        621   rt_semaphore.o
       334         64          0          8          0       7475   rt_system.o
      1216        174          0          8         52      10129   rt_task.o
         6          0          0          4          0        700   rt_time.o
         4          4          0          0          0        208   svc_table.o
         8          0          0          0          0         68   __main.o
         0          0          0          0          0          0   __rtentry.o
        20          0          0          0          0          0   __rtentry2.o
         6          0          0          0          0          0   __rtentry4.o
        52          8          0          0          0          0   __scatter.o
        26          0          0          0          0          0   __scatter_copy.o
        28          0          0          0          0          0   __scatter_zi.o
        22          0          0          0          0        100   _rserrno.o
        18          0          0          0          0         80   exit.o
         6          0          0          0          0        152   heapauxi.o
         0          0          0          0          0          0   indicate_semi.o
         2          0          0          0          0          0   libinit.o
         6          0          0          0          0          0   libinit2.o
         2          0          0          0          0          0   libshutdown.o
         2          0          0          0          0          0   libshutdown2.o
         8          4          0          0         96         68   libspace.o
        72          0          0          0          0         76   llsdiv.o
       238          0          0          0          0        100   lludivv7m.o
         4          0          0          0          0         68   rt_errno_addr_twolibspace.o
         2          0          0          0          0          0   rtexit.o
        10          0          0          0          0          0   rtexit2.o
        62          0          0          0          0         76   strlen.o
        12          4          0          0          0         68   sys_exit.o
        74          0          0          0          0         80   sys_stackheap_outer.o
         2          0          0          0          0         68   use_no_semi.o
       748         42        596          0          0       7457   sysctl.o
        24          0          0          0          0        164   basic.o
        98          4          0          0          0        140   d2f.o
       826         16          0          0          0        492   daddsub_clz.o
        16          4          0          0          0        116   dcheck1.o
        24          0          0          0          0        116   dcmpi.o
       688        140          0          0          0        256   ddiv.o
        84          0          0          0          0        232   dflt_clz.o
       120          4          0          0          0        140   dleqf.o
       340         12          0          0          0        152   dmul.o
       156          4          0          0          0        140   dnaninf.o
        12          0          0          0          0        116   dretinf.o
       108          0          0          0          0        128   drleqf.o
       408         56          0          0          0        168   dsqrt_umaal.o
       134          4          0          0          0        132   ffixll.o
       140          4          0          0          0        132   fnaninf.o
        10          0          0          0          0        116   fpinit.o
        10          0          0          0          0        116   fretinf.o
       100          0          0          0          0        116   retnan.o
        92          0          0          0          0        116   scalbn.o
        48          0          0          0          0        116   trapv.o
         0          0          0          0          0          0   usenofp.o
       164         44          0          0          0        620   dunder.o
        24          0          0          0          0        124   fabs.o
        48          0          0          0          0        124   fpclassify.o
       248          0          0          0          0        152   poly.o
      3152        296        136          0          0        352   pow.o
         0          0          8          0          0          0   qnan.o
       110          0          0          0          0        148   sqrt.o

    ----------------------------------------------------------------------
     14048       1194        744         40        200      96247   Library Totals
        34          0          4          3          4          0   (incl. Padding)

    ----------------------------------------------------------------------

      Code (inc. data)   RO Data    RW Data    ZI Data      Debug   Library Name

      5400        548          0         37        100      83062   RTX_CM4.lib
       682         16          0          0         96       1004   c_w.l
       748         42        596          0          0       7457   driverlib.lib
      3438        248          0          0          0       3204   fz_wm.l
      3746        340        144          0          0       1520   m_wm.l

    ----------------------------------------------------------------------
     14048       1194        744         40        200      96247   Library Totals

    ----------------------------------------------------------------------

==============================================================================


      Code (inc. data)   RO Data    RW Data    ZI Data      Debug   

     18552       1468       1528        120      46752     151940   Grand Totals
     18552       1468       1528        120      46752     151940   ELF Image Totals
     18552       1468       1528        120          0          0   ROM Totals

==============================================================================

    Total RO  Size (Code + RO Data)                20080 (  19.61kB)
    Total RW  Size (RW Data + ZI Data)             46872 (  45.77kB)
    Total ROM Size (Code + RO Data + RW Data)      20200 (  19.73kB)

==============================================================================

